 png_img

 Timestamp is 5c0bc00d (Sat Dec  8 15:58:53 2018)

 Preferred load address is 0000000180000000

 Start         Length     Name                   Class
 0001:00000000 00000020H .text$di                CODE
 0001:00000020 0003d820H .text$mn                CODE
 0001:0003d840 000001e0H .text$mn$00             CODE
 0001:0003da20 00000790H .text$x                 CODE
 0001:0003e1b0 00000011H .text$yd                CODE
 0002:00000000 00000270H .idata$5                DATA
 0002:00000270 00000010H .00cfg                  DATA
 0002:00000280 00000008H .CRT$XCA                DATA
 0002:00000288 00000010H .CRT$XCU                DATA
 0002:00000298 00000008H .CRT$XCZ                DATA
 0002:000002a0 00000008H .CRT$XIA                DATA
 0002:000002a8 00000018H .CRT$XIC                DATA
 0002:000002c0 00000008H .CRT$XIZ                DATA
 0002:000002c8 00000008H .CRT$XPA                DATA
 0002:000002d0 00000010H .CRT$XPX                DATA
 0002:000002e0 00000008H .CRT$XPXA               DATA
 0002:000002e8 00000008H .CRT$XPZ                DATA
 0002:000002f0 00000008H .CRT$XTA                DATA
 0002:000002f8 00000008H .CRT$XTZ                DATA
 0002:00000300 00000000H .gfids$y                DATA
 0002:00000300 00011eb0H .rdata                  DATA
 0002:000121b0 0000050cH .rdata$r                DATA
 0002:000126bc 0000036cH .rdata$zzzdbg           DATA
 0002:00012a28 00000008H .rtc$IAA                DATA
 0002:00012a30 00000008H .rtc$IZZ                DATA
 0002:00012a38 00000008H .rtc$TAA                DATA
 0002:00012a40 00000010H .rtc$TZZ                DATA
 0002:00012a50 000046e8H .xdata                  DATA
 0002:00017138 0000030cH .xdata$x                DATA
 0002:00017444 00000020H .didat$2                DATA
 0002:00017464 00000024H .didat$3                DATA
 0002:00017488 000001c0H .didat$4                DATA
 0002:00017648 00000f48H .didat$6                DATA
 0002:00018590 000001c0H .didat$7                DATA
 0002:00018750 00000054H .edata                  DATA
 0002:000187a4 00000014H .idata$2                DATA
 0002:000187b8 00000018H .idata$3                DATA
 0002:000187d0 00000270H .idata$4                DATA
 0002:00018a40 000005a0H .idata$6                DATA
 0003:00000000 00000ad0H .data                   DATA
 0003:00000ad0 000002f0H .data$r                 DATA
 0003:00000dc0 000001c0H .didat$5                DATA
 0003:00000f80 00001248H .bss                    DATA
 0004:00000000 00003714H .pdata                  DATA
 0005:00000000 00000060H .rsrc$01                DATA
 0005:00000060 00000180H .rsrc$02                DATA

  Address         Publics by Value              Rva+Base               Lib:Object

 0000:00000000       __hybrid_code_map          0000000000000000     <absolute>
 0000:00000000       __guard_fids_count         0000000000000000     <absolute>
 0000:00000000       __guard_longjmp_count      0000000000000000     <absolute>
 0000:00000000       __volatile_metadata        0000000000000000     <absolute>
 0000:00000000       __guard_longjmp_table      0000000000000000     <absolute>
 0000:00000000       __hybrid_code_map_count    0000000000000000     <absolute>
 0000:00000000       __guard_iat_table          0000000000000000     <absolute>
 0000:00000000       __guard_iat_count          0000000000000000     <absolute>
 0000:00000000       ___safe_se_handler_count   0000000000000000     <absolute>
 0000:00000000       __enclave_config           0000000000000000     <absolute>
 0000:00000000       ___safe_se_handler_table   0000000000000000     <absolute>
 0000:00000000       __guard_fids_table         0000000000000000     <absolute>
 0000:00000000       __hybrid_auxiliary_iat     0000000000000000     <absolute>
 0000:00000000       __dynamic_value_reloc_table 0000000000000000     <absolute>
 0000:00000100       __guard_flags              0000000000000100     <absolute>
 0000:00000000       __ImageBase                0000000180000000     <linker-defined>
 0001:000000f0       ?New@?$Factory@VFunctionTemplate@v8@@@imp@Nan@@SA?AV?$Local@VFunctionTemplate@v8@@@v8@@P6AXAEBV?$FunctionCallbackInfo@VValue@v8@@@3@@ZV?$Local@VValue@v8@@@5@V?$Local@VSignature@v8@@@5@@Z 00000001800010f0 f i init.obj
 0001:000002b0       ?InitAll@@YAXV?$Local@VObject@v8@@@v8@@@Z 00000001800012b0 f   init.obj
 0001:000003b0       ??1ObjectWrap@node@@UEAA@XZ 00000001800013b0 f i PngImgAdapter.obj
 0001:00000430       ?Ref@ObjectWrap@node@@MEAAXXZ 0000000180001430 f i PngImgAdapter.obj
 0001:00000470       ?Unref@ObjectWrap@node@@MEAAXXZ 0000000180001470 f i PngImgAdapter.obj
 0001:00000520       ?WeakCallback@ObjectWrap@node@@CAXAEBV?$WeakCallbackInfo@VObjectWrap@node@@@v8@@@Z 0000000180001520 f i PngImgAdapter.obj
 0001:00000580       ??_GObjectWrap@node@@UEAAPEAXI@Z 0000000180001580 f i PngImgAdapter.obj
 0001:00000580       ??_EObjectWrap@node@@UEAAPEAXI@Z 0000000180001580 f i * CIL library *:* CIL module *
 0001:00000690       ??1EscapableHandleScope@Nan@@QEAA@XZ 0000000180001690 f i PngImgAdapter.obj
 0001:00000690       ??1HandleScope@Nan@@QEAA@XZ 0000000180001690 f i PngImgAdapter.obj
 0001:000006a0       ?ThrowError@Nan@@YAXPEBD@Z 00000001800016a0 f i PngImgAdapter.obj
 0001:00000740       ??0Utf8String@Nan@@QEAA@V?$Local@VValue@v8@@@v8@@@Z 0000000180001740 f i PngImgAdapter.obj
 0001:00000860       ??1Utf8String@Nan@@QEAA@XZ 0000000180001860 f i PngImgAdapter.obj
 0001:00000880       ?Call@Callback@Nan@@QEBA?AV?$MaybeLocal@VValue@v8@@@v8@@HQEAV?$Local@VValue@v8@@@4@PEAVAsyncResource@2@@Z 0000000180001880 f i PngImgAdapter.obj
 0001:00000990       ??1AsyncWorker@Nan@@UEAA@XZ 0000000180001990 f i PngImgAdapter.obj
 0001:00000a50       ?WorkComplete@AsyncWorker@Nan@@UEAAXXZ 0000000180001a50 f i PngImgAdapter.obj
 0001:00000be0       ?Destroy@AsyncWorker@Nan@@UEAAXXZ 0000000180001be0 f i PngImgAdapter.obj
 0001:00000c00       ?HandleOKCallback@AsyncWorker@Nan@@MEAAXXZ 0000000180001c00 f i PngImgAdapter.obj
 0001:00000c50       ?HandleErrorCallback@AsyncWorker@Nan@@MEAAXXZ 0000000180001c50 f i PngImgAdapter.obj
 0001:00000d00       ??_GAsyncWorker@Nan@@UEAAPEAXI@Z 0000000180001d00 f i PngImgAdapter.obj
 0001:00000d00       ??_EAsyncWorker@Nan@@UEAAPEAXI@Z 0000000180001d00 f i * CIL library *:* CIL module *
 0001:00000d40       ??1?$Persistent@VObject@v8@@V?$NonCopyablePersistentTraits@VObject@v8@@@2@@Nan@@QEAA@XZ 0000000180001d40 f i PngImgAdapter.obj
 0001:00000d60       ?AsyncExecute@Nan@@YAXPEAUuv_work_s@@@Z 0000000180001d60 f i PngImgAdapter.obj
 0001:00000e90       ?AsyncExecuteComplete@Nan@@YAXPEAUuv_work_s@@@Z 0000000180001e90 f i PngImgAdapter.obj
 0001:00001070       ?SetPrototypeMethod@Nan@@YAXV?$Local@VFunctionTemplate@v8@@@v8@@PEBDP6AXAEBV?$FunctionCallbackInfo@VValue@v8@@@1@@Z@Z 0000000180002070 f i PngImgAdapter.obj
 0001:00001160       ?SetAccessor@Nan@@YAXV?$Local@VObjectTemplate@v8@@@v8@@V?$Local@VString@v8@@@3@P6AX1AEBV?$PropertyCallbackInfo@VValue@v8@@@1@@ZP6AX1V?$Local@VValue@v8@@@3@AEBV?$PropertyCallbackInfo@X@1@@Z4W4AccessControl@3@W4PropertyAttribute@3@V?$Local@VAccessorSignature@v8@@@3@@Z 0000000180002160 f i PngImgAdapter.obj
 0001:000012d0       ??_GPngImgAdapter@@UEAAPEAXI@Z 00000001800022d0 f i PngImgAdapter.obj
 0001:000012d0       ??_EPngImgAdapter@@UEAAPEAXI@Z 00000001800022d0 f i * CIL library *:* CIL module *
 0001:00001310       ??0SaveWorker@@QEAA@PEAVCallback@Nan@@AEAVPngImg@@V?$basic_string@DU?$char_traits@D@std@@V?$allocator@D@2@@std@@AEBV?$Local@VObject@v8@@@v8@@@Z 0000000180002310 f i PngImgAdapter.obj
 0001:000014f0       ?Execute@SaveWorker@@UEAAXXZ 00000001800024f0 f i PngImgAdapter.obj
 0001:00001610       ??_GSaveWorker@@UEAAPEAXI@Z 0000000180002610 f i PngImgAdapter.obj
 0001:00001610       ??_ESaveWorker@@UEAAPEAXI@Z 0000000180002610 f i * CIL library *:* CIL module *
 0001:000016b0       ?Init@PngImgAdapter@@SAXXZ 00000001800026b0 f   PngImgAdapter.obj
 0001:000018f0       ?NewInstance@PngImgAdapter@@SAXAEBV?$FunctionCallbackInfo@VValue@v8@@@Nan@@@Z 00000001800028f0 f   PngImgAdapter.obj
 0001:00001a90       ?New@PngImgAdapter@@CAXAEBV?$FunctionCallbackInfo@VValue@v8@@@Nan@@@Z 0000000180002a90 f   PngImgAdapter.obj
 0001:00001c80       ?Width@PngImgAdapter@@CAXV?$Local@VString@v8@@@v8@@AEBV?$PropertyCallbackInfo@VValue@v8@@@Nan@@@Z 0000000180002c80 f   PngImgAdapter.obj
 0001:00001d00       ?Height@PngImgAdapter@@CAXV?$Local@VString@v8@@@v8@@AEBV?$PropertyCallbackInfo@VValue@v8@@@Nan@@@Z 0000000180002d00 f   PngImgAdapter.obj
 0001:00001d80       ?Get@PngImgAdapter@@CAXAEBV?$FunctionCallbackInfo@VValue@v8@@@Nan@@@Z 0000000180002d80 f   PngImgAdapter.obj
 0001:000020b0       ?RGBObjToPxl@@YA?AUPxl@@AEBV?$Local@VObject@v8@@@v8@@@Z 00000001800030b0 f   PngImgAdapter.obj
 0001:00002470       ?Fill@PngImgAdapter@@CAXAEBV?$FunctionCallbackInfo@VValue@v8@@@Nan@@@Z 0000000180003470 f   PngImgAdapter.obj
 0001:00002700       ?Crop@PngImgAdapter@@CAXAEBV?$FunctionCallbackInfo@VValue@v8@@@Nan@@@Z 0000000180003700 f   PngImgAdapter.obj
 0001:00002930       ?SetSize@PngImgAdapter@@CAXAEBV?$FunctionCallbackInfo@VValue@v8@@@Nan@@@Z 0000000180003930 f   PngImgAdapter.obj
 0001:00002b40       ?Insert@PngImgAdapter@@CAXAEBV?$FunctionCallbackInfo@VValue@v8@@@Nan@@@Z 0000000180003b40 f   PngImgAdapter.obj
 0001:00002c30       ?RotateRight@PngImgAdapter@@CAXAEBV?$FunctionCallbackInfo@VValue@v8@@@Nan@@@Z 0000000180003c30 f   PngImgAdapter.obj
 0001:00002c70       ?RotateLeft@PngImgAdapter@@CAXAEBV?$FunctionCallbackInfo@VValue@v8@@@Nan@@@Z 0000000180003c70 f   PngImgAdapter.obj
 0001:00002cb0       ?Write@PngImgAdapter@@CAXAEBV?$FunctionCallbackInfo@VValue@v8@@@Nan@@@Z 0000000180003cb0 f   PngImgAdapter.obj
 0001:00002e70       ??1?$unique_ptr@UPxl@@U?$default_delete@UPxl@@@std@@@std@@QEAA@XZ 0000000180003e70 f i PngImgAdapter.obj
 0001:00002e90       ??1?$basic_string@DU?$char_traits@D@std@@V?$allocator@D@2@@std@@QEAA@XZ 0000000180003e90 f i PngImgAdapter.obj
 0001:00002ef0       ??0?$basic_string@DU?$char_traits@D@std@@V?$allocator@D@2@@std@@QEAA@AEBV01@@Z 0000000180003ef0 f i PngImgAdapter.obj
 0001:00002fd0       ?assign@?$basic_string@DU?$char_traits@D@std@@V?$allocator@D@2@@std@@QEAAAEAV12@QEBD@Z 0000000180003fd0 f i PngImgAdapter.obj
 0001:00003130       ??$Unwrap@VPngImgAdapter@@@ObjectWrap@node@@SAPEAVPngImgAdapter@@V?$Local@VObject@v8@@@v8@@@Z 0000000180004130 f i PngImgAdapter.obj
 0001:000031b0       ?_Xlen@?$basic_string@DU?$char_traits@D@std@@V?$allocator@D@2@@std@@SAXXZ 00000001800041b0 f i PngImgAdapter.obj
 0001:000031d0       ??0PngStruct@@IEAA@V?$function@$$A6APEAUpng_struct_def@@PEBDPEAXP6AXPEAU1@0@Z3@Z@std@@V?$function@$$A6AXPEAPEAUpng_struct_def@@PEAPEAUpng_info_def@@@Z@2@@Z 00000001800041d0 f i PngImg.obj
 0001:000032f0       ??1PngStruct@@IEAA@XZ      00000001800042f0 f i PngImg.obj
 0001:00003370       ??1?$function@$$A6A?AUPoint@@AEBU1@AEBUImgInfo@@@Z@std@@QEAA@XZ 0000000180004370 f i PngImg.obj
 0001:00003370       ??1?$function@$$A6AXPEAPEAUpng_struct_def@@PEAPEAUpng_info_def@@@Z@std@@QEAA@XZ 0000000180004370 f i PngImg.obj
 0001:000033a0       ??1?$function@$$A6APEAUpng_struct_def@@PEBDPEAXP6AXPEAU1@0@Z3@Z@std@@QEAA@XZ 00000001800043a0 f i PngImg.obj
 0001:000033d0       ?readFromBuf@@YAXPEAUpng_struct_def@@PEAE_K@Z 00000001800043d0 f   PngImg.obj
 0001:00003410       ??0PngImg@@QEAA@PEBD_K@Z   0000000180004410 f   PngImg.obj
 0001:000036c0       ??1PngWriteStruct@@QEAA@XZ 00000001800046c0 f i PngImg.obj
 0001:000036c0       ??1PngReadStruct@@QEAA@XZ  00000001800046c0 f i PngImg.obj
 0001:000036d0       ??1PngImg@@QEAA@XZ         00000001800046d0 f   PngImg.obj
 0001:00003790       ?InitStorage_@PngImg@@AEAAXXZ 0000000180004790 f   PngImg.obj
 0001:00003820       ?Get@PngImg@@QEBA?AV?$unique_ptr@UPxl@@U?$default_delete@UPxl@@@std@@@std@@II@Z 0000000180004820 f   PngImg.obj
 0001:000038f0       ?Insert@PngImg@@QEAAXAEBV1@II@Z 00000001800048f0 f   PngImg.obj
 0001:00003a80       ?CopyRows_@PngImg@@AEAAXAEBV?$vector@PEAEV?$allocator@PEAE@std@@@std@@_K1II@Z 0000000180004a80 f   PngImg.obj
 0001:00003b10       ?Rotate_@PngImg@@AEAAXV?$function@$$A6A?AUPoint@@AEBU1@AEBUImgInfo@@@Z@std@@@Z 0000000180004b10 f   PngImg.obj
 0001:00003d00       ?Write@PngImg@@QEAA_NAEBV?$basic_string@DU?$char_traits@D@std@@V?$allocator@D@2@@std@@@Z 0000000180004d00 f   PngImg.obj
 0001:000040b0       ??1?$unique_ptr@$$BY0A@EU?$default_delete@$$BY0A@E@std@@@std@@QEAA@XZ 00000001800050b0 f i PngImg.obj
 0001:000040c0       ??1?$vector@PEAEV?$allocator@PEAE@std@@@std@@QEAA@XZ 00000001800050c0 f i PngImg.obj
 0001:00004120       ??0?$vector@PEAEV?$allocator@PEAE@std@@@std@@QEAA@AEBV01@@Z 0000000180005120 f i PngImg.obj
 0001:00004210       ?_Xlength@?$vector@PEAEV?$allocator@PEAE@std@@@std@@CAXXZ 0000000180005210 f i PngImg.obj
 0001:00004230       ??$_Resize@V<lambda_9dca8f4b3cdbd0d84484b3531e3d6dd6>@@@?$vector@PEAEV?$allocator@PEAE@std@@@std@@AEAAX_KV<lambda_9dca8f4b3cdbd0d84484b3531e3d6dd6>@@@Z 0000000180005230 f i PngImg.obj
 0001:000043d0       ??$_Resize@V<lambda_ff6d807a18974217bb88e503912aa51c>@@@?$vector@PEAEV?$allocator@PEAE@std@@@std@@AEAAX_KV<lambda_ff6d807a18974217bb88e503912aa51c>@@@Z 00000001800053d0 f i PngImg.obj
 0001:00004540       ?_Change_array@?$vector@PEAEV?$allocator@PEAE@std@@@std@@AEAAXQEAPEAE_K1@Z 0000000180005540 f i PngImg.obj
 0001:000045d0       ?_Delete_this@?$_Func_impl_no_alloc@V<lambda_b270b1f630724084d5f3bb877471ea65>@@XPEAPEAUpng_struct_def@@PEAPEAUpng_info_def@@@std@@EEAAX_N@Z 00000001800055d0 f   PngImg.obj
 0001:000045d0       ?_Delete_this@?$_Func_impl_no_alloc@P6APEAUpng_struct_def@@PEBDPEAXP6AXPEAU1@0@Z3@ZPEAU1@PEBDPEAXP6AX20@ZP6AX20@Z@std@@EEAAX_N@Z 00000001800055d0 f   PngImg.obj
 0001:000045d0       ?_Delete_this@?$_Func_impl_no_alloc@V<lambda_2a721ab91676828147c5c332544348da>@@XPEAPEAUpng_struct_def@@PEAPEAUpng_info_def@@@std@@EEAAX_N@Z 00000001800055d0 f   PngImg.obj
 0001:000045e0       ?_Get@?$_Func_impl_no_alloc@V<lambda_2a721ab91676828147c5c332544348da>@@XPEAPEAUpng_struct_def@@PEAPEAUpng_info_def@@@std@@EEBAPEBXXZ 00000001800055e0 f   PngImg.obj
 0001:000045e0       ?_Get@?$_Func_impl_no_alloc@V<lambda_b270b1f630724084d5f3bb877471ea65>@@XPEAPEAUpng_struct_def@@PEAPEAUpng_info_def@@@std@@EEBAPEBXXZ 00000001800055e0 f   PngImg.obj
 0001:000045e0       ?_Get@?$_Func_impl_no_alloc@P6APEAUpng_struct_def@@PEBDPEAXP6AXPEAU1@0@Z3@ZPEAU1@PEBDPEAXP6AX20@ZP6AX20@Z@std@@EEBAPEBXXZ 00000001800055e0 f   PngImg.obj
 0001:00004630       ?_Target_type@?$_Func_impl_no_alloc@V<lambda_b270b1f630724084d5f3bb877471ea65>@@XPEAPEAUpng_struct_def@@PEAPEAUpng_info_def@@@std@@EEBAAEBVtype_info@@XZ 0000000180005630 f i PngImg.obj
 0001:00004640       ?_Copy@?$_Func_impl_no_alloc@V<lambda_b270b1f630724084d5f3bb877471ea65>@@XPEAPEAUpng_struct_def@@PEAPEAUpng_info_def@@@std@@EEBAPEAV?$_Func_base@XPEAPEAUpng_struct_def@@PEAPEAUpng_info_def@@@2@PEAX@Z 0000000180005640 f i PngImg.obj
 0001:00004640       ?_Move@?$_Func_impl_no_alloc@V<lambda_b270b1f630724084d5f3bb877471ea65>@@XPEAPEAUpng_struct_def@@PEAPEAUpng_info_def@@@std@@EEAAPEAV?$_Func_base@XPEAPEAUpng_struct_def@@PEAPEAUpng_info_def@@@2@PEAX@Z 0000000180005640 f i PngImg.obj
 0001:00004650       ?_Target_type@?$_Func_impl_no_alloc@V<lambda_2a721ab91676828147c5c332544348da>@@XPEAPEAUpng_struct_def@@PEAPEAUpng_info_def@@@std@@EEBAAEBVtype_info@@XZ 0000000180005650 f i PngImg.obj
 0001:00004660       ?_Copy@?$_Func_impl_no_alloc@V<lambda_2a721ab91676828147c5c332544348da>@@XPEAPEAUpng_struct_def@@PEAPEAUpng_info_def@@@std@@EEBAPEAV?$_Func_base@XPEAPEAUpng_struct_def@@PEAPEAUpng_info_def@@@2@PEAX@Z 0000000180005660 f i PngImg.obj
 0001:00004660       ?_Move@?$_Func_impl_no_alloc@V<lambda_2a721ab91676828147c5c332544348da>@@XPEAPEAUpng_struct_def@@PEAPEAUpng_info_def@@@std@@EEAAPEAV?$_Func_base@XPEAPEAUpng_struct_def@@PEAPEAUpng_info_def@@@2@PEAX@Z 0000000180005660 f i PngImg.obj
 0001:00004670       ?_Target_type@?$_Func_impl_no_alloc@P6APEAUpng_struct_def@@PEBDPEAXP6AXPEAU1@0@Z3@ZPEAU1@PEBDPEAXP6AX20@ZP6AX20@Z@std@@EEBAAEBVtype_info@@XZ 0000000180005670 f i PngImg.obj
 0001:00004680       ?_Move@?$_Func_impl_no_alloc@P6APEAUpng_struct_def@@PEBDPEAXP6AXPEAU1@0@Z3@ZPEAU1@PEBDPEAXP6AX20@ZP6AX20@Z@std@@EEAAPEAV?$_Func_base@PEAUpng_struct_def@@PEBDPEAXP6AXPEAU1@PEBD@ZP6AX01@Z@2@PEAX@Z 0000000180005680 f i PngImg.obj
 0001:00004680       ?_Copy@?$_Func_impl_no_alloc@P6APEAUpng_struct_def@@PEBDPEAXP6AXPEAU1@0@Z3@ZPEAU1@PEBDPEAXP6AX20@ZP6AX20@Z@std@@EEBAPEAV?$_Func_base@PEAUpng_struct_def@@PEBDPEAXP6AXPEAU1@PEBD@ZP6AX01@Z@2@PEAX@Z 0000000180005680 f i PngImg.obj
 0001:000046a0       ?_Do_call@?$_Func_impl_no_alloc@P6APEAUpng_struct_def@@PEBDPEAXP6AXPEAU1@0@Z3@ZPEAU1@PEBDPEAXP6AX20@ZP6AX20@Z@std@@EEAAPEAUpng_struct_def@@$$QEAPEBD$$QEAPEAX$$QEAP6AXPEAU3@PEBD@Z4@Z 00000001800056a0 f i PngImg.obj
 0001:000046e0       ?_Do_call@?$_Func_impl_no_alloc@V<lambda_2a721ab91676828147c5c332544348da>@@XPEAPEAUpng_struct_def@@PEAPEAUpng_info_def@@@std@@EEAAX$$QEAPEAPEAUpng_struct_def@@$$QEAPEAPEAUpng_info_def@@@Z 00000001800056e0 f i PngImg.obj
 0001:00004740       ?_Do_call@?$_Func_impl_no_alloc@V<lambda_b270b1f630724084d5f3bb877471ea65>@@XPEAPEAUpng_struct_def@@PEAPEAUpng_info_def@@@std@@EEAAX$$QEAPEAPEAUpng_struct_def@@$$QEAPEAPEAUpng_info_def@@@Z 0000000180005740 f i PngImg.obj
 0001:00004850       png_sig_cmp                0000000180005850 f   libpng:png.obj
 0001:000048e0       png_zalloc                 00000001800058e0 f   libpng:png.obj
 0001:00004960       png_zfree                  0000000180005960 f   libpng:png.obj
 0001:00004990       png_calculate_crc          0000000180005990 f   libpng:png.obj
 0001:00004a40       png_user_version_check     0000000180005a40 f   libpng:png.obj
 0001:00004bf0       png_create_png_struct      0000000180005bf0 f   libpng:png.obj
 0001:00004dc0       png_destroy_info_struct    0000000180005dc0 f   libpng:png.obj
 0001:00004e40       png_free_data              0000000180005e40 f   libpng:png.obj
 0001:000054c0       png_chunk_unknown_handling 00000001800064c0 f   libpng:png.obj
 0001:00005550       png_zstream_error          0000000180006550 f   libpng:png.obj
 0001:00005790       png_colorspace_set_gamma   0000000180006790 f   libpng:png.obj
 0001:00005850       png_colorspace_sync_info   0000000180006850 f   libpng:png.obj
 0001:000058c0       png_colorspace_sync        00000001800068c0 f   libpng:png.obj
 0001:000062e0       png_colorspace_set_chromaticities 00000001800072e0 f   libpng:png.obj
 0001:000068c0       png_colorspace_set_sRGB    00000001800078c0 f   libpng:png.obj
 0001:00006a50       png_icc_check_header       0000000180007a50 f   libpng:png.obj
 0001:00006d70       png_icc_check_tag_table    0000000180007d70 f   libpng:png.obj
 0001:00007160       png_icc_set_sRGB           0000000180008160 f   libpng:png.obj
 0001:000071d0       png_colorspace_set_rgb_coefficients 00000001800081d0 f   libpng:png.obj
 0001:00007400       png_check_IHDR             0000000180008400 f   libpng:png.obj
 0001:000075f0       png_check_fp_number        00000001800085f0 f   libpng:png.obj
 0001:000077c0       png_check_fp_string        00000001800087c0 f   libpng:png.obj
 0001:00007820       png_muldiv                 0000000180008820 f   libpng:png.obj
 0001:000078b0       png_reciprocal             00000001800088b0 f   libpng:png.obj
 0001:00007900       png_reciprocal2            0000000180008900 f   libpng:png.obj
 0001:00007960       png_gamma_8bit_correct     0000000180008960 f   libpng:png.obj
 0001:000079c0       png_gamma_correct          00000001800089c0 f   libpng:png.obj
 0001:00007fd0       png_destroy_gamma_table    0000000180008fd0 f   libpng:png.obj
 0001:00008250       png_build_gamma_table      0000000180009250 f   libpng:png.obj
 0001:00008660       png_write_info_before_PLTE 0000000180009660 f   libpng:pngwrite.obj
 0001:00008a30       png_write_info             0000000180009a30 f   libpng:pngwrite.obj
 0001:00009030       png_write_end              000000018000a030 f   libpng:pngwrite.obj
 0001:00009240       png_create_write_struct    000000018000a240 f   libpng:pngwrite.obj
 0001:00009410       png_write_row              000000018000a410 f   libpng:pngwrite.obj
 0001:000099c0       __local_stdio_printf_options 000000018000a9c0 f i libpng:pngerror.obj
 0001:000099d0       fprintf                    000000018000a9d0 f i libpng:pngerror.obj
 0001:00009a20       png_error                  000000018000aa20 f   libpng:pngerror.obj
 0001:00009a50       png_warning                000000018000aa50 f   libpng:pngerror.obj
 0001:00009b00       png_formatted_warning      000000018000ab00 f   libpng:pngerror.obj
 0001:00009cb0       png_benign_error           000000018000acb0 f   libpng:pngerror.obj
 0001:00009e80       png_chunk_error            000000018000ae80 f   libpng:pngerror.obj
 0001:00009ec0       png_chunk_warning          000000018000aec0 f   libpng:pngerror.obj
 0001:00009fb0       png_free_jmpbuf            000000018000afb0 f   libpng:pngerror.obj
 0001:0000a100       png_longjmp                000000018000b100 f   libpng:pngerror.obj
 0001:0000a140       png_create_read_struct     000000018000b140 f   libpng:pngread.obj
 0001:0000a1d0       png_read_info              000000018000b1d0 f   libpng:pngread.obj
 0001:0000a670       png_read_row               000000018000b670 f   libpng:pngread.obj
 0001:0000aa30       png_read_image             000000018000ba30 f   libpng:pngread.obj
 0001:0000ad40       png_default_read_data      000000018000bd40 f   libpng:pngrio.obj
 0001:0000ad90       png_set_IHDR               000000018000bd90 f   libpng:pngset.obj
 0001:0000ae80       png_set_pCAL               000000018000be80 f   libpng:pngset.obj
 0001:0000b140       png_set_sCAL_s             000000018000c140 f   libpng:pngset.obj
 0001:0000b310       png_set_PLTE               000000018000c310 f   libpng:pngset.obj
 0001:0000b400       png_set_text_2             000000018000c400 f   libpng:pngset.obj
 0001:0000b7d0       png_set_tRNS               000000018000c7d0 f   libpng:pngset.obj
 0001:0000b920       png_set_sPLT               000000018000c920 f   libpng:pngset.obj
 0001:0000bc50       png_set_unknown_chunks     000000018000cc50 f   libpng:pngset.obj
 0001:0000be20       png_destroy_png_struct     000000018000ce20 f   libpng:pngmem.obj
 0001:0000beb0       png_calloc                 000000018000ceb0 f   libpng:pngmem.obj
 0001:0000bf90       png_realloc_array          000000018000cf90 f   libpng:pngmem.obj
 0001:0000c050       png_malloc_warn            000000018000d050 f   libpng:pngmem.obj
 0001:0000c0a0       png_do_invert              000000018000d0a0 f   libpng:pngtrans.obj
 0001:0000c190       png_do_packswap            000000018000d190 f   libpng:pngtrans.obj
 0001:0000c200       png_do_strip_channel       000000018000d200 f   libpng:pngtrans.obj
 0001:0000c3e0       png_do_bgr                 000000018000d3e0 f   libpng:pngtrans.obj
 0001:0000c4e0       png_do_check_palette_indexes 000000018000d4e0 f   libpng:pngtrans.obj
 0001:0000c7e0       png_write_chunk_data       000000018000d7e0 f   libpng:pngwutil.obj
 0001:0000c840       png_write_chunk_end        000000018000d840 f   libpng:pngwutil.obj
 0001:0000ce90       png_free_buffer_list       000000018000de90 f   libpng:pngwutil.obj
 0001:0000d360       png_write_IHDR             000000018000e360 f   libpng:pngwutil.obj
 0001:0000d6c0       png_write_PLTE             000000018000e6c0 f   libpng:pngwutil.obj
 0001:0000d8c0       png_compress_IDAT          000000018000e8c0 f   libpng:pngwutil.obj
 0001:0000dc00       png_write_iCCP             000000018000ec00 f   libpng:pngwutil.obj
 0001:0000dde0       png_write_sPLT             000000018000ede0 f   libpng:pngwutil.obj
 0001:0000e0d0       png_write_cHRM_fixed       000000018000f0d0 f   libpng:pngwutil.obj
 0001:0000e250       png_write_tRNS             000000018000f250 f   libpng:pngwutil.obj
 0001:0000e440       png_write_bKGD             000000018000f440 f   libpng:pngwutil.obj
 0001:0000e5b0       png_write_hIST             000000018000f5b0 f   libpng:pngwutil.obj
 0001:0000e760       png_write_tEXt             000000018000f760 f   libpng:pngwutil.obj
 0001:0000e8a0       png_write_zTXt             000000018000f8a0 f   libpng:pngwutil.obj
 0001:0000ea40       png_write_iTXt             000000018000fa40 f   libpng:pngwutil.obj
 0001:0000ed20       png_write_pCAL             000000018000fd20 f   libpng:pngwutil.obj
 0001:0000f160       png_write_tIME             0000000180010160 f   libpng:pngwutil.obj
 0001:0000f280       png_write_start_row        0000000180010280 f   libpng:pngwutil.obj
 0001:0000f4b0       png_write_finish_row       00000001800104b0 f   libpng:pngwutil.obj
 0001:0000f630       png_do_write_interlace     0000000180010630 f   libpng:pngwutil.obj
 0001:0000f900       png_write_find_filter      0000000180010900 f   libpng:pngwutil.obj
 0001:00010c30       png_default_write_data     0000000180011c30 f   libpng:pngwio.obj
 0001:00010c80       png_default_flush          0000000180011c80 f   libpng:pngwio.obj
 0001:000111d0       png_do_write_transformations 00000001800121d0 f   libpng:pngwtran.obj
 0001:00011410       png_read_chunk_header      0000000180012410 f   libpng:pngrutil.obj
 0001:000115f0       png_crc_read               00000001800125f0 f   libpng:pngrutil.obj
 0001:00011650       png_crc_finish             0000000180012650 f   libpng:pngrutil.obj
 0001:00012090       png_handle_IHDR            0000000180013090 f   libpng:pngrutil.obj
 0001:00012330       png_handle_PLTE            0000000180013330 f   libpng:pngrutil.obj
 0001:000126a0       png_handle_IEND            00000001800136a0 f   libpng:pngrutil.obj
 0001:00012720       png_handle_gAMA            0000000180013720 f   libpng:pngrutil.obj
 0001:000128e0       png_handle_sBIT            00000001800138e0 f   libpng:pngrutil.obj
 0001:00012bb0       png_handle_cHRM            0000000180013bb0 f   libpng:pngrutil.obj
 0001:00012fb0       png_handle_sRGB            0000000180013fb0 f   libpng:pngrutil.obj
 0001:00013190       png_handle_iCCP            0000000180014190 f   libpng:pngrutil.obj
 0001:00013890       png_handle_sPLT            0000000180014890 f   libpng:pngrutil.obj
 0001:00013ba0       png_handle_tRNS            0000000180014ba0 f   libpng:pngrutil.obj
 0001:00014070       png_handle_bKGD            0000000180015070 f   libpng:pngrutil.obj
 0001:00014390       png_handle_hIST            0000000180015390 f   libpng:pngrutil.obj
 0001:000146d0       png_handle_pHYs            00000001800156d0 f   libpng:pngrutil.obj
 0001:00014900       png_handle_oFFs            0000000180015900 f   libpng:pngrutil.obj
 0001:00014b50       png_handle_pCAL            0000000180015b50 f   libpng:pngrutil.obj
 0001:00014ef0       png_handle_sCAL            0000000180015ef0 f   libpng:pngrutil.obj
 0001:000151c0       png_handle_tIME            00000001800161c0 f   libpng:pngrutil.obj
 0001:00015410       png_handle_tEXt            0000000180016410 f   libpng:pngrutil.obj
 0001:000155c0       png_handle_zTXt            00000001800165c0 f   libpng:pngrutil.obj
 0001:00015820       png_handle_iTXt            0000000180016820 f   libpng:pngrutil.obj
 0001:00015cb0       png_handle_unknown         0000000180016cb0 f   libpng:pngrutil.obj
 0001:00015e70       png_combine_row            0000000180016e70 f   libpng:pngrutil.obj
 0001:000163b0       png_do_read_interlace      00000001800173b0 f   libpng:pngrutil.obj
 0001:00016b60       png_read_IDAT_data         0000000180017b60 f   libpng:pngrutil.obj
 0001:00016e60       png_read_finish_IDAT       0000000180017e60 f   libpng:pngrutil.obj
 0001:00016ee0       png_read_finish_row        0000000180017ee0 f   libpng:pngrutil.obj
 0001:00017000       png_read_start_row         0000000180018000 f   libpng:pngrutil.obj
 0001:00017590       png_init_read_transformations 0000000180018590 f   libpng:pngrtran.obj
 0001:0001afc0       png_do_read_transformations 000000018001bfc0 f   libpng:pngrtran.obj
 0001:0001b7c0       adler32                    000000018001c7c0 f   zlib:adler32.obj
 0001:0001baa0       inflateReset               000000018001caa0 f   zlib:inflate.obj
 0001:0001bc50       inflate                    000000018001cc50 f   zlib:inflate.obj
 0001:0001d340       crc32                      000000018001e340 f   zlib:crc32.obj
 0001:0001d650       deflateInit2_              000000018001e650 f   zlib:deflate.obj
 0001:0001d8b0       deflateReset               000000018001e8b0 f   zlib:deflate.obj
 0001:0001dad0       deflate                    000000018001ead0 f   zlib:deflate.obj
 0001:0001e550       deflateEnd                 000000018001f550 f   zlib:deflate.obj
 0001:0001fec0       zcalloc                    0000000180020ec0 f   zlib:zutil.obj
 0001:0001fed0       zcfree                     0000000180020ed0 f   zlib:zutil.obj
 0001:0001fee0       inflate_table              0000000180020ee0 f   zlib:inftrees.obj
 0001:000203f0       inflate_fast               00000001800213f0 f   zlib:inffast.obj
 0001:00021a90       _tr_stored_block           0000000180022a90 f   zlib:trees.obj
 0001:00021c00       _tr_flush_block            0000000180022c00 f   zlib:trees.obj
 0001:00022490       __imp_load_?Value@External@v8@@QEBAPEAXXZ 0000000180023490 f   node:node.exe
 0001:0002249c       __tailMerge_node_exe       000000018002349c     node:node.exe
 0001:00022515       __imp_load_?New@External@v8@@SA?AV?$Local@VExternal@v8@@@2@PEAVIsolate@2@PEAX@Z 0000000180023515 f   node:node.exe
 0001:00022521       __imp_load_?GetCurrentContext@Isolate@v8@@QEAA?AV?$Local@VContext@v8@@@2@XZ 0000000180023521 f   node:node.exe
 0001:0002252d       __imp_load_?GetCurrent@Isolate@v8@@SAPEAV12@XZ 000000018002352d f   node:node.exe
 0001:00022539       __imp_load_?CreateHandle@HandleScope@v8@@KAPEAPEAVObject@internal@2@PEAVIsolate@42@PEAV342@@Z 0000000180023539 f   node:node.exe
 0001:00022545       __imp_load_?CreateHandle@HandleScope@v8@@CAPEAPEAVObject@internal@2@PEAVHeapObject@42@PEAV342@@Z 0000000180023545 f   node:node.exe
 0001:00022551       __imp_load_??1HandleScope@v8@@QEAA@XZ 0000000180023551 f   node:node.exe
 0001:0002255d       __imp_load_??0HandleScope@v8@@QEAA@PEAVIsolate@1@@Z 000000018002355d f   node:node.exe
 0001:00022569       __imp_load_?GetFunction@FunctionTemplate@v8@@QEAA?AV?$Local@VFunction@v8@@@2@XZ 0000000180023569 f   node:node.exe
 0001:00022575       __imp_load_?New@FunctionTemplate@v8@@SA?AV?$Local@VFunctionTemplate@v8@@@2@PEAVIsolate@2@P6AXAEBV?$FunctionCallbackInfo@VValue@v8@@@2@@ZV?$Local@VValue@v8@@@2@V?$Local@VSignature@v8@@@2@HW4ConstructorBehavior@2@@Z 0000000180023575 f   node:node.exe
 0001:00022581       __imp_load_?ToLocalEmpty@V8@v8@@CAXXZ 0000000180023581 f   node:node.exe
 0001:0002258d       __imp_load_?Escape@EscapableHandleScope@v8@@AEAAPEAPEAVObject@internal@2@PEAPEAV342@@Z 000000018002358d f   node:node.exe
 0001:00022599       __imp_load_??0EscapableHandleScope@v8@@QEAA@PEAVIsolate@1@@Z 0000000180023599 f   node:node.exe
 0001:000225a5       __imp_load_?NewFromUtf8@String@v8@@SA?AV?$MaybeLocal@VString@v8@@@2@PEAVIsolate@2@PEBDW4NewStringType@2@H@Z 00000001800235a5 f   node:node.exe
 0001:000225b1       __imp_load_?SlowGetInternalField@Object@v8@@AEAA?AV?$Local@VValue@v8@@@2@H@Z 00000001800235b1 f   node:node.exe
 0001:000225bd       __imp_load_?SetInternalField@Object@v8@@QEAAXHV?$Local@VValue@v8@@@2@@Z 00000001800235bd f   node:node.exe
 0001:000225c9       __imp_load_?Set@Object@v8@@QEAA?AV?$Maybe@_N@2@V?$Local@VContext@v8@@@2@V?$Local@VValue@v8@@@2@1@Z 00000001800235c9 f   node:node.exe
 0001:000225d5       __imp_load_?SetInternalFieldCount@ObjectTemplate@v8@@QEAAXH@Z 00000001800235d5 f   node:node.exe
 0001:000225e1       __imp_load_?NewInstance@ObjectTemplate@v8@@QEAA?AV?$MaybeLocal@VObject@v8@@@2@V?$Local@VContext@v8@@@2@@Z 00000001800235e1 f   node:node.exe
 0001:000225ed       __imp_load_?New@ObjectTemplate@v8@@SA?AV?$Local@VObjectTemplate@v8@@@2@PEAVIsolate@2@V?$Local@VFunctionTemplate@v8@@@2@@Z 00000001800235ed f   node:node.exe
 0001:000225f9       __imp_load_node_module_register 00000001800235f9 f   node:node.exe
 0001:00022605       __imp_load_??1EscapableHandleScope@v8@@QEAA@XZ 0000000180023605 f   node:node.exe
 0001:00022611       __imp_load_uv_queue_work   0000000180023611 f   node:node.exe
 0001:0002261d       __imp_load_?Global@Context@v8@@QEAA?AV?$Local@VObject@v8@@@2@XZ 000000018002361d f   node:node.exe
 0001:00022629       __imp_load_?New@Signature@v8@@SA?AV?$Local@VSignature@v8@@@2@PEAVIsolate@2@V?$Local@VFunctionTemplate@v8@@@2@@Z 0000000180023629 f   node:node.exe
 0001:00022635       __imp_load_?ThrowException@Isolate@v8@@QEAA?AV?$Local@VValue@v8@@@2@V32@@Z 0000000180023635 f   node:node.exe
 0001:00022641       __imp_load_?Set@Template@v8@@QEAAXV?$Local@VName@v8@@@2@V?$Local@VData@v8@@@2@W4PropertyAttribute@2@@Z 0000000180023641 f   node:node.exe
 0001:0002264d       __imp_load_?Error@Exception@v8@@SA?AV?$Local@VValue@v8@@@2@V?$Local@VString@v8@@@2@@Z 000000018002364d f   node:node.exe
 0001:00022659       __imp_load_?SetClassName@FunctionTemplate@v8@@QEAAXV?$Local@VString@v8@@@2@@Z 0000000180023659 f   node:node.exe
 0001:00022665       __imp_load_?PrototypeTemplate@FunctionTemplate@v8@@QEAA?AV?$Local@VObjectTemplate@v8@@@2@XZ 0000000180023665 f   node:node.exe
 0001:00022671       __imp_load_?InstanceTemplate@FunctionTemplate@v8@@QEAA?AV?$Local@VObjectTemplate@v8@@@2@XZ 0000000180023671 f   node:node.exe
 0001:0002267d       __imp_load_?ClearWeak@V8@v8@@CAPEAXPEAPEAVObject@internal@2@@Z 000000018002367d f   node:node.exe
 0001:00022689       __imp_load_?MakeWeak@V8@v8@@CAXPEAPEAVObject@internal@2@PEAXP6AXAEBV?$WeakCallbackInfo@X@2@@ZW4WeakCallbackType@2@@Z 0000000180023689 f   node:node.exe
 0001:00022695       __imp_load_?DisposeGlobal@V8@v8@@CAXPEAPEAVObject@internal@2@@Z 0000000180023695 f   node:node.exe
 0001:000226a1       __imp_load_?GlobalizeReference@V8@v8@@CAPEAPEAVObject@internal@2@PEAVIsolate@42@PEAPEAV342@@Z 00000001800236a1 f   node:node.exe
 0001:000226ad       __imp_load_?Uint32Value@Value@v8@@QEBAIXZ 00000001800236ad f   node:node.exe
 0001:000226b9       __imp_load_?WriteUtf8@String@v8@@QEBAHPEADHPEAHH@Z 00000001800236b9 f   node:node.exe
 0001:000226c5       __imp_load_?Length@String@v8@@QEBAHXZ 00000001800236c5 f   node:node.exe
 0001:000226d1       __imp_load_?New@Number@v8@@SA?AV?$Local@VNumber@v8@@@2@PEAVIsolate@2@N@Z 00000001800236d1 f   node:node.exe
 0001:000226dd       __imp_load_?SlowGetAlignedPointerFromInternalField@Object@v8@@AEAAPEAXH@Z 00000001800236dd f   node:node.exe
 0001:000226e9       __imp_load_?New@Object@v8@@SA?AV?$Local@VObject@v8@@@2@PEAVIsolate@2@@Z 00000001800236e9 f   node:node.exe
 0001:000226f5       __imp_load_?SetAlignedPointerInInternalField@Object@v8@@QEAAXHPEAX@Z 00000001800236f5 f   node:node.exe
 0001:00022701       __imp_load_?InternalFieldCount@Object@v8@@QEAAHXZ 0000000180023701 f   node:node.exe
 0001:0002270d       __imp_load_?Get@Object@v8@@QEAA?AV?$Local@VValue@v8@@@2@V32@@Z 000000018002370d f   node:node.exe
 0001:00022719       __imp_load_?Set@Object@v8@@QEAA_NV?$Local@VValue@v8@@@2@0@Z 0000000180023719 f   node:node.exe
 0001:00022725       __imp_load_?Set@Object@v8@@QEAA_NIV?$Local@VValue@v8@@@2@@Z 0000000180023725 f   node:node.exe
 0001:00022731       __imp_load_?NewInstance@Function@v8@@QEBA?AV?$MaybeLocal@VObject@v8@@@2@V?$Local@VContext@v8@@@2@HQEAV?$Local@VValue@v8@@@2@@Z 0000000180023731 f   node:node.exe
 0001:0002273d       __imp_load_?SetAccessor@ObjectTemplate@v8@@QEAAXV?$Local@VName@v8@@@2@P6AX0AEBV?$PropertyCallbackInfo@VValue@v8@@@2@@ZP6AX0V?$Local@VValue@v8@@@2@AEBV?$PropertyCallbackInfo@X@2@@Z3W4AccessControl@2@W4PropertyAttribute@2@V?$Local@VAccessorSignature@v8@@@2@@Z 000000018002373d f   node:node.exe
 0001:00022749       __imp_load_?HasInstance@Buffer@node@@YA_NV?$Local@VValue@v8@@@v8@@@Z 0000000180023749 f   node:node.exe
 0001:00022755       __imp_load_?Data@Buffer@node@@YAPEADV?$Local@VObject@v8@@@v8@@@Z 0000000180023755 f   node:node.exe
 0001:00022761       __imp_load_?Length@Buffer@node@@YA_KV?$Local@VObject@v8@@@v8@@@Z 0000000180023761 f   node:node.exe
 0001:0002276d       __imp_load_?MakeCallback@node@@YA?AV?$Local@VValue@v8@@@v8@@PEAVIsolate@3@V?$Local@VObject@v8@@@3@V?$Local@VFunction@v8@@@3@HPEAV23@@Z 000000018002376d f   node:node.exe
 0001:00022779       __imp_load_?GetCurrentEventLoop@node@@YAPEAUuv_loop_s@@PEAVIsolate@v8@@@Z 0000000180023779 f   node:node.exe
 0001:00022785       __imp_load_?ToObject@Value@v8@@QEBA?AV?$Local@VObject@v8@@@2@XZ 0000000180023785 f   node:node.exe
 0001:00022791       __imp_load_?ToString@Value@v8@@QEBA?AV?$Local@VString@v8@@@2@XZ 0000000180023791 f   node:node.exe
 0001:000227a0       ??0bad_alloc@std@@QEAA@AEBV01@@Z 00000001800237a0 f i libcpmt:xthrow.obj
 0001:000227e0       ??0bad_alloc@std@@QEAA@XZ  00000001800237e0 f i libcpmt:xthrow.obj
 0001:00022800       ??0bad_function_call@std@@QEAA@AEBV01@@Z 0000000180023800 f i libcpmt:xthrow.obj
 0001:00022840       ??0bad_function_call@std@@QEAA@XZ 0000000180023840 f i libcpmt:xthrow.obj
 0001:00022858       ??0exception@std@@QEAA@AEBV01@@Z 0000000180023858 f i libcpmt:xthrow.obj
 0001:00022890       ??0invalid_argument@std@@QEAA@AEBV01@@Z 0000000180023890 f i libcpmt:xthrow.obj
 0001:000228d0       ??0invalid_argument@std@@QEAA@PEBD@Z 00000001800238d0 f i libcpmt:xthrow.obj
 0001:0002291c       ??0length_error@std@@QEAA@AEBV01@@Z 000000018002391c f i libcpmt:xthrow.obj
 0001:0002295c       ??0length_error@std@@QEAA@PEBD@Z 000000018002395c f i libcpmt:xthrow.obj
 0001:000229a8       ??0logic_error@std@@QEAA@AEBV01@@Z 00000001800239a8 f i libcpmt:xthrow.obj
 0001:000229e8       ??0out_of_range@std@@QEAA@AEBV01@@Z 00000001800239e8 f i libcpmt:xthrow.obj
 0001:00022a28       ??0out_of_range@std@@QEAA@PEBD@Z 0000000180023a28 f i libcpmt:xthrow.obj
 0001:00022a74       ??1bad_alloc@std@@UEAA@XZ  0000000180023a74 f i libcpmt:xthrow.obj
 0001:00022a74       ??1bad_exception@std@@UEAA@XZ 0000000180023a74 f i libvcruntime:frame.obj
 0001:00022a74       ??1bad_array_new_length@std@@UEAA@XZ 0000000180023a74 f i LIBCMT:throw_bad_alloc.obj
 0001:00022a74       ??1bad_function_call@std@@UEAA@XZ 0000000180023a74 f i libcpmt:xthrow.obj
 0001:00022a74       ??1length_error@std@@UEAA@XZ 0000000180023a74 f i libcpmt:xthrow.obj
 0001:00022a74       ??1out_of_range@std@@UEAA@XZ 0000000180023a74 f i libcpmt:xthrow.obj
 0001:00022a74       ??1invalid_argument@std@@UEAA@XZ 0000000180023a74 f i libcpmt:xthrow.obj
 0001:00022a88       ??_Ginvalid_argument@std@@UEAAPEAXI@Z 0000000180023a88 f i libcpmt:xthrow.obj
 0001:00022a88       ??_Ebad_alloc@std@@UEAAPEAXI@Z 0000000180023a88 f i libcpmt:xthrow.obj
 0001:00022a88       ??_Ebad_array_new_length@std@@UEAAPEAXI@Z 0000000180023a88 f i LIBCMT:throw_bad_alloc.obj
 0001:00022a88       ??_Gout_of_range@std@@UEAAPEAXI@Z 0000000180023a88 f i libcpmt:xthrow.obj
 0001:00022a88       ??_Ebad_exception@std@@UEAAPEAXI@Z 0000000180023a88 f i libvcruntime:frame.obj
 0001:00022a88       ??_Elength_error@std@@UEAAPEAXI@Z 0000000180023a88 f i libcpmt:xthrow.obj
 0001:00022a88       ??_Gbad_function_call@std@@UEAAPEAXI@Z 0000000180023a88 f i libcpmt:xthrow.obj
 0001:00022a88       ??_Glength_error@std@@UEAAPEAXI@Z 0000000180023a88 f i libcpmt:xthrow.obj
 0001:00022a88       ??_Elogic_error@std@@UEAAPEAXI@Z 0000000180023a88 f i libcpmt:xthrow.obj
 0001:00022a88       ??_Eout_of_range@std@@UEAAPEAXI@Z 0000000180023a88 f i libcpmt:xthrow.obj
 0001:00022a88       ??_Gexception@std@@UEAAPEAXI@Z 0000000180023a88 f i libcpmt:xthrow.obj
 0001:00022a88       ??_Glogic_error@std@@UEAAPEAXI@Z 0000000180023a88 f i libcpmt:xthrow.obj
 0001:00022a88       ??_Ebad_function_call@std@@UEAAPEAXI@Z 0000000180023a88 f i libcpmt:xthrow.obj
 0001:00022a88       ??_Gbad_exception@std@@UEAAPEAXI@Z 0000000180023a88 f i libvcruntime:frame.obj
 0001:00022a88       ??_Gbad_array_new_length@std@@UEAAPEAXI@Z 0000000180023a88 f i LIBCMT:throw_bad_alloc.obj
 0001:00022a88       ??_Eexception@std@@UEAAPEAXI@Z 0000000180023a88 f i libcpmt:xthrow.obj
 0001:00022a88       ??_Gbad_alloc@std@@UEAAPEAXI@Z 0000000180023a88 f i libcpmt:xthrow.obj
 0001:00022a88       ??_Einvalid_argument@std@@UEAAPEAXI@Z 0000000180023a88 f i libcpmt:xthrow.obj
 0001:00022acc       ?_Xbad_function_call@std@@YAXXZ 0000000180023acc f   libcpmt:xthrow.obj
 0001:00022aec       ?_Xinvalid_argument@std@@YAXPEBD@Z 0000000180023aec f   libcpmt:xthrow.obj
 0001:00022b10       ?_Xlength_error@std@@YAXPEBD@Z 0000000180023b10 f   libcpmt:xthrow.obj
 0001:00022b34       ?_Xout_of_range@std@@YAXPEBD@Z 0000000180023b34 f   libcpmt:xthrow.obj
 0001:00022b58       ?what@bad_function_call@std@@UEBAPEBDXZ 0000000180023b58 f i libcpmt:xthrow.obj
 0001:00022b60       ?what@exception@std@@UEBAPEBDXZ 0000000180023b60 f i libcpmt:xthrow.obj
 0001:00022b90       __security_check_cookie    0000000180023b90 f   LIBCMT:amdsecgs.obj
 0001:00022bb4       ??_V@YAXPEAX@Z             0000000180023bb4 f   LIBCMT:delete_array.obj
 0001:00022bb4       ??3@YAXPEAX_K@Z            0000000180023bb4 f   LIBCMT:delete_scalar_size.obj
 0001:00022bbc       ??2@YAPEAX_K@Z             0000000180023bbc f   LIBCMT:new_scalar.obj
 0001:00022bf8       __scrt_acquire_startup_lock 0000000180023bf8 f   LIBCMT:utility.obj
 0001:00022c34       __scrt_dllmain_after_initialize_c 0000000180023c34 f   LIBCMT:utility.obj
 0001:00022c68       __scrt_dllmain_before_initialize_c 0000000180023c68 f   LIBCMT:utility.obj
 0001:00022c80       __scrt_dllmain_crt_thread_attach 0000000180023c80 f   LIBCMT:utility.obj
 0001:00022ca8       __scrt_dllmain_crt_thread_detach 0000000180023ca8 f   LIBCMT:utility.obj
 0001:00022cc0       __scrt_dllmain_exception_filter 0000000180023cc0 f   LIBCMT:utility.obj
 0001:00022d20       __scrt_dllmain_uninitialize_c 0000000180023d20 f   LIBCMT:utility.obj
 0001:00022d50       __scrt_dllmain_uninitialize_critical 0000000180023d50 f   LIBCMT:utility.obj
 0001:00022d64       __scrt_initialize_crt      0000000180023d64 f   LIBCMT:utility.obj
 0001:00022db0       __scrt_initialize_onexit_tables 0000000180023db0 f   LIBCMT:utility.obj
 0001:00022e88       __scrt_is_nonwritable_in_current_image 0000000180023e88 f   LIBCMT:utility.obj
 0001:00022f24       __scrt_release_startup_lock 0000000180023f24 f   LIBCMT:utility.obj
 0001:00022f48       __scrt_uninitialize_crt    0000000180023f48 f   LIBCMT:utility.obj
 0001:00022f74       _onexit                    0000000180023f74 f   LIBCMT:utility.obj
 0001:00022fc4       atexit                     0000000180023fc4 f   LIBCMT:utility.obj
 0001:00022fdc       ??_U@YAPEAX_K@Z            0000000180023fdc f   LIBCMT:new_array.obj
 0001:00022fe4       ??_Gtype_info@@UEAAPEAXI@Z 0000000180023fe4 f i LIBCMT:std_type_info_static.obj
 0001:00022fe4       ??_Etype_info@@UEAAPEAXI@Z 0000000180023fe4 f i LIBCMT:std_type_info_static.obj
 0001:00023340       _DllMainCRTStartup         0000000180024340 f   LIBCMT:dll_dllmain.obj
 0001:00023380       __raise_securityfailure    0000000180024380 f   LIBCMT:gs_report.obj
 0001:000233b4       __report_gsfailure         00000001800243b4 f   LIBCMT:gs_report.obj
 0001:00023488       __report_rangecheckfailure 0000000180024488 f   LIBCMT:gs_report.obj
 0001:0002349c       __report_securityfailure   000000018002449c f   LIBCMT:gs_report.obj
 0001:0002361c       ??3@YAXPEAX@Z              000000018002461c f   LIBCMT:delete_scalar.obj
 0001:00023624       ??0bad_array_new_length@std@@QEAA@AEBV01@@Z 0000000180024624 f i LIBCMT:throw_bad_alloc.obj
 0001:00023664       ??0bad_array_new_length@std@@QEAA@XZ 0000000180024664 f i LIBCMT:throw_bad_alloc.obj
 0001:00023684       ?__scrt_throw_std_bad_alloc@@YAXXZ 0000000180024684 f   LIBCMT:throw_bad_alloc.obj
 0001:000236a4       ?__scrt_throw_std_bad_array_new_length@@YAXXZ 00000001800246a4 f   LIBCMT:throw_bad_alloc.obj
 0001:000236c4       __isa_available_init       00000001800246c4 f   LIBCMT:cpu_disp.obj
 0001:00023880       _get_startup_argv_mode     0000000180024880 f   LIBCMT:argv_mode.obj
 0001:00023880       DllMain                    0000000180024880 f   LIBCMT:dll_dllmain_stub.obj
 0001:00023888       __scrt_is_ucrt_dll_in_use  0000000180024888 f   LIBCMT:ucrt_detection.obj
 0001:00023894       __crt_debugger_hook        0000000180024894 f   LIBCMT:utility_desktop.obj
 0001:0002389c       __scrt_fastfail            000000018002489c f   LIBCMT:utility_desktop.obj
 0001:000239e8       _guard_check_icall_nop     00000001800249e8 f i LIBCMT:guard_support.obj
 0001:000239ec       __security_init_cookie     00000001800249ec f   LIBCMT:gs_support.obj
 0001:00023a98       ?__scrt_initialize_type_info@@YAXXZ 0000000180024a98 f   LIBCMT:tncleanup.obj
 0001:00023aa8       ?__scrt_uninitialize_type_info@@YAXXZ 0000000180024aa8 f   LIBCMT:tncleanup.obj
 0001:00023ab4       __local_stdio_scanf_options 0000000180024ab4 f i LIBCMT:default_local_stdio_options.obj
 0001:00023abc       __scrt_initialize_default_local_stdio_options 0000000180024abc f   LIBCMT:default_local_stdio_options.obj
 0001:00023ad8       __scrt_get_dyn_tls_init_callback 0000000180024ad8 f   LIBCMT:dyn_tls_init.obj
 0001:00023ae0       _RTC_Initialize            0000000180024ae0 f   LIBCMT:initsect.obj
 0001:00023b1c       _RTC_Terminate             0000000180024b1c f   LIBCMT:initsect.obj
 0001:00023b60       ??$_CallSETranslator@V__FrameHandler3@@@@YAHPEAUEHExceptionRecord@@PEA_KPEAU_CONTEXT@@PEAU_xDISPATCHER_CONTEXT@@PEBU_s_FuncInfo@@K1@Z 0000000180024b60 f i libvcruntime:risctrnsctrl.obj
 0001:00023bb4       ?CatchTryBlock@__FrameHandler3@@SAPEBU_s_TryBlockMapEntry@@PEBU_s_FuncInfo@@H@Z 0000000180024bb4 f   libvcruntime:risctrnsctrl.obj
 0001:00023c0c       ?ExecutionInCatch@__FrameHandler3@@SA_NPEAU_xDISPATCHER_CONTEXT@@PEBU_s_FuncInfo@@@Z 0000000180024c0c f   libvcruntime:risctrnsctrl.obj
 0001:00023c38       ?FrameUnwindToEmptyState@__FrameHandler3@@SAXPEA_KPEAU_xDISPATCHER_CONTEXT@@PEBU_s_FuncInfo@@@Z 0000000180024c38 f   libvcruntime:risctrnsctrl.obj
 0001:00023c9c       ?GetEstablisherFrame@__FrameHandler3@@SAPEA_KPEA_KPEAU_xDISPATCHER_CONTEXT@@PEBU_s_FuncInfo@@0@Z 0000000180024c9c f   libvcruntime:risctrnsctrl.obj
 0001:00023d68       ?GetRangeOfTrysToCheck@__FrameHandler3@@SA?AU?$pair@Viterator@TryBlockMap@__FrameHandler3@@V123@@std@@AEAVTryBlockMap@1@HH@Z 0000000180024d68 f   libvcruntime:risctrnsctrl.obj
 0001:00023ec4       ?UnwindNestedFrames@__FrameHandler3@@SAXPEA_KPEAUEHExceptionRecord@@PEAU_CONTEXT@@0PEAXPEBU_s_FuncInfo@@HHPEBU_s_HandlerType@@PEAU_xDISPATCHER_CONTEXT@@E@Z 0000000180024ec4 f   libvcruntime:risctrnsctrl.obj
 0001:00023fe8       _CreateFrameInfo           0000000180024fe8 f   libvcruntime:risctrnsctrl.obj
 0001:00024024       _FindAndUnlinkFrame        0000000180025024 f   libvcruntime:risctrnsctrl.obj
 0001:00024078       _GetImageBase              0000000180025078 f   libvcruntime:risctrnsctrl.obj
 0001:0002408c       _GetThrowImageBase         000000018002508c f   libvcruntime:risctrnsctrl.obj
 0001:000240a0       _SetImageBase              00000001800250a0 f   libvcruntime:risctrnsctrl.obj
 0001:000240b8       _SetThrowImageBase         00000001800250b8 f   libvcruntime:risctrnsctrl.obj
 0001:000240d0       __CxxFrameHandler3         00000001800250d0 f   libvcruntime:risctrnsctrl.obj
 0001:00024150       __DestructExceptionObject  0000000180025150 f   libvcruntime:ehhelpers.obj
 0001:000241c4       ?_CallMemberFunction0@@YAXQEAX0@Z 00000001800251c4 f i libvcruntime:ehhelpers.obj
 0001:000241c8       _IsExceptionObjectToBeDestroyed 00000001800251c8 f   libvcruntime:ehhelpers.obj
 0001:000241f8       __AdjustPointer            00000001800251f8 f   libvcruntime:ehhelpers.obj
 0001:0002421c       __FrameUnwindFilter        000000018002521c f   libvcruntime:ehhelpers.obj
 0001:00024268       __std_terminate            0000000180025268 f   libvcruntime:ehhelpers.obj
 0001:00024274       _purecall                  0000000180025274 f   libvcruntime:purevirt.obj
 0001:000242a4       longjmp                    00000001800252a4 f   libvcruntime:longjmpc.obj
 0001:000242cc       __std_exception_copy       00000001800252cc f   libvcruntime:std_exception.obj
 0001:0002435c       __std_exception_destroy    000000018002535c f   libvcruntime:std_exception.obj
 0001:00024384       _CxxThrowException         0000000180025384 f   libvcruntime:throw.obj
 0001:00024444       __vcrt_initialize          0000000180025444 f   libvcruntime:initialization.obj
 0001:00024478       __vcrt_thread_attach       0000000180025478 f   libvcruntime:initialization.obj
 0001:0002448c       __vcrt_thread_detach       000000018002548c f   libvcruntime:initialization.obj
 0001:000244a0       __vcrt_uninitialize        00000001800254a0 f   libvcruntime:initialization.obj
 0001:000244c0       __vcrt_uninitialize_critical 00000001800254c0 f   libvcruntime:initialization.obj
 0001:000244d0       __C_specific_handler       00000001800254d0 f   libvcruntime:riscchandler.obj
 0001:000246f0       memset_repmovs             00000001800256f0 f   libvcruntime:memset.obj
 0001:00024710       memset                     0000000180025710 f   libvcruntime:memset.obj
 0001:000248a0       __std_type_info_compare    00000001800258a0 f   libvcruntime:std_type_info.obj
 0001:000248c8       __std_type_info_destroy_list 00000001800258c8 f   libvcruntime:std_type_info.obj
 0001:000248f4       __vcrt_freefls             00000001800258f4 f   libvcruntime:per_thread_data.obj
 0001:00024914       __vcrt_freeptd             0000000180025914 f   libvcruntime:per_thread_data.obj
 0001:00024964       __vcrt_getptd              0000000180025964 f   libvcruntime:per_thread_data.obj
 0001:00024980       __vcrt_getptd_noexit       0000000180025980 f   libvcruntime:per_thread_data.obj
 0001:00024a4c       __vcrt_initialize_ptd      0000000180025a4c f   libvcruntime:per_thread_data.obj
 0001:00024aa0       __vcrt_uninitialize_ptd    0000000180025aa0 f   libvcruntime:per_thread_data.obj
 0001:00024ac4       ?GetCurrentState@__FrameHandler3@@SAHPEA_KPEAU_xDISPATCHER_CONTEXT@@PEBU_s_FuncInfo@@@Z 0000000180025ac4 f   libvcruntime:ehstate.obj
 0001:00024aec       ?GetUnwindTryBlock@__FrameHandler3@@SAHPEA_KPEAU_xDISPATCHER_CONTEXT@@PEBU_s_FuncInfo@@@Z 0000000180025aec f   libvcruntime:ehstate.obj
 0001:00024b18       ?SetState@__FrameHandler3@@SAXPEA_KPEBU_s_FuncInfo@@H@Z 0000000180025b18 f   libvcruntime:ehstate.obj
 0001:00024b24       ?SetUnwindTryBlock@__FrameHandler3@@SAXPEA_KPEAU_xDISPATCHER_CONTEXT@@PEBU_s_FuncInfo@@H@Z 0000000180025b24 f   libvcruntime:ehstate.obj
 0001:00024b60       ?StateFromControlPc@__FrameHandler3@@SAHPEBU_s_FuncInfo@@PEAU_xDISPATCHER_CONTEXT@@@Z 0000000180025b60 f   libvcruntime:ehstate.obj
 0001:00024b68       ?StateFromIp@__FrameHandler3@@SAHPEBU_s_FuncInfo@@PEAU_xDISPATCHER_CONTEXT@@_K@Z 0000000180025b68 f   libvcruntime:ehstate.obj
 0001:000255f4       ??$TypeMatchHelper@$$CBU_s_HandlerType@@@@YAHPEBU_s_HandlerType@@PEBU_s_CatchableType@@PEBU_s_ThrowInfo@@@Z 00000001800265f4 f i libvcruntime:frame.obj
 0001:00025738       ??$__InternalCxxFrameHandler@V__FrameHandler3@@@@YA?AW4_EXCEPTION_DISPOSITION@@PEAUEHExceptionRecord@@PEA_KPEAU_CONTEXT@@PEAU_xDISPATCHER_CONTEXT@@PEBU_s_FuncInfo@@H1E@Z 0000000180026738 f i libvcruntime:frame.obj
 0001:00025980       ??0bad_exception@std@@QEAA@AEBV01@@Z 0000000180026980 f i libvcruntime:frame.obj
 0001:000259c0       ??0bad_exception@std@@QEAA@XZ 00000001800269c0 f i libvcruntime:frame.obj
 0001:000259e0       ?CxxCallCatchBlock@__FrameHandler3@@SAPEAXPEAU_EXCEPTION_RECORD@@@Z 00000001800269e0 f   libvcruntime:frame.obj
 0001:00025c54       ?FrameUnwindToState@__FrameHandler3@@SAXPEA_KPEAU_xDISPATCHER_CONTEXT@@PEBU_s_FuncInfo@@H@Z 0000000180026c54 f   libvcruntime:frame.obj
 0001:00025de8       ?GetHandlerSearchState@__FrameHandler3@@SAHPEA_KPEAU_xDISPATCHER_CONTEXT@@PEBU_s_FuncInfo@@@Z 0000000180026de8 f i libvcruntime:frame.obj
 0001:00025fec       ?_CallMemberFunction1@@YAXQEAX00@Z 0000000180026fec f i libvcruntime:frame.obj
 0001:00025ff8       ?_CallMemberFunction2@@YAXQEAX00H@Z 0000000180026ff8 f i libvcruntime:frame.obj
 0001:00026008       __vcrt_initialize_pure_virtual_call_handler 0000000180027008 f   libvcruntime:purevirt_data.obj
 0001:00026020       __except_validate_context_record 0000000180027020 f   libvcruntime:jbcxrval.obj
 0001:00026058       __except_validate_jump_buffer 0000000180027058 f   libvcruntime:jbcxrval.obj
 0001:00026098       __vcrt_initialize_locks    0000000180027098 f   libvcruntime:locks.obj
 0001:000260e0       __vcrt_uninitialize_locks  00000001800270e0 f   libvcruntime:locks.obj
 0001:000262f0       __vcrt_FlsAlloc            00000001800272f0 f   libvcruntime:winapi_downlevel.obj
 0001:00026338       __vcrt_FlsFree             0000000180027338 f   libvcruntime:winapi_downlevel.obj
 0001:00026380       __vcrt_FlsGetValue         0000000180027380 f   libvcruntime:winapi_downlevel.obj
 0001:000263c8       __vcrt_FlsSetValue         00000001800273c8 f   libvcruntime:winapi_downlevel.obj
 0001:0002641c       __vcrt_InitializeCriticalSectionEx 000000018002741c f   libvcruntime:winapi_downlevel.obj
 0001:00026480       __vcrt_initialize_winapi_thunks 0000000180027480 f   libvcruntime:winapi_downlevel.obj
 0001:000264b0       __vcrt_uninitialize_winapi_thunks 00000001800274b0 f   libvcruntime:winapi_downlevel.obj
 0001:00026500       _NLG_Notify                0000000180027500 f   libvcruntime:notify.obj
 0001:00026520       __NLG_Dispatch2            0000000180027520 f   libvcruntime:notify.obj
 0001:00026530       __NLG_Return2              0000000180027530 f   libvcruntime:notify.obj
 0001:00026550       _CallSettingFrame          0000000180027550 f   libvcruntime:handlers.obj
 0001:000265a0       _CallSettingFrameEncoded   00000001800275a0 f   libvcruntime:handlers.obj
 0001:00026600       memcpy_repmovs             0000000180027600 f   libvcruntime:memcpy.obj
 0001:00026620       memcpy                     0000000180027620 f   libvcruntime:memcpy.obj
 0001:00026620       memmove                    0000000180027620 f   libvcruntime:memcpy.obj
 0001:00026a58       __acrt_errno_from_os_error 0000000180027a58 f   libucrt:errno.obj
 0001:00026aa0       __acrt_errno_map_os_error  0000000180027aa0 f   libucrt:errno.obj
 0001:00026af0       __doserrno                 0000000180027af0 f   libucrt:errno.obj
 0001:00026b10       _errno                     0000000180027b10 f   libucrt:errno.obj
 0001:00026b30       ??$parse_integer@KV?$c_string_character_source@D@__crt_strtox@@@__crt_strtox@@YAKQEAU__crt_locale_pointers@@V?$c_string_character_source@D@0@H_N@Z 0000000180027b30 f i libucrt:strtox.obj
 0001:00026e6c       ??$parse_integer@KV?$c_string_character_source@_W@__crt_strtox@@@__crt_strtox@@YAKQEAU__crt_locale_pointers@@V?$c_string_character_source@_W@0@H_N@Z 0000000180027e6c f i libucrt:strtox.obj
 0001:00027520       ??0_LocaleUpdate@@QEAA@QEAU__crt_locale_pointers@@@Z 0000000180028520 f i libucrt:strtox.obj
 0001:000275bc       ??1_LocaleUpdate@@QEAA@XZ  00000001800285bc f i libucrt:strtox.obj
 0001:000275d0       strtol                     00000001800285d0 f   libucrt:strtox.obj
 0001:000275fc       wcstol                     00000001800285fc f   libucrt:strtox.obj
 0001:00027628       free                       0000000180028628 f   libucrt:free.obj
 0001:00028014       ??$ftprintf@PEAU_iobuf@@PEB_WAEBQEB_WAEBQEB_WAEBI@?$__crt_char_traits@_W@@SAH$$QEAPEAU_iobuf@@$$QEAPEB_WAEBQEB_W2AEBI@Z 0000000180029014 f i libucrt:assert.obj
 0001:0002803c       _wassert                   000000018002903c f   libucrt:assert.obj
 0001:000280c0       fwprintf                   00000001800290c0 f i libucrt:assert.obj
 0001:00028104       swprintf                   0000000180029104 f i libucrt:assert.obj
 0001:00028158       __acrt_call_reportfault    0000000180029158 f   libucrt:invalid_parameter.obj
 0001:000282b4       __acrt_initialize_invalid_parameter_handler 00000001800292b4 f   libucrt:invalid_parameter.obj
 0001:000282bc       _invalid_parameter         00000001800292bc f   libucrt:invalid_parameter.obj
 0001:0002836c       _invalid_parameter_noinfo  000000018002936c f   libucrt:invalid_parameter.obj
 0001:0002838c       _invalid_parameter_noinfo_noreturn 000000018002938c f   libucrt:invalid_parameter.obj
 0001:000283bc       _invoke_watson             00000001800293bc f   libucrt:invalid_parameter.obj
 0001:00028404       malloc                     0000000180029404 f   libucrt:malloc.obj
 0001:000284c4       fopen                      00000001800294c4 f   libucrt:fopen.obj
 0001:000284d0       _fclose_nolock             00000001800294d0 f   libucrt:fclose.obj
 0001:00028554       fclose                     0000000180029554 f   libucrt:fclose.obj
 0001:000285b8       __ascii_stricmp            00000001800295b8 f   libucrt:stricmp.obj
 0001:000285f8       _stricmp                   00000001800295f8 f   libucrt:stricmp.obj
 0001:00028640       _stricmp_l                 0000000180029640 f   libucrt:stricmp.obj
 0001:00028910       __acrt_stdio_flush_nolock  0000000180029910 f   libucrt:fflush.obj
 0001:0002898c       _fflush_nolock             000000018002998c f   libucrt:fflush.obj
 0001:000289d8       _flushall                  00000001800299d8 f   libucrt:fflush.obj
 0001:000289e0       fflush                     00000001800299e0 f   libucrt:fflush.obj
 0001:00028a48       ??$__acrt_mbs_to_wcs_cp@U__crt_win32_buffer_internal_dynamic_resizing@@@@YAHQEBDAEAV?$__crt_win32_buffer@_WU__crt_win32_buffer_internal_dynamic_resizing@@@@I@Z 0000000180029a48 f i libucrt:unlink.obj
 0001:00028b30       ?divide@__crt_strtox@@YA_KAEAUbig_integer@1@AEBU21@@Z 0000000180029b30 f i libucrt:atof.obj
 0001:00029048       abort                      000000018002a048 f   libucrt:abort.obj
 0001:000290a0       __acrt_initialize_stdio    000000018002a0a0 f   libucrt:_file.obj
 0001:000291c0       __acrt_iob_func            000000018002a1c0 f   libucrt:_file.obj
 0001:000291d4       __acrt_uninitialize_stdio  000000018002a1d4 f   libucrt:_file.obj
 0001:00029230       _lock_file                 000000018002a230 f   libucrt:_file.obj
 0001:0002923c       _unlock_file               000000018002a23c f   libucrt:_file.obj
 0001:0002949c       ??$ensure_buffer_is_big_enough@D@formatting_buffer@__crt_stdio_output@@QEAA_N_K@Z 000000018002a49c f i libucrt:output.obj
 0001:00029544       ??$ensure_buffer_is_big_enough@_W@formatting_buffer@__crt_stdio_output@@QEAA_N_K@Z 000000018002a544 f i libucrt:output.obj
 0001:000295f0       ??$is_wide_character_specifier@_W@__crt_stdio_output@@YA_N_K_WW4length_modifier@0@@Z 000000018002a5f0 f i libucrt:output.obj
 0001:00029630       ??$type_case_integer_parse_into_buffer@I@?$output_processor@DV?$stream_output_adapter@D@__crt_stdio_output@@V?$standard_base@DV?$stream_output_adapter@D@__crt_stdio_output@@@2@@__crt_stdio_output@@AEAAXII_N@Z 000000018002a630 f i libucrt:output.obj
 0001:000296c0       ??$type_case_integer_parse_into_buffer@I@?$output_processor@_WV?$stream_output_adapter@_W@__crt_stdio_output@@V?$standard_base@_WV?$stream_output_adapter@_W@__crt_stdio_output@@@2@@__crt_stdio_output@@AEAAXII_N@Z 000000018002a6c0 f i libucrt:output.obj
 0001:000296c0       ??$type_case_integer_parse_into_buffer@I@?$output_processor@_WV?$string_output_adapter@_W@__crt_stdio_output@@V?$standard_base@_WV?$string_output_adapter@_W@__crt_stdio_output@@@2@@__crt_stdio_output@@AEAAXII_N@Z 000000018002a6c0 f i libucrt:output.obj
 0001:00029760       ??$type_case_integer_parse_into_buffer@_K@?$output_processor@DV?$stream_output_adapter@D@__crt_stdio_output@@V?$standard_base@DV?$stream_output_adapter@D@__crt_stdio_output@@@2@@__crt_stdio_output@@AEAAX_KI_N@Z 000000018002a760 f i libucrt:output.obj
 0001:000297f4       ??$type_case_integer_parse_into_buffer@_K@?$output_processor@_WV?$string_output_adapter@_W@__crt_stdio_output@@V?$standard_base@_WV?$string_output_adapter@_W@__crt_stdio_output@@@2@@__crt_stdio_output@@AEAAX_KI_N@Z 000000018002a7f4 f i libucrt:output.obj
 0001:000297f4       ??$type_case_integer_parse_into_buffer@_K@?$output_processor@_WV?$stream_output_adapter@_W@__crt_stdio_output@@V?$standard_base@_WV?$stream_output_adapter@_W@__crt_stdio_output@@@2@@__crt_stdio_output@@AEAAX_KI_N@Z 000000018002a7f4 f i libucrt:output.obj
 0001:00029898       ??$write_multiple_characters@V?$stream_output_adapter@D@__crt_stdio_output@@D@__crt_stdio_output@@YAXAEBV?$stream_output_adapter@D@0@DHQEAH@Z 000000018002a898 f i libucrt:output.obj
 0001:00029924       ??$write_multiple_characters@V?$stream_output_adapter@_W@__crt_stdio_output@@D@__crt_stdio_output@@YAXAEBV?$stream_output_adapter@_W@0@DHQEAH@Z 000000018002a924 f i libucrt:output.obj
 0001:000299b8       ??$write_multiple_characters@V?$string_output_adapter@_W@__crt_stdio_output@@D@__crt_stdio_output@@YAXAEBV?$string_output_adapter@_W@0@DHQEAH@Z 000000018002a9b8 f i libucrt:output.obj
 0001:00029c98       ?crop_zeroes@__crt_stdio_output@@YAXPEADQEAU__crt_locale_pointers@@@Z 000000018002ac98 f i libucrt:output.obj
 0001:00029d04       ?force_decimal_point@__crt_stdio_output@@YAXPEADQEAU__crt_locale_pointers@@@Z 000000018002ad04 f i libucrt:output.obj
 0001:00029d74       ?parse_int_from_format_string@?$output_processor@DV?$stream_output_adapter@D@__crt_stdio_output@@V?$standard_base@DV?$stream_output_adapter@D@__crt_stdio_output@@@2@@__crt_stdio_output@@AEAA_NQEAH@Z 000000018002ad74 f i libucrt:output.obj
 0001:00029e18       ?parse_int_from_format_string@?$output_processor@_WV?$string_output_adapter@_W@__crt_stdio_output@@V?$standard_base@_WV?$string_output_adapter@_W@__crt_stdio_output@@@2@@__crt_stdio_output@@AEAA_NQEAH@Z 000000018002ae18 f i libucrt:output.obj
 0001:00029e18       ?parse_int_from_format_string@?$output_processor@_WV?$stream_output_adapter@_W@__crt_stdio_output@@V?$standard_base@_WV?$stream_output_adapter@_W@__crt_stdio_output@@@2@@__crt_stdio_output@@AEAA_NQEAH@Z 000000018002ae18 f i libucrt:output.obj
 0001:00029ebc       ?process@?$output_processor@DV?$stream_output_adapter@D@__crt_stdio_output@@V?$standard_base@DV?$stream_output_adapter@D@__crt_stdio_output@@@2@@__crt_stdio_output@@QEAAHXZ 000000018002aebc f i libucrt:output.obj
 0001:0002a0d0       ?process@?$output_processor@_WV?$stream_output_adapter@_W@__crt_stdio_output@@V?$standard_base@_WV?$stream_output_adapter@_W@__crt_stdio_output@@@2@@__crt_stdio_output@@QEAAHXZ 000000018002b0d0 f i libucrt:output.obj
 0001:0002a328       ?process@?$output_processor@_WV?$string_output_adapter@_W@__crt_stdio_output@@V?$standard_base@_WV?$string_output_adapter@_W@__crt_stdio_output@@@2@@__crt_stdio_output@@QEAAHXZ 000000018002b328 f i libucrt:output.obj
 0001:0002a584       ?state_case_normal@?$output_processor@DV?$stream_output_adapter@D@__crt_stdio_output@@V?$standard_base@DV?$stream_output_adapter@D@__crt_stdio_output@@@2@@__crt_stdio_output@@AEAA_NXZ 000000018002b584 f i libucrt:output.obj
 0001:0002a5f4       ?state_case_normal_tchar@?$output_processor@DV?$stream_output_adapter@D@__crt_stdio_output@@V?$standard_base@DV?$stream_output_adapter@D@__crt_stdio_output@@@2@@__crt_stdio_output@@AEAA_ND@Z 000000018002b5f4 f i libucrt:output.obj
 0001:0002a690       ?state_case_size@?$output_processor@DV?$stream_output_adapter@D@__crt_stdio_output@@V?$standard_base@DV?$stream_output_adapter@D@__crt_stdio_output@@@2@@__crt_stdio_output@@AEAA_NXZ 000000018002b690 f i libucrt:output.obj
 0001:0002a804       ?state_case_size@?$output_processor@_WV?$stream_output_adapter@_W@__crt_stdio_output@@V?$standard_base@_WV?$stream_output_adapter@_W@__crt_stdio_output@@@2@@__crt_stdio_output@@AEAA_NXZ 000000018002b804 f i libucrt:output.obj
 0001:0002a99c       ?state_case_size@?$output_processor@_WV?$string_output_adapter@_W@__crt_stdio_output@@V?$standard_base@_WV?$string_output_adapter@_W@__crt_stdio_output@@@2@@__crt_stdio_output@@AEAA_NXZ 000000018002b99c f i libucrt:output.obj
 0001:0002ab34       ?state_case_type@?$output_processor@DV?$stream_output_adapter@D@__crt_stdio_output@@V?$standard_base@DV?$stream_output_adapter@D@__crt_stdio_output@@@2@@__crt_stdio_output@@AEAA_NXZ 000000018002bb34 f i libucrt:output.obj
 0001:0002adc4       ?state_case_type@?$output_processor@_WV?$stream_output_adapter@_W@__crt_stdio_output@@V?$standard_base@_WV?$stream_output_adapter@_W@__crt_stdio_output@@@2@@__crt_stdio_output@@AEAA_NXZ 000000018002bdc4 f i libucrt:output.obj
 0001:0002b0b0       ?state_case_type@?$output_processor@_WV?$string_output_adapter@_W@__crt_stdio_output@@V?$standard_base@_WV?$string_output_adapter@_W@__crt_stdio_output@@@2@@__crt_stdio_output@@AEAA_NXZ 000000018002c0b0 f i libucrt:output.obj
 0001:0002b384       ?type_case_Z@?$output_processor@DV?$stream_output_adapter@D@__crt_stdio_output@@V?$standard_base@DV?$stream_output_adapter@D@__crt_stdio_output@@@2@@__crt_stdio_output@@AEAA_NXZ 000000018002c384 f i libucrt:output.obj
 0001:0002b3fc       ?type_case_Z@?$output_processor@_WV?$string_output_adapter@_W@__crt_stdio_output@@V?$standard_base@_WV?$string_output_adapter@_W@__crt_stdio_output@@@2@@__crt_stdio_output@@AEAA_NXZ 000000018002c3fc f i libucrt:output.obj
 0001:0002b3fc       ?type_case_Z@?$output_processor@_WV?$stream_output_adapter@_W@__crt_stdio_output@@V?$standard_base@_WV?$stream_output_adapter@_W@__crt_stdio_output@@@2@@__crt_stdio_output@@AEAA_NXZ 000000018002c3fc f i libucrt:output.obj
 0001:0002b478       ?type_case_a@?$output_processor@DV?$stream_output_adapter@D@__crt_stdio_output@@V?$standard_base@DV?$stream_output_adapter@D@__crt_stdio_output@@@2@@__crt_stdio_output@@AEAA_NXZ 000000018002c478 f i libucrt:output.obj
 0001:0002b634       ?type_case_a@?$output_processor@_WV?$string_output_adapter@_W@__crt_stdio_output@@V?$standard_base@_WV?$string_output_adapter@_W@__crt_stdio_output@@@2@@__crt_stdio_output@@AEAA_NXZ 000000018002c634 f i libucrt:output.obj
 0001:0002b634       ?type_case_a@?$output_processor@_WV?$stream_output_adapter@_W@__crt_stdio_output@@V?$standard_base@_WV?$stream_output_adapter@_W@__crt_stdio_output@@@2@@__crt_stdio_output@@AEAA_NXZ 000000018002c634 f i libucrt:output.obj
 0001:0002b814       ?type_case_c_tchar@?$output_processor@DV?$stream_output_adapter@D@__crt_stdio_output@@V?$standard_base@DV?$stream_output_adapter@D@__crt_stdio_output@@@2@@__crt_stdio_output@@AEAA_ND@Z 000000018002c814 f i libucrt:output.obj
 0001:0002b8d8       ?type_case_c_tchar@?$output_processor@_WV?$stream_output_adapter@_W@__crt_stdio_output@@V?$standard_base@_WV?$stream_output_adapter@_W@__crt_stdio_output@@@2@@__crt_stdio_output@@AEAA_N_W@Z 000000018002c8d8 f i libucrt:output.obj
 0001:0002b8d8       ?type_case_c_tchar@?$output_processor@_WV?$string_output_adapter@_W@__crt_stdio_output@@V?$standard_base@_WV?$string_output_adapter@_W@__crt_stdio_output@@@2@@__crt_stdio_output@@AEAA_N_W@Z 000000018002c8d8 f i libucrt:output.obj
 0001:0002b980       ?type_case_integer@?$output_processor@DV?$stream_output_adapter@D@__crt_stdio_output@@V?$standard_base@DV?$stream_output_adapter@D@__crt_stdio_output@@@2@@__crt_stdio_output@@AEAA_NI_N@Z 000000018002c980 f i libucrt:output.obj
 0001:0002bb48       ?type_case_integer@?$output_processor@_WV?$stream_output_adapter@_W@__crt_stdio_output@@V?$standard_base@_WV?$stream_output_adapter@_W@__crt_stdio_output@@@2@@__crt_stdio_output@@AEAA_NI_N@Z 000000018002cb48 f i libucrt:output.obj
 0001:0002bb48       ?type_case_integer@?$output_processor@_WV?$string_output_adapter@_W@__crt_stdio_output@@V?$standard_base@_WV?$string_output_adapter@_W@__crt_stdio_output@@@2@@__crt_stdio_output@@AEAA_NI_N@Z 000000018002cb48 f i libucrt:output.obj
 0001:0002bd14       ?type_case_n@?$output_processor@DV?$stream_output_adapter@D@__crt_stdio_output@@V?$standard_base@DV?$stream_output_adapter@D@__crt_stdio_output@@@2@@__crt_stdio_output@@AEAA_NXZ 000000018002cd14 f i libucrt:output.obj
 0001:0002bd14       ?type_case_n@?$output_processor@_WV?$stream_output_adapter@_W@__crt_stdio_output@@V?$standard_base@_WV?$stream_output_adapter@_W@__crt_stdio_output@@@2@@__crt_stdio_output@@AEAA_NXZ 000000018002cd14 f i libucrt:output.obj
 0001:0002bd14       ?type_case_n@?$output_processor@_WV?$string_output_adapter@_W@__crt_stdio_output@@V?$standard_base@_WV?$string_output_adapter@_W@__crt_stdio_output@@@2@@__crt_stdio_output@@AEAA_NXZ 000000018002cd14 f i libucrt:output.obj
 0001:0002bdf0       ?type_case_s@?$output_processor@DV?$stream_output_adapter@D@__crt_stdio_output@@V?$standard_base@DV?$stream_output_adapter@D@__crt_stdio_output@@@2@@__crt_stdio_output@@AEAA_NXZ 000000018002cdf0 f i libucrt:output.obj
 0001:0002be88       ?type_case_s@?$output_processor@_WV?$stream_output_adapter@_W@__crt_stdio_output@@V?$standard_base@_WV?$stream_output_adapter@_W@__crt_stdio_output@@@2@@__crt_stdio_output@@AEAA_NXZ 000000018002ce88 f i libucrt:output.obj
 0001:0002be88       ?type_case_s@?$output_processor@_WV?$string_output_adapter@_W@__crt_stdio_output@@V?$standard_base@_WV?$string_output_adapter@_W@__crt_stdio_output@@@2@@__crt_stdio_output@@AEAA_NXZ 000000018002ce88 f i libucrt:output.obj
 0001:0002bf4c       ?validate_stream_is_ansi_if_required@?$__acrt_stdio_char_traits@D@@SA_NQEAU_iobuf@@@Z 000000018002cf4c f i libucrt:output.obj
 0001:0002bfe0       ?write_stored_string_tchar@?$output_processor@DV?$stream_output_adapter@D@__crt_stdio_output@@V?$standard_base@DV?$stream_output_adapter@D@__crt_stdio_output@@@2@@__crt_stdio_output@@AEAA_ND@Z 000000018002cfe0 f i libucrt:output.obj
 0001:0002c104       ?write_stored_string_tchar@?$output_processor@_WV?$stream_output_adapter@_W@__crt_stdio_output@@V?$standard_base@_WV?$stream_output_adapter@_W@__crt_stdio_output@@@2@@__crt_stdio_output@@AEAA_N_W@Z 000000018002d104 f i libucrt:output.obj
 0001:0002c20c       ?write_stored_string_tchar@?$output_processor@_WV?$string_output_adapter@_W@__crt_stdio_output@@V?$standard_base@_WV?$string_output_adapter@_W@__crt_stdio_output@@@2@@__crt_stdio_output@@AEAA_N_W@Z 000000018002d20c f i libucrt:output.obj
 0001:0002c2f8       ?write_string@?$string_output_adapter@_W@__crt_stdio_output@@QEBAXQEB_WHQEAHAEAV__crt_deferred_errno_cache@@@Z 000000018002d2f8 f i libucrt:output.obj
 0001:0002c3a0       ?write_string_impl@?$output_adapter_common@DV?$stream_output_adapter@D@__crt_stdio_output@@@__crt_stdio_output@@IEBAXQEBDHQEAHAEAV__crt_deferred_errno_cache@@@Z 000000018002d3a0 f i libucrt:output.obj
 0001:0002c498       ?write_string_impl@?$output_adapter_common@_WV?$stream_output_adapter@_W@__crt_stdio_output@@@__crt_stdio_output@@IEBAXQEB_WHQEAHAEAV__crt_deferred_errno_cache@@@Z 000000018002d498 f i libucrt:output.obj
 0001:0002c59c       __stdio_common_vfprintf    000000018002d59c f   libucrt:output.obj
 0001:0002c628       __stdio_common_vfwprintf   000000018002d628 f   libucrt:output.obj
 0001:0002c6b4       __stdio_common_vswprintf   000000018002d6b4 f   libucrt:output.obj
 0001:0002c6bc       _fread_nolock_s            000000018002d6bc f   libucrt:fread.obj
 0001:0002c94c       fread                      000000018002d94c f   libucrt:fread.obj
 0001:0002c96c       fread_s                    000000018002d96c f   libucrt:fread.obj
 0001:0002cab8       _fwrite_nolock             000000018002dab8 f   libucrt:fwrite.obj
 0001:0002cc60       fwrite                     000000018002dc60 f   libucrt:fwrite.obj
 0001:0002cce4       __acrt_initialize_new_handler 000000018002dce4 f   libucrt:new_handler.obj
 0001:0002ccec       _callnewh                  000000018002dcec f   libucrt:new_handler.obj
 0001:0002cd1c       _query_new_handler         000000018002dd1c f   libucrt:new_handler.obj
 0001:0002cd50       _seh_filter_dll            000000018002dd50 f   libucrt:exception_filter.obj
 0001:0002cd64       _seh_filter_exe            000000018002dd64 f   libucrt:exception_filter.obj
 0001:0002d15c       __acrt_initialize_thread_local_exit_callback 000000018002e15c f   libucrt:exit.obj
 0001:0002d164       _cexit                     000000018002e164 f   libucrt:exit.obj
 0001:0002d174       _exit                      000000018002e174 f   libucrt:exit.obj
 0001:0002d180       _is_c_termination_complete 000000018002e180 f   libucrt:exit.obj
 0001:0002d34c       __acrt_allocate_buffer_for_argv 000000018002e34c f   libucrt:argv_parsing.obj
 0001:0002d3ac       _configure_narrow_argv     000000018002e3ac f   libucrt:argv_parsing.obj
 0001:0002d724       __dcrt_uninitialize_environments_nolock 000000018002e724 f   libucrt:environment_initialization.obj
 0001:0002d75c       _initialize_narrow_environment 000000018002e75c f   libucrt:environment_initialization.obj
 0001:0002daec       _crt_atexit                000000018002eaec f   libucrt:onexit.obj
 0001:0002dafc       _execute_onexit_table      000000018002eafc f   libucrt:onexit.obj
 0001:0002db38       _initialize_onexit_table   000000018002eb38 f   libucrt:onexit.obj
 0001:0002db78       _register_onexit_function  000000018002eb78 f   libucrt:onexit.obj
 0001:0002dbf8       __acrt_uninitialize_command_line 000000018002ebf8 f   libucrt:argv_data.obj
 0001:0002dd04       __acrt_initialize          000000018002ed04 f   libucrt:initialization.obj
 0001:0002dd18       __acrt_thread_attach       000000018002ed18 f   libucrt:initialization.obj
 0001:0002dd2c       __acrt_thread_detach       000000018002ed2c f   libucrt:initialization.obj
 0001:0002dd3c       __acrt_uninitialize        000000018002ed3c f   libucrt:initialization.obj
 0001:0002dd74       __acrt_uninitialize_critical 000000018002ed74 f   libucrt:initialization.obj
 0001:0002dd84       _initterm                  000000018002ed84 f   libucrt:initterm.obj
 0001:0002dde8       _initterm_e                000000018002ede8 f   libucrt:initterm.obj
 0001:0002de28       terminate                  000000018002ee28 f   libucrt:terminate.obj
 0001:0002de48       strcpy_s                   000000018002ee48 f   libucrt:strcpy_s.obj
 0001:0002deb8       calloc                     000000018002eeb8 f   libucrt:calloc.obj
 0001:0002dec0       wcsncmp                    000000018002eec0 f   libucrt:wcsncmp.obj
 0001:0002df00       strncmp                    000000018002ef00 f   libucrt:strncmp.obj
 0001:0002e2f8       __acrt_freeptd             000000018002f2f8 f   libucrt:per_thread_data.obj
 0001:0002e33c       __acrt_getptd              000000018002f33c f   libucrt:per_thread_data.obj
 0001:0002e400       __acrt_getptd_head         000000018002f400 f   libucrt:per_thread_data.obj
 0001:0002e4a8       __acrt_getptd_noexit       000000018002f4a8 f   libucrt:per_thread_data.obj
 0001:0002e560       __acrt_initialize_ptd      000000018002f560 f   libucrt:per_thread_data.obj
 0001:0002e59c       __acrt_uninitialize_ptd    000000018002f59c f   libucrt:per_thread_data.obj
 0001:0002e5c0       __pctype_func              000000018002f5c0 f   libucrt:ctype.obj
 0001:0002e5f0       iswctype                   000000018002f5f0 f   libucrt:iswctype.obj
 0001:0002e660       _isctype_l                 000000018002f660 f   libucrt:isctype.obj
 0001:0002e774       __acrt_update_locale_info  000000018002f774 f   libucrt:locale_update.obj
 0001:0002e7a8       __acrt_update_multibyte_info 000000018002f7a8 f   libucrt:locale_update.obj
 0001:0002e84c       __acrt_set_locale_changed  000000018002f84c f   libucrt:wsetlocale.obj
 0001:0002e858       __acrt_uninitialize_locale 000000018002f858 f   libucrt:wsetlocale.obj
 0001:0002e888       _free_base                 000000018002f888 f   libucrt:free_base.obj
 0001:0002e8c8       _query_app_type            000000018002f8c8 f   libucrt:report_runtime_error.obj
 0001:0002ea00       _itow_s                    000000018002fa00 f   libucrt:xtoa.obj
 0001:0002ea20       _set_error_mode            000000018002fa20 f   libucrt:set_error_mode.obj
 0001:0002ea60       wcscat_s                   000000018002fa60 f   libucrt:wcscat_s.obj
 0001:0002eaec       wcscpy_s                   000000018002faec f   libucrt:wcscpy_s.obj
 0001:0002eb64       wcsncat_s                  000000018002fb64 f   libucrt:wcsncat_s.obj
 0001:0002ec78       __acrt_GetModuleFileNameA  000000018002fc78 f   libucrt:getmodulefilenamea.obj
 0001:0002ecf4       __acrt_show_wide_message_box 000000018002fcf4 f   libucrt:crtmbox.obj
 0001:0002eec8       setvbuf                    000000018002fec8 f   libucrt:setvbuf.obj
 0001:0002efac       __acrt_get_sigabrt_handler 000000018002ffac f   libucrt:signal.obj
 0001:0002efdc       __acrt_initialize_signal_handlers 000000018002ffdc f   libucrt:signal.obj
 0001:0002effc       raise                      000000018002fffc f   libucrt:signal.obj
 0001:0002f27c       _malloc_base               000000018003027c f   libucrt:malloc_base.obj
 0001:0002f2dc       ?__acrt_stdio_allocate_stream@@YA?AV__crt_stdio_stream@@XZ 00000001800302dc f   libucrt:stream.obj
 0001:0002f334       ?__acrt_stdio_free_stream@@YAXV__crt_stdio_stream@@@Z 0000000180030334 f   libucrt:stream.obj
 0001:0002f43c       ??$__acrt_stdio_parse_mode@D@@YA?AU__acrt_stdio_stream_mode@@QEBD@Z 000000018003043c f i libucrt:openfile.obj
 0001:0002f700       _openfile                  0000000180030700 f   libucrt:openfile.obj
 0001:0002f810       _close                     0000000180030810 f   libucrt:close.obj
 0001:0002f8b4       _close_nolock              00000001800308b4 f   libucrt:close.obj
 0001:0002f970       _fileno                    0000000180030970 f   libucrt:fileno.obj
 0001:0002f998       __acrt_stdio_free_buffer_nolock 0000000180030998 f   libucrt:_freebuf.obj
 0001:0002fa28       _tolower_l                 0000000180030a28 f   libucrt:tolower_toupper.obj
 0001:0002fb68       tolower                    0000000180030b68 f   libucrt:tolower_toupper.obj
 0001:0002fb94       _raise_exc                 0000000180030b94 f   libucrt:fpexcept.obj
 0001:0002fbbc       _raise_exc_ex              0000000180030bbc f   libucrt:fpexcept.obj
 0001:0002fecc       _set_errno_from_matherr    0000000180030ecc f   libucrt:fpexcept.obj
 0001:0002fefc       _clrfp                     0000000180030efc f   libucrt:fpctrl.obj
 0001:0002ff1c       _ctrlfp                    0000000180030f1c f   libucrt:fpctrl.obj
 0001:0002ff98       _set_statfp                0000000180030f98 f   libucrt:fpctrl.obj
 0001:0002ffb8       _statfp                    0000000180030fb8 f   libucrt:fpctrl.obj
 0001:0002ffcc       __acrt_initialize_locks    0000000180030fcc f   libucrt:locks.obj
 0001:00030014       __acrt_lock                0000000180031014 f   libucrt:locks.obj
 0001:00030030       __acrt_uninitialize_locks  0000000180031030 f   libucrt:locks.obj
 0001:00030068       __acrt_unlock              0000000180031068 f   libucrt:locks.obj
 0001:00030110       _commit                    0000000180031110 f   libucrt:commit.obj
 0001:0003074c       _write                     000000018003174c f   libucrt:write.obj
 0001:00030838       _write_nolock              0000000180031838 f   libucrt:write.obj
 0001:00030b18       __acrt_MultiByteToWideChar 0000000180031b18 f   libucrt:multibytetowidechar.obj
 0001:00030d4c       __acrt_AppPolicyGetProcessTerminationMethodInternal 0000000180031d4c f   libucrt:winapi_thunks.obj
 0001:00030d9c       __acrt_AppPolicyGetShowDeveloperDiagnosticInternal 0000000180031d9c f   libucrt:winapi_thunks.obj
 0001:00030dec       __acrt_AppPolicyGetWindowingModelInternal 0000000180031dec f   libucrt:winapi_thunks.obj
 0001:00030e3c       __acrt_AreFileApisANSI     0000000180031e3c f   libucrt:winapi_thunks.obj
 0001:00030e78       __acrt_FlsAlloc            0000000180031e78 f   libucrt:winapi_thunks.obj
 0001:00030ec0       __acrt_FlsFree             0000000180031ec0 f   libucrt:winapi_thunks.obj
 0001:00030f08       __acrt_FlsGetValue         0000000180031f08 f   libucrt:winapi_thunks.obj
 0001:00030f50       __acrt_FlsSetValue         0000000180031f50 f   libucrt:winapi_thunks.obj
 0001:00030fa4       __acrt_InitializeCriticalSectionEx 0000000180031fa4 f   libucrt:winapi_thunks.obj
 0001:00031008       __acrt_LCMapStringEx       0000000180032008 f   libucrt:winapi_thunks.obj
 0001:000310e4       __acrt_LocaleNameToLCID    00000001800320e4 f   libucrt:winapi_thunks.obj
 0001:00031134       __acrt_MessageBoxW         0000000180032134 f   libucrt:winapi_thunks.obj
 0001:000311a8       __acrt_can_show_message_box 00000001800321a8 f   libucrt:winapi_thunks.obj
 0001:00031218       __acrt_get_parent_window   0000000180032218 f   libucrt:winapi_thunks.obj
 0001:00031294       __acrt_initialize_winapi_thunks 0000000180032294 f   libucrt:winapi_thunks.obj
 0001:000312dc       __acrt_is_interactive      00000001800322dc f   libucrt:winapi_thunks.obj
 0001:000313a4       __acrt_uninitialize_winapi_thunks 00000001800323a4 f   libucrt:winapi_thunks.obj
 0001:000313e8       _calloc_base               00000001800323e8 f   libucrt:calloc_base.obj
 0001:00031664       _mbstowcs_l                0000000180032664 f   libucrt:mbstowcs.obj
 0001:0003166c       mbstowcs                   000000018003266c f   libucrt:mbstowcs.obj
 0001:00031688       strncpy_s                  0000000180032688 f   libucrt:strncpy_s.obj
 0001:00031770       _fcloseall                 0000000180032770 f   libucrt:closeall.obj
 0001:00031a0c       __acrt_initialize_lowio    0000000180032a0c f   libucrt:ioinit.obj
 0001:00031a48       __acrt_uninitialize_lowio  0000000180032a48 f   libucrt:ioinit.obj
 0001:00031a88       isdigit                    0000000180032a88 f i libucrt:_ctype.obj
 0001:00031b00       _mbtowc_l                  0000000180032b00 f   libucrt:mbtowc.obj
 0001:00031c7c       mbtowc                     0000000180032c7c f   libucrt:mbtowc.obj
 0001:00031c84       _wctomb_s_l                0000000180032c84 f   libucrt:wctomb.obj
 0001:00031e08       wctomb_s                   0000000180032e08 f   libucrt:wctomb.obj
 0001:00031e1c       strnlen                    0000000180032e1c f   libucrt:strnlen.obj
 0001:00031f6c       wcsnlen                    0000000180032f6c f   libucrt:strnlen.obj
 0001:00032b14       __acrt_fp_format           0000000180033b14 f   libucrt:cvt.obj
 0001:00032d9c       _fputwc_nolock             0000000180033d9c f   libucrt:fputwc.obj
 0001:00032f14       _fputc_nolock              0000000180033f14 f   libucrt:fputc.obj
 0001:00032f2c       _get_printf_count_output   0000000180033f2c f   libucrt:printf_count_output.obj
 0001:00032f44       __acrt_stdio_begin_temporary_buffering_nolock 0000000180033f44 f   libucrt:_sftbuf.obj
 0001:00033014       __acrt_stdio_end_temporary_buffering_nolock 0000000180034014 f   libucrt:_sftbuf.obj
 0001:00033630       _read                      0000000180034630 f   libucrt:read.obj
 0001:0003374c       _read_nolock               000000018003474c f   libucrt:read.obj
 0001:00033ba8       __acrt_stdio_refill_and_read_narrow_nolock 0000000180034ba8 f   libucrt:_filbuf.obj
 0001:00033ed8       __acrt_stdio_flush_and_write_narrow_nolock 0000000180034ed8 f   libucrt:_flsbuf.obj
 0001:00033fc0       __acrt_stdio_flush_and_write_wide_nolock 0000000180034fc0 f   libucrt:_flsbuf.obj
 0001:000340ac       __acrt_get_developer_information_policy 00000001800350ac f   libucrt:win_policies.obj
 0001:00034100       __acrt_get_process_end_policy 0000000180035100 f   libucrt:win_policies.obj
 0001:0003413c       __acrt_get_windowing_model_policy 000000018003513c f   libucrt:win_policies.obj
 0001:00034710       __acrt_expand_narrow_argv_wildcards 0000000180035710 f   libucrt:argv_wildcards.obj
 0001:00034e44       __acrt_initialize_multibyte 0000000180035e44 f   libucrt:mbctype.obj
 0001:00034ea4       __acrt_update_thread_multibyte_data 0000000180035ea4 f   libucrt:mbctype.obj
 0001:00034ec0       _setmbcp_nolock            0000000180035ec0 f   libucrt:mbctype.obj
 0001:000351f0       _ismbblead                 00000001800361f0 f   libucrt:ismbbyte.obj
 0001:00035204       __acrt_initialize_command_line 0000000180036204 f   libucrt:argv_data.obj
 0001:0003522c       __acrt_WideCharToMultiByte 000000018003622c f   libucrt:widechartomultibyte.obj
 0001:000352c4       __dcrt_get_narrow_environment_from_os 00000001800362c4 f   libucrt:get_environment_from_os.obj
 0001:000353c8       _recalloc                  00000001800363c8 f   libucrt:recalloc.obj
 0001:000353d0       _recalloc_base             00000001800363d0 f   libucrt:recalloc.obj
 0001:00035468       __acrt_initialize_heap     0000000180036468 f   libucrt:heap_handle.obj
 0001:00035484       __acrt_uninitialize_heap   0000000180036484 f   libucrt:heap_handle.obj
 0001:00035490       __acrt_execute_initializers 0000000180036490 f   libucrt:shared_initialization.obj
 0001:00035510       __acrt_execute_uninitializers 0000000180036510 f   libucrt:shared_initialization.obj
 0001:0003554c       __acrt_has_user_matherr    000000018003654c f   libucrt:matherr.obj
 0001:0003556c       __acrt_initialize_user_matherr 000000018003656c f   libucrt:matherr.obj
 0001:00035574       __acrt_invoke_user_matherr 0000000180036574 f   libucrt:matherr.obj
 0001:000355a4       __acrt_add_locale_ref      00000001800365a4 f   libucrt:locale_refcounting.obj
 0001:00035630       __acrt_free_locale         0000000180036630 f   libucrt:locale_refcounting.obj
 0001:000357a8       __acrt_locale_add_lc_time_reference 00000001800367a8 f   libucrt:locale_refcounting.obj
 0001:000357d0       __acrt_locale_free_lc_time_if_unreferenced 00000001800367d0 f   libucrt:locale_refcounting.obj
 0001:00035808       __acrt_locale_release_lc_time_reference 0000000180036808 f   libucrt:locale_refcounting.obj
 0001:00035830       __acrt_release_locale_ref  0000000180036830 f   libucrt:locale_refcounting.obj
 0001:000358d8       __acrt_update_thread_locale_data 00000001800368d8 f   libucrt:locale_refcounting.obj
 0001:00035948       _updatetlocinfoEx_nolock   0000000180036948 f   libucrt:locale_refcounting.obj
 0001:000359b0       __acrt_GetStringTypeW      00000001800369b0 f   libucrt:getstringtypew.obj
 0001:000359b8       _isleadbyte_l              00000001800369b8 f i libucrt:_wctype.obj
 0001:000359f8       __acrt_GetStringTypeA      00000001800369f8 f   libucrt:getstringtypea.obj
 0001:00035b88       __acrt_locale_free_monetary 0000000180036b88 f   libucrt:initmon.obj
 0001:00035c94       __acrt_locale_free_numeric 0000000180036c94 f   libucrt:initnum.obj
 0001:00035d54       __acrt_locale_free_time    0000000180036d54 f   libucrt:inittime.obj
 0001:00035e5c       _query_new_mode            0000000180036e5c f   libucrt:new_mode.obj
 0001:00035e64       __ascii_strnicmp           0000000180036e64 f   libucrt:strnicmp.obj
 0001:00035ec0       _strnicmp                  0000000180036ec0 f   libucrt:strnicmp.obj
 0001:00035f10       _strnicmp_l                0000000180036f10 f   libucrt:strnicmp.obj
 0001:00036614       _sopen_nolock              0000000180037614 f   libucrt:open.obj
 0001:0003672c       _sopen_s                   000000018003772c f   libucrt:open.obj
 0001:00036760       _wsopen_nolock             0000000180037760 f   libucrt:open.obj
 0001:00036b48       __acrt_lowio_create_handle_array 0000000180037b48 f   libucrt:osfinfo.obj
 0001:00036be0       __acrt_lowio_destroy_handle_array 0000000180037be0 f   libucrt:osfinfo.obj
 0001:00036c30       __acrt_lowio_ensure_fh_exists 0000000180037c30 f   libucrt:osfinfo.obj
 0001:00036cd8       __acrt_lowio_lock_fh       0000000180037cd8 f   libucrt:osfinfo.obj
 0001:00036cfc       __acrt_lowio_set_os_handle 0000000180037cfc f   libucrt:osfinfo.obj
 0001:00036dbc       __acrt_lowio_unlock_fh     0000000180037dbc f   libucrt:osfinfo.obj
 0001:00036de0       _alloc_osfhnd              0000000180037de0 f   libucrt:osfinfo.obj
 0001:00036f04       _free_osfhnd               0000000180037f04 f   libucrt:osfinfo.obj
 0001:00036fc0       _get_osfhandle             0000000180037fc0 f   libucrt:osfinfo.obj
 0001:00037350       __acrt_LCMapStringA        0000000180038350 f   libucrt:lcmapstringa.obj
 0001:00037400       _get_fpsr                  0000000180038400 f   libucrt:fpsr.obj
 0001:00037410       _set_fpsr                  0000000180038410 f   libucrt:fpsr.obj
 0001:0003741a       _fclrf                     000000018003841a f   libucrt:fpsr.obj
 0001:0003742e       _frnd                      000000018003842e f   libucrt:fpsr.obj
 0001:00037450       _isatty                    0000000180038450 f   libucrt:isatty.obj
 0001:0003763c       _lseeki64                  000000018003863c f   libucrt:lseek.obj
 0001:00037644       _lseeki64_nolock           0000000180038644 f   libucrt:lseek.obj
 0001:0003764c       _putwch_nolock             000000018003864c f   libucrt:putwch.obj
 0001:00037770       __acrt_DownlevelLocaleNameToLCID 0000000180038770 f   libucrt:lcidtoname_downlevel.obj
 0001:000377a4       ?__mbrtowc_utf8@__crt_mbstring@@YA_KPEA_WPEBD_KPEAU_Mbstatet@@@Z 00000001800387a4 f   libucrt:mbrtowc.obj
 0001:000377e0       ?__mbsrtowcs_utf8@__crt_mbstring@@YA_KPEA_WPEAPEBD_KPEAU_Mbstatet@@@Z 00000001800387e0 f   libucrt:mbrtowc.obj
 0001:00037958       __acrt_fenv_get_control    0000000180038958 f   libucrt:_fenvutils.obj
 0001:00037a58       __acrt_fenv_get_status     0000000180038a58 f   libucrt:_fenvutils.obj
 0001:00037ab0       __acrt_fenv_set_control    0000000180038ab0 f   libucrt:_fenvutils.obj
 0001:00037bf8       __acrt_fenv_set_status     0000000180038bf8 f   libucrt:_fenvutils.obj
 0001:00037c7c       __acrt_fp_strflt_to_string 0000000180038c7c f   libucrt:_fptostr.obj
 0001:00037d60       __acrt_fltout              0000000180038d60 f   libucrt:cfout.obj
 0001:00039038       __acrt_stdio_allocate_buffer_nolock 000000018003a038 f   libucrt:_getbuf.obj
 0001:000390a0       qsort                      000000018003a0a0 f   libucrt:qsort.obj
 0001:000394f0       strpbrk                    000000018003a4f0 f   libucrt:strpbrk.obj
 0001:000398d0       ??$__acrt_convert_wcs_mbs@D_W$$A6A_KPEA_WPEBD_KPEAU__crt_locale_pointers@@@ZU__crt_win32_buffer_internal_dynamic_resizing@@@@YAHQEBDAEAV?$__crt_win32_buffer@_WU__crt_win32_buffer_internal_dynamic_resizing@@@@A6A_KPEA_WPEBD_KPEAU__crt_locale_pointers@@@Z5@Z 000000018003a8d0 f i libucrt:findfirstfileexa.obj
 0001:000399d8       __acrt_FindFirstFileExA    000000018003a9d8 f   libucrt:findfirstfileexa.obj
 0001:00039a7c       ??$__acrt_convert_wcs_mbs@_WD$$A6A_KPEADPEB_W_KPEAU__crt_locale_pointers@@@ZU__crt_win32_buffer_no_resizing@@@@YAHQEB_WAEAV?$__crt_win32_buffer@DU__crt_win32_buffer_no_resizing@@@@A6A_KPEADPEB_W_KPEAU__crt_locale_pointers@@@Z5@Z 000000018003aa7c f i libucrt:findnextfilea.obj
 0001:00039b48       __acrt_FindNextFileA       000000018003ab48 f   libucrt:findnextfilea.obj
 0001:00039c7c       _mbsdec                    000000018003ac7c f   libucrt:mbsdec.obj
 0001:00039c84       _mbsdec_l                  000000018003ac84 f   libucrt:mbsdec.obj
 0001:00039d30       _msize                     000000018003ad30 f   libucrt:msize.obj
 0001:00039d38       _msize_base                000000018003ad38 f   libucrt:msize.obj
 0001:00039d74       _realloc_base              000000018003ad74 f   libucrt:realloc_base.obj
 0001:00039df0       _get_fmode                 000000018003adf0 f   libucrt:setmode.obj
 0001:00039e20       _setmode_nolock            000000018003ae20 f   libucrt:setmode.obj
 0001:00039f00       _chsize_nolock             000000018003af00 f   libucrt:chsize.obj
 0001:0003a07c       __strncnt                  000000018003b07c f   libucrt:strncnt.obj
 0001:0003a094       __dcrt_lowio_ensure_console_output_initialized 000000018003b094 f   libucrt:initcon.obj
 0001:0003a0e8       __dcrt_terminate_console_output 000000018003b0e8 f   libucrt:initcon.obj
 0001:0003a104       __dcrt_write_console       000000018003b104 f   libucrt:initcon.obj
 0001:0003a1c4       ?__mbrtoc32_utf8@__crt_mbstring@@YA_KPEA_UPEBD_KPEAU_Mbstatet@@@Z 000000018003b1c4 f   libucrt:mbrtoc32.obj
 0001:0003a3a0       fegetenv                   000000018003b3a0 f   libucrt:fegetenv.obj
 0001:0003a3c0       fesetenv                   000000018003b3c0 f   libucrt:fesetenv.obj
 0001:0003a410       feholdexcept               000000018003b410 f   libucrt:feholdexcept.obj
 0001:0003a460       ceil                       000000018003b460 f   libucrt:ceil.obj
 0001:0003a530       log10                      000000018003b530 f   libucrt:log10.obj
 0001:0003ae44       _wcstombs_l                000000018003be44 f   libucrt:wcstombs.obj
 0001:0003ae4c       _clearfp                   000000018003be4c f   libucrt:ieee.obj
 0001:0003afe0       _handle_error              000000018003bfe0 f   libucrt:libm_error.obj
 0001:0003b108       _handle_nan                000000018003c108 f   libucrt:libm_error.obj
 0001:0003b130       __acrt_initialize_fma3     000000018003c130 f   libucrt:fma3_available.obj
 0001:0003b1a0       _log10_special             000000018003c1a0 f   libucrt:log_special.obj
 0001:0003b258       ?__wcsrtombs_utf8@__crt_mbstring@@YA_KPEADPEAPEB_W_KPEAU_Mbstatet@@@Z 000000018003c258 f   libucrt:wcrtomb.obj
 0001:0003b374       ?__c16rtomb_utf8@__crt_mbstring@@YA_KPEAD_SPEAU_Mbstatet@@@Z 000000018003c374 f   libucrt:c16rtomb.obj
 0001:0003b41c       ?__c32rtomb_utf8@__crt_mbstring@@YA_KPEAD_UPEAU_Mbstatet@@@Z 000000018003c41c f   libucrt:c32rtomb.obj
 0001:0003b4d4       c32rtomb                   000000018003c4d4 f   libucrt:c32rtomb.obj
 0001:0003b4d9       IsProcessorFeaturePresent  000000018003c4d9 f   kernel32:KERNEL32.dll
 0001:0003b4df       RtlUnwindEx                000000018003c4df f   kernel32:KERNEL32.dll
 0001:0003b4e8       ?DloadAcquireSectionWriteAccess@@YAXXZ 000000018003c4e8 f i DelayImp:delayhlp.obj
 0001:0003b594       ?DloadGetSRWLockFunctionPointers@@YAEXZ 000000018003c594 f i DelayImp:delayhlp.obj
 0001:0003b630       ?DloadMakePermanentImageCommit@@YAXPEAX_K@Z 000000018003c630 f i DelayImp:delayhlp.obj
 0001:0003b6c8       ?DloadObtainSection@@YAPEAXPEAK0@Z 000000018003c6c8 f i DelayImp:delayhlp.obj
 0001:0003b764       ?DloadProtectSection@@YAXKPEAK@Z 000000018003c764 f i DelayImp:delayhlp.obj
 0001:0003b7f4       ?DloadReleaseSectionWriteAccess@@YAXXZ 000000018003c7f4 f i DelayImp:delayhlp.obj
 0001:0003b888       __delayLoadHelper2         000000018003c888 f   DelayImp:delayhlp.obj
 0001:0003bb48       __GSHandlerCheck           000000018003cb48 f   LIBCMT:gshandler.obj
 0001:0003bb68       __GSHandlerCheckCommon     000000018003cb68 f   LIBCMT:gshandler.obj
 0001:0003bbd0       _FindPESection             000000018003cbd0 f   LIBCMT:pesect.obj
 0001:0003bc20       _IsNonwritableInCurrentImage 000000018003cc20 f   LIBCMT:pesect.obj
 0001:0003bc70       _ValidateImageBase         000000018003cc70 f   LIBCMT:pesect.obj
 0001:0003bcb0       __chkstk                   000000018003ccb0 f   LIBCMT:chkstk.obj
 0001:0003bcb0       _alloca_probe              000000018003ccb0 f   LIBCMT:chkstk.obj
 0001:0003bd04       __GSHandlerCheck_EH        000000018003cd04 f   LIBCMT:gshandlereh.obj
 0001:0003bda0       memcmp                     000000018003cda0 f   libvcruntime:memcmp.obj
 0001:0003be68       strrchr                    000000018003ce68 f   libvcruntime:strrchr.obj
 0001:0003bfc0       floor                      000000018003cfc0 f   libucrt:floor.obj
 0001:0003c070       pow                        000000018003d070 f   libucrt:pow.obj
 0001:0003d710       _pow_special               000000018003e710 f   libucrt:pow_special.obj
 0001:0003d850       _guard_dispatch_icall_nop  000000018003e850 f   LIBCMT:guard_dispatch.obj
 0001:0003d870       __longjmp_internal         000000018003e870 f   libvcruntime:longjmp.obj
 0001:0003d970       __intrinsic_setjmp         000000018003e970 f   libvcruntime:setjmp.obj
 0001:0003d970       _setjmp                    000000018003e970 f   libvcruntime:setjmp.obj
 0001:0003da10       setjmp                     000000018003ea10 f   libvcruntime:setjmp.obj
 0002:00000000       __imp_GetModuleHandleA     0000000180040000     kernel32:KERNEL32.dll
 0002:00000008       __imp_LoadLibraryExA       0000000180040008     kernel32:KERNEL32.dll
 0002:00000010       __imp_ExitProcess          0000000180040010     kernel32:KERNEL32.dll
 0002:00000018       __imp_RtlCaptureContext    0000000180040018     kernel32:KERNEL32.dll
 0002:00000020       __imp_RtlLookupFunctionEntry 0000000180040020     kernel32:KERNEL32.dll
 0002:00000028       __imp_RtlVirtualUnwind     0000000180040028     kernel32:KERNEL32.dll
 0002:00000030       __imp_UnhandledExceptionFilter 0000000180040030     kernel32:KERNEL32.dll
 0002:00000038       __imp_SetUnhandledExceptionFilter 0000000180040038     kernel32:KERNEL32.dll
 0002:00000040       __imp_GetCurrentProcess    0000000180040040     kernel32:KERNEL32.dll
 0002:00000048       __imp_TerminateProcess     0000000180040048     kernel32:KERNEL32.dll
 0002:00000050       __imp_IsProcessorFeaturePresent 0000000180040050     kernel32:KERNEL32.dll
 0002:00000058       __imp_IsDebuggerPresent    0000000180040058     kernel32:KERNEL32.dll
 0002:00000060       __imp_GetStartupInfoW      0000000180040060     kernel32:KERNEL32.dll
 0002:00000068       __imp_GetModuleHandleW     0000000180040068     kernel32:KERNEL32.dll
 0002:00000070       __imp_QueryPerformanceCounter 0000000180040070     kernel32:KERNEL32.dll
 0002:00000078       __imp_GetCurrentProcessId  0000000180040078     kernel32:KERNEL32.dll
 0002:00000080       __imp_GetCurrentThreadId   0000000180040080     kernel32:KERNEL32.dll
 0002:00000088       __imp_GetSystemTimeAsFileTime 0000000180040088     kernel32:KERNEL32.dll
 0002:00000090       __imp_InitializeSListHead  0000000180040090     kernel32:KERNEL32.dll
 0002:00000098       __imp_RtlUnwindEx          0000000180040098     kernel32:KERNEL32.dll
 0002:000000a0       __imp_RtlPcToFileHeader    00000001800400a0     kernel32:KERNEL32.dll
 0002:000000a8       __imp_RaiseException       00000001800400a8     kernel32:KERNEL32.dll
 0002:000000b0       __imp_InterlockedFlushSList 00000001800400b0     kernel32:KERNEL32.dll
 0002:000000b8       __imp_GetLastError         00000001800400b8     kernel32:KERNEL32.dll
 0002:000000c0       __imp_SetLastError         00000001800400c0     kernel32:KERNEL32.dll
 0002:000000c8       __imp_EncodePointer        00000001800400c8     kernel32:KERNEL32.dll
 0002:000000d0       __imp_EnterCriticalSection 00000001800400d0     kernel32:KERNEL32.dll
 0002:000000d8       __imp_LeaveCriticalSection 00000001800400d8     kernel32:KERNEL32.dll
 0002:000000e0       __imp_DeleteCriticalSection 00000001800400e0     kernel32:KERNEL32.dll
 0002:000000e8       __imp_InitializeCriticalSectionAndSpinCount 00000001800400e8     kernel32:KERNEL32.dll
 0002:000000f0       __imp_TlsAlloc             00000001800400f0     kernel32:KERNEL32.dll
 0002:000000f8       __imp_TlsGetValue          00000001800400f8     kernel32:KERNEL32.dll
 0002:00000100       __imp_TlsSetValue          0000000180040100     kernel32:KERNEL32.dll
 0002:00000108       __imp_TlsFree              0000000180040108     kernel32:KERNEL32.dll
 0002:00000110       __imp_FreeLibrary          0000000180040110     kernel32:KERNEL32.dll
 0002:00000118       __imp_GetProcAddress       0000000180040118     kernel32:KERNEL32.dll
 0002:00000120       __imp_LoadLibraryExW       0000000180040120     kernel32:KERNEL32.dll
 0002:00000128       __imp_GetStdHandle         0000000180040128     kernel32:KERNEL32.dll
 0002:00000130       __imp_GetFileType          0000000180040130     kernel32:KERNEL32.dll
 0002:00000138       __imp_GetModuleFileNameW   0000000180040138     kernel32:KERNEL32.dll
 0002:00000140       __imp_GetModuleHandleExW   0000000180040140     kernel32:KERNEL32.dll
 0002:00000148       __imp_WriteConsoleW        0000000180040148     kernel32:KERNEL32.dll
 0002:00000150       __imp_HeapFree             0000000180040150     kernel32:KERNEL32.dll
 0002:00000158       __imp_WriteFile            0000000180040158     kernel32:KERNEL32.dll
 0002:00000160       __imp_OutputDebugStringW   0000000180040160     kernel32:KERNEL32.dll
 0002:00000168       __imp_HeapAlloc            0000000180040168     kernel32:KERNEL32.dll
 0002:00000170       __imp_CloseHandle          0000000180040170     kernel32:KERNEL32.dll
 0002:00000178       __imp_FlushFileBuffers     0000000180040178     kernel32:KERNEL32.dll
 0002:00000180       __imp_GetConsoleCP         0000000180040180     kernel32:KERNEL32.dll
 0002:00000188       __imp_GetConsoleMode       0000000180040188     kernel32:KERNEL32.dll
 0002:00000190       __imp_MultiByteToWideChar  0000000180040190     kernel32:KERNEL32.dll
 0002:00000198       __imp_LCMapStringW         0000000180040198     kernel32:KERNEL32.dll
 0002:000001a0       __imp_ReadFile             00000001800401a0     kernel32:KERNEL32.dll
 0002:000001a8       __imp_ReadConsoleW         00000001800401a8     kernel32:KERNEL32.dll
 0002:000001b0       __imp_FindClose            00000001800401b0     kernel32:KERNEL32.dll
 0002:000001b8       __imp_FindFirstFileExW     00000001800401b8     kernel32:KERNEL32.dll
 0002:000001c0       __imp_FindNextFileW        00000001800401c0     kernel32:KERNEL32.dll
 0002:000001c8       __imp_IsValidCodePage      00000001800401c8     kernel32:KERNEL32.dll
 0002:000001d0       __imp_GetACP               00000001800401d0     kernel32:KERNEL32.dll
 0002:000001d8       __imp_GetOEMCP             00000001800401d8     kernel32:KERNEL32.dll
 0002:000001e0       __imp_GetCPInfo            00000001800401e0     kernel32:KERNEL32.dll
 0002:000001e8       __imp_GetCommandLineA      00000001800401e8     kernel32:KERNEL32.dll
 0002:000001f0       __imp_GetCommandLineW      00000001800401f0     kernel32:KERNEL32.dll
 0002:000001f8       __imp_WideCharToMultiByte  00000001800401f8     kernel32:KERNEL32.dll
 0002:00000200       __imp_GetEnvironmentStringsW 0000000180040200     kernel32:KERNEL32.dll
 0002:00000208       __imp_FreeEnvironmentStringsW 0000000180040208     kernel32:KERNEL32.dll
 0002:00000210       __imp_GetProcessHeap       0000000180040210     kernel32:KERNEL32.dll
 0002:00000218       __imp_GetStringTypeW       0000000180040218     kernel32:KERNEL32.dll
 0002:00000220       __imp_CreateFileW          0000000180040220     kernel32:KERNEL32.dll
 0002:00000228       __imp_SetStdHandle         0000000180040228     kernel32:KERNEL32.dll
 0002:00000230       __imp_SetFilePointerEx     0000000180040230     kernel32:KERNEL32.dll
 0002:00000238       __imp_HeapSize             0000000180040238     kernel32:KERNEL32.dll
 0002:00000240       __imp_HeapReAlloc          0000000180040240     kernel32:KERNEL32.dll
 0002:00000248       __imp_SetEndOfFile         0000000180040248     kernel32:KERNEL32.dll
 0002:00000250       __imp_GetSystemInfo        0000000180040250     kernel32:KERNEL32.dll
 0002:00000258       __imp_VirtualProtect       0000000180040258     kernel32:KERNEL32.dll
 0002:00000260       __imp_VirtualQuery         0000000180040260     kernel32:KERNEL32.dll
 0002:00000268       \177KERNEL32_NULL_THUNK_DATA 0000000180040268     kernel32:KERNEL32.dll
 0002:00000270       __guard_check_icall_fptr   0000000180040270     LIBCMT:guard_support.obj
 0002:00000278       __guard_dispatch_icall_fptr 0000000180040278     LIBCMT:guard_support.obj
 0002:00000280       __xc_a                     0000000180040280     LIBCMT:initializers.obj
 0002:00000290       _register_png_img_         0000000180040290     init.obj
 0002:00000298       __xc_z                     0000000180040298     LIBCMT:initializers.obj
 0002:000002a0       __xi_a                     00000001800402a0     LIBCMT:initializers.obj
 0002:000002a8       __acrt_stdio_initializer   00000001800402a8     libucrt:stdio_initializer.obj
 0002:000002b0       __acrt_multibyte_initializer 00000001800402b0     libucrt:multibyte_initializer.obj
 0002:000002b8       __acrt_tran_fma3_initializer 00000001800402b8     libucrt:fma3_initializer.obj
 0002:000002c0       __xi_z                     00000001800402c0     LIBCMT:initializers.obj
 0002:000002c8       __xp_a                     00000001800402c8     LIBCMT:initializers.obj
 0002:000002d0       __acrt_locale_terminator   00000001800402d0     libucrt:locale_initializer.obj
 0002:000002d8       __dcrt_console_output_terminator 00000001800402d8     libucrt:console_output_initializer.obj
 0002:000002e0       __acrt_stdio_terminator    00000001800402e0     libucrt:stdio_initializer.obj
 0002:000002e8       __xp_z                     00000001800402e8     LIBCMT:initializers.obj
 0002:000002f0       __xt_a                     00000001800402f0     LIBCMT:initializers.obj
 0002:000002f8       __xt_z                     00000001800402f8     LIBCMT:initializers.obj
 0002:00000300       __sz_node_exe              0000000180040300     node:node.exe
 0002:00000318       ??_7exception@std@@6B@     0000000180040318     libcpmt:xthrow.obj
 0002:00000328       ??_C@_0BC@EOODALEL@Unknown?5exception@ 0000000180040328     libcpmt:xthrow.obj
 0002:00000348       ??_7bad_alloc@std@@6B@     0000000180040348     libcpmt:xthrow.obj
 0002:00000358       ??_C@_0P@GHFPNOJB@bad?5allocation@ 0000000180040358     libcpmt:xthrow.obj
 0002:00000370       ??_7logic_error@std@@6B@   0000000180040370     libcpmt:xthrow.obj
 0002:00000388       ??_7invalid_argument@std@@6B@ 0000000180040388     libcpmt:xthrow.obj
 0002:000003a0       ??_7length_error@std@@6B@  00000001800403a0     libcpmt:xthrow.obj
 0002:000003b8       ??_7out_of_range@std@@6B@  00000001800403b8     libcpmt:xthrow.obj
 0002:000003d0       ??_7bad_function_call@std@@6B@ 00000001800403d0     libcpmt:xthrow.obj
 0002:000003e0       ??_C@_0BC@DPJNKNAF@bad?5function?5call@ 00000001800403e0     libcpmt:xthrow.obj
 0002:00000400       ??_7type_info@@6B@         0000000180040400     LIBCMT:std_type_info_static.obj
 0002:00000408       _pRawDllMain               0000000180040408     LIBCMT:dll_dllmain.obj
 0002:00000408       _pDefaultRawDllMain        0000000180040408     LIBCMT:dll_dllmain.obj
 0002:00000428       ??_7bad_array_new_length@std@@6B@ 0000000180040428     LIBCMT:throw_bad_alloc.obj
 0002:00000438       ??_C@_0BF@KINCDENJ@bad?5array?5new?5length@ 0000000180040438     LIBCMT:throw_bad_alloc.obj
 0002:000004e8       _pDestructExceptionObject  00000001800404e8     libvcruntime:ehhelpers.obj
 0002:00000538       ??_7bad_exception@std@@6B@ 0000000180040538     libvcruntime:frame.obj
 0002:00000548       ??_C@_0O@DPKOEFFH@bad?5exception@ 0000000180040548     libvcruntime:frame.obj
 0002:00000570       ??_C@_1DM@KHCHBNEB@?$AAa?$AAp?$AAi?$AA?9?$AAm?$AAs?$AA?9?$AAw?$AAi?$AAn?$AA?9?$AAc?$AAo?$AAr?$AAe@ 0000000180040570     libvcruntime:winapi_downlevel.obj
 0002:000005b0       ??_C@_1DK@LPPGFMPP@?$AAa?$AAp?$AAi?$AA?9?$AAm?$AAs?$AA?9?$AAw?$AAi?$AAn?$AA?9?$AAc?$AAo?$AAr?$AAe@ 00000001800405b0     libvcruntime:winapi_downlevel.obj
 0002:000005f0       ??_C@_1BC@GDMECMAK@?$AAk?$AAe?$AAr?$AAn?$AAe?$AAl?$AA3?$AA2@ 00000001800405f0     libvcruntime:winapi_downlevel.obj
 0002:00000608       ??_C@_1BA@PFFKHIOG@?$AAa?$AAp?$AAi?$AA?9?$AAm?$AAs?$AA?9@ 0000000180040608     libvcruntime:winapi_downlevel.obj
 0002:00000618       ??_C@_1BA@IAIFMGEF@?$AAe?$AAx?$AAt?$AA?9?$AAm?$AAs?$AA?9@ 0000000180040618     libvcruntime:winapi_downlevel.obj
 0002:00000630       ??_C@_08KNHFBNJ@FlsAlloc@  0000000180040630     libvcruntime:winapi_downlevel.obj
 0002:00000648       ??_C@_07PEJMOBNF@FlsFree@  0000000180040648     libvcruntime:winapi_downlevel.obj
 0002:00000658       ??_C@_0M@GDNOONDI@FlsGetValue@ 0000000180040658     libvcruntime:winapi_downlevel.obj
 0002:00000670       ??_C@_0M@JCPCPOEF@FlsSetValue@ 0000000180040670     libvcruntime:winapi_downlevel.obj
 0002:00000688       ??_C@_0BM@HCFOFFN@InitializeCriticalSectionEx@ 0000000180040688     libvcruntime:winapi_downlevel.obj
 0002:000009e8       ??_C@_08EHJDFFNH@__based?$CI@ 00000001800409e8     libvcruntime:undname.obj
 0002:000009f8       ??_C@_07KOLFKCDI@__cdecl@  00000001800409f8     libvcruntime:undname.obj
 0002:00000a00       ??_C@_08GHMPAG@__pascal@   0000000180040a00     libvcruntime:undname.obj
 0002:00000a10       ??_C@_09IFJBGAPI@__stdcall@ 0000000180040a10     libvcruntime:undname.obj
 0002:00000a20       ??_C@_0L@NPHFGOKO@__thiscall@ 0000000180040a20     libvcruntime:undname.obj
 0002:00000a30       ??_C@_0L@JMKHOMEK@__fastcall@ 0000000180040a30     libvcruntime:undname.obj
 0002:00000a40       ??_C@_0N@BCKKPABJ@__vectorcall@ 0000000180040a40     libvcruntime:undname.obj
 0002:00000a50       ??_C@_09HIJEGCPM@__clrcall@ 0000000180040a50     libvcruntime:undname.obj
 0002:00000a5c       ??_C@_06GHPCKEAG@__eabi@   0000000180040a5c     libvcruntime:undname.obj
 0002:00000a68       ??_C@_09IOPIDJLG@__swift_1@ 0000000180040a68     libvcruntime:undname.obj
 0002:00000a78       ??_C@_09KFNFGKHF@__swift_2@ 0000000180040a78     libvcruntime:undname.obj
 0002:00000a88       ??_C@_07JOMMBBKO@__ptr64@  0000000180040a88     libvcruntime:undname.obj
 0002:00000a90       ??_C@_0L@PILCLIHE@__restrict@ 0000000180040a90     libvcruntime:undname.obj
 0002:00000aa0       ??_C@_0M@GFIIJFMG@__unaligned@ 0000000180040aa0     libvcruntime:undname.obj
 0002:00000ab0       ??_C@_09DHDLOLLB@restrict?$CI@ 0000000180040ab0     libvcruntime:undname.obj
 0002:00000abc       ??_C@_04NIHEBCM@?5new@     0000000180040abc     libvcruntime:undname.obj
 0002:00000ac8       ??_C@_07FPCDHGMM@?5delete@ 0000000180040ac8     libvcruntime:undname.obj
 0002:00000ad0       ??_C@_01NEMOKFLO@?$DN@     0000000180040ad0     libvcruntime:undname.obj
 0002:00000ad4       ??_C@_02GPIOPFAK@?$DO?$DO@ 0000000180040ad4     libvcruntime:undname.obj
 0002:00000ad8       ??_C@_02FODMEDOG@?$DM?$DM@ 0000000180040ad8     libvcruntime:undname.obj
 0002:00000adc       ??_C@_01DCLJPIOD@?$CB@     0000000180040adc     libvcruntime:undname.obj
 0002:00000ae0       ??_C@_02EGOFBIJA@?$DN?$DN@ 0000000180040ae0     libvcruntime:undname.obj
 0002:00000ae4       ??_C@_02FDNJECIE@?$CB?$DN@ 0000000180040ae4     libvcruntime:undname.obj
 0002:00000ae8       ??_C@_02GPECMEKF@?$FL?$FN@ 0000000180040ae8     libvcruntime:undname.obj
 0002:00000af0       ??_C@_08LHJFAFGD@operator@ 0000000180040af0     libvcruntime:undname.obj
 0002:00000afc       ??_C@_02HBOOOICD@?9?$DO@   0000000180040afc     libvcruntime:undname.obj
 0002:00000b00       ??_C@_01NBENCBCI@?$CK@     0000000180040b00     libvcruntime:undname.obj
 0002:00000b04       ??_C@_02ECNGHCIF@?$CL?$CL@ 0000000180040b04     libvcruntime:undname.obj
 0002:00000b08       ??_C@_02BAABKJLB@?9?9@     0000000180040b08     libvcruntime:undname.obj
 0002:00000b0c       ??_C@_01JOAMLHOP@?9@       0000000180040b0c     libvcruntime:undname.obj
 0002:00000b10       ??_C@_01MIFGBAGJ@?$CL@     0000000180040b10     libvcruntime:undname.obj
 0002:00000b14       ??_C@_01HNPIGOCE@?$CG@     0000000180040b14     libvcruntime:undname.obj
 0002:00000b18       ??_C@_03MNHNFDLC@?9?$DO?$CK@ 0000000180040b18     libvcruntime:undname.obj
 0002:00000b1c       ??_C@_01KMDKNFGN@?1@       0000000180040b1c     libvcruntime:undname.obj
 0002:00000b20       ??_C@_01FGNFDNOH@?$CF@     0000000180040b20     libvcruntime:undname.obj
 0002:00000b24       ??_C@_01MNNFJEPP@?$DM@     0000000180040b24     libvcruntime:undname.obj
 0002:00000b28       ??_C@_02EHCHHCKH@?$DM?$DN@ 0000000180040b28     libvcruntime:undname.obj
 0002:00000b2c       ??_C@_01PPODPGHN@?$DO@     0000000180040b2c     libvcruntime:undname.obj
 0002:00000b30       ??_C@_02EEKDKGMJ@?$DO?$DN@ 0000000180040b30     libvcruntime:undname.obj
 0002:00000b34       ??_C@_01IHBHIGKO@?0@       0000000180040b34     libvcruntime:undname.obj
 0002:00000b38       ??_C@_02HCKGKOFO@?$CI?$CJ@ 0000000180040b38     libvcruntime:undname.obj
 0002:00000b3c       ??_C@_01PJKLJHI@?$HO@      0000000180040b3c     libvcruntime:undname.obj
 0002:00000b40       ??_C@_01JKBOJNNK@?$FO@     0000000180040b40     libvcruntime:undname.obj
 0002:00000b44       ??_C@_01DNKMNLPK@?$HM@     0000000180040b44     libvcruntime:undname.obj
 0002:00000b48       ??_C@_02PPKAJPJL@?$CG?$CG@ 0000000180040b48     libvcruntime:undname.obj
 0002:00000b4c       ??_C@_02NONPIBCD@?$HM?$HM@ 0000000180040b4c     libvcruntime:undname.obj
 0002:00000b50       ??_C@_02FPIMKNGF@?$CK?$DN@ 0000000180040b50     libvcruntime:undname.obj
 0002:00000b54       ??_C@_02FOEOMHFC@?$CL?$DN@ 0000000180040b54     libvcruntime:undname.obj
 0002:00000b58       ??_C@_02FKMDLLOA@?9?$DN@   0000000180040b58     libvcruntime:undname.obj
 0002:00000b5c       ??_C@_02FJEHGPIO@?1?$DN@   0000000180040b5c     libvcruntime:undname.obj
 0002:00000b60       ??_C@_02FENAOKFI@?$CF?$DN@ 0000000180040b60     libvcruntime:undname.obj
 0002:00000b64       ??_C@_03IKFCCPFF@?$DO?$DO?$DN@ 0000000180040b64     libvcruntime:undname.obj
 0002:00000b68       ??_C@_03CDNPDDLA@?$DM?$DM?$DN@ 0000000180040b68     libvcruntime:undname.obj
 0002:00000b6c       ??_C@_02FGJGFEAB@?$CG?$DN@ 0000000180040b6c     libvcruntime:undname.obj
 0002:00000b70       ??_C@_02DHLNPPGH@?$HM?$DN@ 0000000180040b70     libvcruntime:undname.obj
 0002:00000b74       ??_C@_02MHEGNOJ@?$FO?$DN@  0000000180040b74     libvcruntime:undname.obj
 0002:00000b78       ??_C@_09IFPLHPGF@?$GAvftable?8@ 0000000180040b78     libvcruntime:undname.obj
 0002:00000b88       ??_C@_09BLBHBJP@?$GAvbtable?8@ 0000000180040b88     libvcruntime:undname.obj
 0002:00000b98       ??_C@_07FEEIOKP@?$GAvcall?8@ 0000000180040b98     libvcruntime:undname.obj
 0002:00000ba0       ??_C@_08LLFFHHDJ@?$GAtypeof?8@ 0000000180040ba0     libvcruntime:undname.obj
 0002:00000bb0       ??_C@_0BF@KDPPACIK@?$GAlocal?5static?5guard?8@ 0000000180040bb0     libvcruntime:undname.obj
 0002:00000bc8       ??_C@_08OBABFOLI@?$GAstring?8@ 0000000180040bc8     libvcruntime:undname.obj
 0002:00000bd8       ??_C@_0BD@JDLKDPAB@?$GAvbase?5destructor?8@ 0000000180040bd8     libvcruntime:undname.obj
 0002:00000bf0       ??_C@_0BN@DEGPLNFK@?$GAvector?5deleting?5destructor?8@ 0000000180040bf0     libvcruntime:undname.obj
 0002:00000c10       ??_C@_0BO@OBMKPJIG@?$GAdefault?5constructor?5closure?8@ 0000000180040c10     libvcruntime:undname.obj
 0002:00000c30       ??_C@_0BN@IMDCHIKM@?$GAscalar?5deleting?5destructor?8@ 0000000180040c30     libvcruntime:undname.obj
 0002:00000c50       ??_C@_0BO@PFGOCPJJ@?$GAvector?5constructor?5iterator?8@ 0000000180040c50     libvcruntime:undname.obj
 0002:00000c70       ??_C@_0BN@LFPFMEDL@?$GAvector?5destructor?5iterator?8@ 0000000180040c70     libvcruntime:undname.obj
 0002:00000c90       ??_C@_0CE@IKBNEHA@?$GAvector?5vbase?5constructor?5itera@ 0000000180040c90     libvcruntime:undname.obj
 0002:00000cb8       ??_C@_0BL@NILFHHPC@?$GAvirtual?5displacement?5map?8@ 0000000180040cb8     libvcruntime:undname.obj
 0002:00000cd8       ??_C@_0CB@JONCMFFK@?$GAeh?5vector?5constructor?5iterator@ 0000000180040cd8     libvcruntime:undname.obj
 0002:00000d00       ??_C@_0CA@GCEOPDGL@?$GAeh?5vector?5destructor?5iterator?8@ 0000000180040d00     libvcruntime:undname.obj
 0002:00000d20       ??_C@_0CH@OOJPLCPH@?$GAeh?5vector?5vbase?5constructor?5it@ 0000000180040d20     libvcruntime:undname.obj
 0002:00000d48       ??_C@_0BL@LLKPOHJI@?$GAcopy?5constructor?5closure?8@ 0000000180040d48     libvcruntime:undname.obj
 0002:00000d68       ??_C@_0BA@KBCDOMBN@?$GAudt?5returning?8@ 0000000180040d68     libvcruntime:undname.obj
 0002:00000d78       ??_C@_03KLGMFNMG@?$GAEH@   0000000180040d78     libvcruntime:undname.obj
 0002:00000d7c       ??_C@_05KHLCHHI@?$GARTTI@  0000000180040d7c     libvcruntime:undname.obj
 0002:00000d88       ??_C@_0BA@KKLDJDLB@?$GAlocal?5vftable?8@ 0000000180040d88     libvcruntime:undname.obj
 0002:00000d98       ??_C@_0CE@IIHCMGGL@?$GAlocal?5vftable?5constructor?5clos@ 0000000180040d98     libvcruntime:undname.obj
 0002:00000dbc       ??_C@_06FHBGPFGH@?5new?$FL?$FN@ 0000000180040dbc     libvcruntime:undname.obj
 0002:00000dc8       ??_C@_09LBNFPBCA@?5delete?$FL?$FN@ 0000000180040dc8     libvcruntime:undname.obj
 0002:00000dd8       ??_C@_0P@HJKNJFNN@?$GAomni?5callsig?8@ 0000000180040dd8     libvcruntime:undname.obj
 0002:00000de8       ??_C@_0BL@CNOONJFP@?$GAplacement?5delete?5closure?8@ 0000000180040de8     libvcruntime:undname.obj
 0002:00000e08       ??_C@_0BN@CKNJLHMB@?$GAplacement?5delete?$FL?$FN?5closure?8@ 0000000180040e08     libvcruntime:undname.obj
 0002:00000e28       ??_C@_0CG@CFDHKGGD@?$GAmanaged?5vector?5constructor?5ite@ 0000000180040e28     libvcruntime:undname.obj
 0002:00000e50       ??_C@_0CF@IMGKMJNO@?$GAmanaged?5vector?5destructor?5iter@ 0000000180040e50     libvcruntime:undname.obj
 0002:00000e78       ??_C@_0CG@HLDDJMAG@?$GAeh?5vector?5copy?5constructor?5ite@ 0000000180040e78     libvcruntime:undname.obj
 0002:00000ea0       ??_C@_0CM@FCBBDIGB@?$GAeh?5vector?5vbase?5copy?5construct@ 0000000180040ea0     libvcruntime:undname.obj
 0002:00000ed0       ??_C@_0BL@CLIPGLGB@?$GAdynamic?5initializer?5for?5?8@ 0000000180040ed0     libvcruntime:undname.obj
 0002:00000ef0       ??_C@_0CB@PDBIFEP@?$GAdynamic?5atexit?5destructor?5for?5@ 0000000180040ef0     libvcruntime:undname.obj
 0002:00000f18       ??_C@_0CD@CGAJBKEJ@?$GAvector?5copy?5constructor?5iterat@ 0000000180040f18     libvcruntime:undname.obj
 0002:00000f40       ??_C@_0CJ@GJELGAMM@?$GAvector?5vbase?5copy?5constructor?5@ 0000000180040f40     libvcruntime:undname.obj
 0002:00000f70       ??_C@_0CL@FGIJHLCE@?$GAmanaged?5vector?5copy?5constructo@ 0000000180040f70     libvcruntime:undname.obj
 0002:00000fa0       ??_C@_0BM@PMGGMLDN@?$GAlocal?5static?5thread?5guard?8@ 0000000180040fa0     libvcruntime:undname.obj
 0002:00000fc0       ??_C@_0N@BDNMDMOL@operator?5?$CC?$CC?5@ 0000000180040fc0     libvcruntime:undname.obj
 0002:00000fd0       ??_C@_0BC@GGEBGALA@operator?5co_await@ 0000000180040fd0     libvcruntime:undname.obj
 0002:00000fe8       ??_C@_0BC@DAFEJGAK@?5Type?5Descriptor?8@ 0000000180040fe8     libvcruntime:undname.obj
 0002:00001000       ??_C@_0BM@LDKODKLH@?5Base?5Class?5Descriptor?5at?5?$CI@ 0000000180041000     libvcruntime:undname.obj
 0002:00001020       ??_C@_0BD@LGICGFMM@?5Base?5Class?5Array?8@ 0000000180041020     libvcruntime:undname.obj
 0002:00001038       ??_C@_0BN@MECKDCOJ@?5Class?5Hierarchy?5Descriptor?8@ 0000000180041038     libvcruntime:undname.obj
 0002:00001058       ??_C@_0BK@CFCOFLF@?5Complete?5Object?5Locator?8@ 0000000180041058     libvcruntime:undname.obj
 0002:000011e0       ??_C@_1FE@LHBLIKM@?$AAA?$AAs?$AAs?$AAe?$AAr?$AAt?$AAi?$AAo?$AAn?$AA?5?$AAf?$AAa?$AAi?$AAl?$AAe?$AAd?$AA?3?$AA?5?$AA?$CF?$AAT?$AAs?$AA?0?$AA?5?$AAf?$AAi?$AAl?$AAe?$AA?5?$AA?$CF?$AAT?$AAs?$AA?0@ 00000001800411e0     libucrt:assert.obj
 0002:00001240       ??_C@_1EK@MBDPDCGA@?$AAM?$AAi?$AAc?$AAr?$AAo?$AAs?$AAo?$AAf?$AAt?$AA?5?$AAV?$AAi?$AAs?$AAu?$AAa?$AAl?$AA?5?$AAC?$AA?$CL?$AA?$CL?$AA?5?$AAR?$AAu?$AAn?$AAt?$AAi?$AAm?$AAe?$AA?5?$AAL?$AAi?$AAb@ 0000000180041240     libucrt:assert.obj
 0002:00001290       ??_C@_1CE@OJBNHDMO@?$AAA?$AAs?$AAs?$AAe?$AAr?$AAt?$AAi?$AAo?$AAn?$AA?5?$AAf?$AAa?$AAi?$AAl?$AAe?$AAd?$AA?$CB?$AA?$AA@ 0000000180041290     libucrt:assert.obj
 0002:000012b8       ??_C@_1BE@PHKBBGE@?$AAP?$AAr?$AAo?$AAg?$AAr?$AAa?$AAm?$AA?3?$AA?5?$AA?$AA@ 00000001800412b8     libucrt:assert.obj
 0002:000012d0       ??_C@_1O@HEMHKNDC@?$AAF?$AAi?$AAl?$AAe?$AA?3?$AA?5?$AA?$AA@ 00000001800412d0     libucrt:assert.obj
 0002:000012e0       ??_C@_1O@KCAFKHJE@?$AAL?$AAi?$AAn?$AAe?$AA?3?$AA?5?$AA?$AA@ 00000001800412e0     libucrt:assert.obj
 0002:000012f0       ??_C@_1BK@PEDCIPMA@?$AAE?$AAx?$AAp?$AAr?$AAe?$AAs?$AAs?$AAi?$AAo?$AAn?$AA?3?$AA?5?$AA?$AA@ 00000001800412f0     libucrt:assert.obj
 0002:00001310       ??_C@_1OA@EGMLFBHJ@?$AAF?$AAo?$AAr?$AA?5?$AAi?$AAn?$AAf?$AAo?$AAr?$AAm?$AAa?$AAt?$AAi?$AAo?$AAn?$AA?5?$AAo?$AAn?$AA?5?$AAh?$AAo?$AAw?$AA?5?$AAy?$AAo?$AAu?$AAr?$AA?5?$AAp?$AAr?$AAo?$AAg@ 0000000180041310     libucrt:assert.obj
 0002:000013f0       ??_C@_1HK@POCJMFGK@?$AA?$CI?$AAP?$AAr?$AAe?$AAs?$AAs?$AA?5?$AAR?$AAe?$AAt?$AAr?$AAy?$AA?5?$AAt?$AAo?$AA?5?$AAd?$AAe?$AAb?$AAu?$AAg?$AA?5?$AAt?$AAh?$AAe?$AA?5?$AAa?$AAp?$AAp?$AAl?$AAi?$AAc@ 00000001800413f0     libucrt:assert.obj
 0002:00001470       ??_C@_17LGKOMLJ@?$AA?4?$AA?4?$AA?4?$AA?$AA@ 0000000180041470     libucrt:assert.obj
 0002:00001478       ??_C@_13LBAGMAIH@?$AA?6?$AA?$AA@ 0000000180041478     libucrt:assert.obj
 0002:0000147c       ??_C@_15IABLJNFO@?$AA?6?$AA?6?$AA?$AA@ 000000018004147c     libucrt:assert.obj
 0002:00001488       ??_C@_1CO@EAEJAADC@?$AA?$DM?$AAp?$AAr?$AAo?$AAg?$AAr?$AAa?$AAm?$AA?5?$AAn?$AAa?$AAm?$AAe?$AA?5?$AAu?$AAn?$AAk?$AAn?$AAo?$AAw?$AAn?$AA?$DO?$AA?$AA@ 0000000180041488     libucrt:assert.obj
 0002:000014b8       __real@3ff0000000000000    00000001800414b8     libucrt:frexp.obj
 0002:000014c0       ?large_power_data@?1??multiply_by_power_of_ten@__crt_strtox@@YA_NAEAUbig_integer@2@I@Z@4QBIB 00000001800414c0     libucrt:atof.obj
 0002:00001dd0       ?large_power_indices@?1??multiply_by_power_of_ten@__crt_strtox@@YA_NAEAUbig_integer@2@I@Z@4QBUunpack_index@?1??12@YA_N0I@Z@B 0000000180041dd0     libucrt:atof.obj
 0002:00001e68       ?small_powers_of_ten@?1??multiply_by_power_of_ten@__crt_strtox@@YA_NAEAUbig_integer@2@I@Z@4QBIB 0000000180041e68     libucrt:atof.obj
 0002:00001e90       standard_lookup_table      0000000180041e90     libucrt:output.obj
 0002:00001ef0       ??_C@_1O@CEDCILHN@?$AA?$CI?$AAn?$AAu?$AAl?$AAl?$AA?$CJ?$AA?$AA@ 0000000180041ef0     libucrt:output.obj
 0002:00001f00       ??_C@_06OJHGLDPL@?$CInull?$CJ?$AA@ 0000000180041f00     libucrt:output.obj
 0002:00001f10       __acrt_exception_action_table 0000000180041f10     libucrt:exception_filter.obj
 0002:00001fd0       __acrt_signal_action_table_count 0000000180041fd0     libucrt:exception_filter.obj
 0002:00001fd8       __acrt_signal_action_first_fpe_index 0000000180041fd8     libucrt:exception_filter.obj
 0002:00001fe0       __acrt_signal_action_fpe_count 0000000180041fe0     libucrt:exception_filter.obj
 0002:00001fe8       ??_C@_1BI@BGOHAHKC@?$AAm?$AAs?$AAc?$AAo?$AAr?$AAe?$AAe?$AA?4?$AAd?$AAl?$AAl?$AA?$AA@ 0000000180041fe8     libucrt:exit.obj
 0002:00002000       ??_C@_0P@MIGLKIOC@CorExitProcess?$AA@ 0000000180042000     libucrt:exit.obj
 0002:00002110       __newctype                 0000000180042110     libucrt:ctype.obj
 0002:00002410       __newclmap                 0000000180042410     libucrt:ctype.obj
 0002:00002590       __newcumap                 0000000180042590     libucrt:ctype.obj
 0002:00002710       _wctype                    0000000180042710     libucrt:ctype.obj
 0002:00002920       __lc_time_c                0000000180042920     libucrt:nlsdata.obj
 0002:00002be0       ??_C@_03KOEHGMDN@Sun?$AA@  0000000180042be0     libucrt:nlsdata.obj
 0002:00002be4       ??_C@_03PDAGKDH@Mon?$AA@   0000000180042be4     libucrt:nlsdata.obj
 0002:00002be8       ??_C@_03NAGEINEP@Tue?$AA@  0000000180042be8     libucrt:nlsdata.obj
 0002:00002bec       ??_C@_03MHOMLAJA@Wed?$AA@  0000000180042bec     libucrt:nlsdata.obj
 0002:00002bf0       ??_C@_03IOFIKPDN@Thu?$AA@  0000000180042bf0     libucrt:nlsdata.obj
 0002:00002bf4       ??_C@_03IDIOELNC@Fri?$AA@  0000000180042bf4     libucrt:nlsdata.obj
 0002:00002bf8       ??_C@_03FEFJNEK@Sat?$AA@   0000000180042bf8     libucrt:nlsdata.obj
 0002:00002bfc       ??_C@_06OOPIFAJ@Sunday?$AA@ 0000000180042bfc     libucrt:nlsdata.obj
 0002:00002c04       ??_C@_06JLEDEDGH@Monday?$AA@ 0000000180042c04     libucrt:nlsdata.obj
 0002:00002c10       ??_C@_07BAAGCFCM@Tuesday?$AA@ 0000000180042c10     libucrt:nlsdata.obj
 0002:00002c18       ??_C@_09DLIGFAKA@Wednesday?$AA@ 0000000180042c18     libucrt:nlsdata.obj
 0002:00002c28       ??_C@_08HACCIKIA@Thursday?$AA@ 0000000180042c28     libucrt:nlsdata.obj
 0002:00002c34       ??_C@_06JECMNKMI@Friday?$AA@ 0000000180042c34     libucrt:nlsdata.obj
 0002:00002c40       ??_C@_08INBOOONO@Saturday?$AA@ 0000000180042c40     libucrt:nlsdata.obj
 0002:00002c4c       ??_C@_03JIHJHPIE@Jan?$AA@  0000000180042c4c     libucrt:nlsdata.obj
 0002:00002c50       ??_C@_03HJBDCHOM@Feb?$AA@  0000000180042c50     libucrt:nlsdata.obj
 0002:00002c54       ??_C@_03ODNJBKGA@Mar?$AA@  0000000180042c54     libucrt:nlsdata.obj
 0002:00002c58       ??_C@_03LEOLGMJP@Apr?$AA@  0000000180042c58     libucrt:nlsdata.obj
 0002:00002c5c       ??_C@_03CNMDKL@May?$AA@    0000000180042c5c     libucrt:nlsdata.obj
 0002:00002c60       ??_C@_03IDFGHECI@Jun?$AA@  0000000180042c60     libucrt:nlsdata.obj
 0002:00002c64       ??_C@_03LBGABGKK@Jul?$AA@  0000000180042c64     libucrt:nlsdata.obj
 0002:00002c68       ??_C@_03IFJFEIGA@Aug?$AA@  0000000180042c68     libucrt:nlsdata.obj
 0002:00002c6c       ??_C@_03GGCAPAJC@Sep?$AA@  0000000180042c6c     libucrt:nlsdata.obj
 0002:00002c70       ??_C@_03BMAOKBAD@Oct?$AA@  0000000180042c70     libucrt:nlsdata.obj
 0002:00002c74       ??_C@_03JPJOFNIA@Nov?$AA@  0000000180042c74     libucrt:nlsdata.obj
 0002:00002c78       ??_C@_03MKABNOCG@Dec?$AA@  0000000180042c78     libucrt:nlsdata.obj
 0002:00002c80       ??_C@_07CGJPFGJA@January?$AA@ 0000000180042c80     libucrt:nlsdata.obj
 0002:00002c88       ??_C@_08GNJGEPFN@February?$AA@ 0000000180042c88     libucrt:nlsdata.obj
 0002:00002c94       ??_C@_05HPCKOFNC@March?$AA@ 0000000180042c94     libucrt:nlsdata.obj
 0002:00002c9c       ??_C@_05DMJDNLEJ@April?$AA@ 0000000180042c9c     libucrt:nlsdata.obj
 0002:00002ca4       ??_C@_04CNLMGBGM@June?$AA@ 0000000180042ca4     libucrt:nlsdata.obj
 0002:00002cac       ??_C@_04MIEPOIFP@July?$AA@ 0000000180042cac     libucrt:nlsdata.obj
 0002:00002cb4       ??_C@_06LBBHFDDG@August?$AA@ 0000000180042cb4     libucrt:nlsdata.obj
 0002:00002cc0       ??_C@_09BHHEALKD@September?$AA@ 0000000180042cc0     libucrt:nlsdata.obj
 0002:00002cd0       ??_C@_07JJNFCEND@October?$AA@ 0000000180042cd0     libucrt:nlsdata.obj
 0002:00002cd8       ??_C@_08HCHEGEOA@November?$AA@ 0000000180042cd8     libucrt:nlsdata.obj
 0002:00002ce8       ??_C@_08EDHMEBNP@December?$AA@ 0000000180042ce8     libucrt:nlsdata.obj
 0002:00002cf4       ??_C@_02DEDBPAFC@AM?$AA@   0000000180042cf4     libucrt:nlsdata.obj
 0002:00002cf8       ??_C@_02CJNFDJBF@PM?$AA@   0000000180042cf8     libucrt:nlsdata.obj
 0002:00002d00       ??_C@_08BPBNCDIB@MM?1dd?1yy?$AA@ 0000000180042d00     libucrt:nlsdata.obj
 0002:00002d10       ??_C@_0BE@CKGJFCPC@dddd?0?5MMMM?5dd?0?5yyyy?$AA@ 0000000180042d10     libucrt:nlsdata.obj
 0002:00002d28       ??_C@_08JCCMCCIL@HH?3mm?3ss?$AA@ 0000000180042d28     libucrt:nlsdata.obj
 0002:00002d38       ??_C@_17MBGCMIPB@?$AAS?$AAu?$AAn?$AA?$AA@ 0000000180042d38     libucrt:nlsdata.obj
 0002:00002d40       ??_C@_17KBOMKBF@?$AAM?$AAo?$AAn?$AA?$AA@ 0000000180042d40     libucrt:nlsdata.obj
 0002:00002d48       ??_C@_17BMKGEGOJ@?$AAT?$AAu?$AAe?$AA?$AA@ 0000000180042d48     libucrt:nlsdata.obj
 0002:00002d50       ??_C@_17CJEDCEPE@?$AAW?$AAe?$AAd?$AA?$AA@ 0000000180042d50     libucrt:nlsdata.obj
 0002:00002d58       ??_C@_17PDPHAADD@?$AAT?$AAh?$AAu?$AA?$AA@ 0000000180042d58     libucrt:nlsdata.obj
 0002:00002d60       ??_C@_17HFOLPPLP@?$AAF?$AAr?$AAi?$AA?$AA@ 0000000180042d60     libucrt:nlsdata.obj
 0002:00002d68       ??_C@_17GGIBDPIH@?$AAS?$AAa?$AAt?$AA?$AA@ 0000000180042d68     libucrt:nlsdata.obj
 0002:00002d70       ??_C@_1O@IHNHDHPB@?$AAS?$AAu?$AAn?$AAd?$AAa?$AAy?$AA?$AA@ 0000000180042d70     libucrt:nlsdata.obj
 0002:00002d80       ??_C@_1O@MMNBFLIA@?$AAM?$AAo?$AAn?$AAd?$AAa?$AAy?$AA?$AA@ 0000000180042d80     libucrt:nlsdata.obj
 0002:00002d90       ??_C@_1BA@ENFBFFEK@?$AAT?$AAu?$AAe?$AAs?$AAd?$AAa?$AAy?$AA?$AA@ 0000000180042d90     libucrt:nlsdata.obj
 0002:00002da0       ??_C@_1BE@EBOGMDOH@?$AAW?$AAe?$AAd?$AAn?$AAe?$AAs?$AAd?$AAa?$AAy?$AA?$AA@ 0000000180042da0     libucrt:nlsdata.obj
 0002:00002db8       ??_C@_1BC@HHMNLIHE@?$AAT?$AAh?$AAu?$AAr?$AAs?$AAd?$AAa?$AAy?$AA?$AA@ 0000000180042db8     libucrt:nlsdata.obj
 0002:00002dd0       ??_C@_1O@PDICJHAG@?$AAF?$AAr?$AAi?$AAd?$AAa?$AAy?$AA?$AA@ 0000000180042dd0     libucrt:nlsdata.obj
 0002:00002de0       ??_C@_1BC@ENMNNPAJ@?$AAS?$AAa?$AAt?$AAu?$AAr?$AAd?$AAa?$AAy?$AA?$AA@ 0000000180042de0     libucrt:nlsdata.obj
 0002:00002df8       ??_C@_17DKNBKCHM@?$AAJ?$AAa?$AAn?$AA?$AA@ 0000000180042df8     libucrt:nlsdata.obj
 0002:00002e00       ??_C@_17LMDJEKJN@?$AAF?$AAe?$AAb?$AA?$AA@ 0000000180042e00     libucrt:nlsdata.obj
 0002:00002e08       ??_C@_17CKNLEDEC@?$AAM?$AAa?$AAr?$AA?$AA@ 0000000180042e08     libucrt:nlsdata.obj
 0002:00002e10       ??_C@_17LFPOIHDD@?$AAA?$AAp?$AAr?$AA?$AA@ 0000000180042e10     libucrt:nlsdata.obj
 0002:00002e18       ??_C@_17PNNKMEED@?$AAM?$AAa?$AAy?$AA?$AA@ 0000000180042e18     libucrt:nlsdata.obj
 0002:00002e20       ??_C@_17KCJGOCPB@?$AAJ?$AAu?$AAn?$AA?$AA@ 0000000180042e20     libucrt:nlsdata.obj
 0002:00002e28       ??_C@_17IJPCKHK@?$AAJ?$AAu?$AAl?$AA?$AA@ 0000000180042e28     libucrt:nlsdata.obj
 0002:00002e30       ??_C@_17ICPELBCN@?$AAA?$AAu?$AAg?$AA?$AA@ 0000000180042e30     libucrt:nlsdata.obj
 0002:00002e38       ??_C@_17HCHCOKMG@?$AAS?$AAe?$AAp?$AA?$AA@ 0000000180042e38     libucrt:nlsdata.obj
 0002:00002e40       ??_C@_17FNLKOI@?$AAO?$AAc?$AAt?$AA?$AA@ 0000000180042e40     libucrt:nlsdata.obj
 0002:00002e48       ??_C@_17BBDMLCIG@?$AAN?$AAo?$AAv?$AA?$AA@ 0000000180042e48     libucrt:nlsdata.obj
 0002:00002e50       ??_C@_17EGKACKIF@?$AAD?$AAe?$AAc?$AA?$AA@ 0000000180042e50     libucrt:nlsdata.obj
 0002:00002e58       ??_C@_1BA@EFMEIEBA@?$AAJ?$AAa?$AAn?$AAu?$AAa?$AAr?$AAy?$AA?$AA@ 0000000180042e58     libucrt:nlsdata.obj
 0002:00002e68       ??_C@_1BC@JGDDFFAM@?$AAF?$AAe?$AAb?$AAr?$AAu?$AAa?$AAr?$AAy?$AA?$AA@ 0000000180042e68     libucrt:nlsdata.obj
 0002:00002e80       ??_C@_1M@IKEENEDF@?$AAM?$AAa?$AAr?$AAc?$AAh?$AA?$AA@ 0000000180042e80     libucrt:nlsdata.obj
 0002:00002e90       ??_C@_1M@GJNLMHFD@?$AAA?$AAp?$AAr?$AAi?$AAl?$AA?$AA@ 0000000180042e90     libucrt:nlsdata.obj
 0002:00002ea0       ??_C@_19EPFLPGAP@?$AAJ?$AAu?$AAn?$AAe?$AA?$AA@ 0000000180042ea0     libucrt:nlsdata.obj
 0002:00002eb0       ??_C@_19BIFMLPCD@?$AAJ?$AAu?$AAl?$AAy?$AA?$AA@ 0000000180042eb0     libucrt:nlsdata.obj
 0002:00002ec0       ??_C@_1O@PAHLKOAC@?$AAA?$AAu?$AAg?$AAu?$AAs?$AAt?$AA?$AA@ 0000000180042ec0     libucrt:nlsdata.obj
 0002:00002ed0       ??_C@_1BE@DKAAMBJL@?$AAS?$AAe?$AAp?$AAt?$AAe?$AAm?$AAb?$AAe?$AAr?$AA?$AA@ 0000000180042ed0     libucrt:nlsdata.obj
 0002:00002ee8       ??_C@_1BA@EPANDLNG@?$AAO?$AAc?$AAt?$AAo?$AAb?$AAe?$AAr?$AA?$AA@ 0000000180042ee8     libucrt:nlsdata.obj
 0002:00002ef8       ??_C@_1BC@BGLIFPF@?$AAN?$AAo?$AAv?$AAe?$AAm?$AAb?$AAe?$AAr?$AA?$AA@ 0000000180042ef8     libucrt:nlsdata.obj
 0002:00002f10       ??_C@_1BC@FEMKIFH@?$AAD?$AAe?$AAc?$AAe?$AAm?$AAb?$AAe?$AAr?$AA?$AA@ 0000000180042f10     libucrt:nlsdata.obj
 0002:00002f24       ??_C@_15ODEHAHHF@?$AAA?$AAM?$AA?$AA@ 0000000180042f24     libucrt:nlsdata.obj
 0002:00002f2c       ??_C@_15CLMNNGEL@?$AAP?$AAM?$AA?$AA@ 0000000180042f2c     libucrt:nlsdata.obj
 0002:00002f38       ??_C@_1BC@IEBCMHCM@?$AAM?$AAM?$AA?1?$AAd?$AAd?$AA?1?$AAy?$AAy?$AA?$AA@ 0000000180042f38     libucrt:nlsdata.obj
 0002:00002f50       ??_C@_1CI@KNAKOEBC@?$AAd?$AAd?$AAd?$AAd?$AA?0?$AA?5?$AAM?$AAM?$AAM?$AAM?$AA?5?$AAd?$AAd?$AA?0?$AA?5?$AAy?$AAy?$AAy?$AAy?$AA?$AA@ 0000000180042f50     libucrt:nlsdata.obj
 0002:00002f78       ??_C@_1BC@GDGBMEMK@?$AAH?$AAH?$AA?3?$AAm?$AAm?$AA?3?$AAs?$AAs?$AA?$AA@ 0000000180042f78     libucrt:nlsdata.obj
 0002:00002f90       ??_C@_1M@BMHNFIME@?$AAe?$AAn?$AA?9?$AAU?$AAS?$AA?$AA@ 0000000180042f90     libucrt:nlsdata.obj
 0002:00002f9c       ?ccs@?1???$__acrt_stdio_parse_mode@D@@YA?AU__acrt_stdio_stream_mode@@QEBD@Z@4QBDB 0000000180042f9c     libucrt:openfile.obj
 0002:00002fa0       ?utf8_encoding@?1???$__acrt_stdio_parse_mode@D@@YA?AU__acrt_stdio_stream_mode@@QEBD@Z@4QBDB 0000000180042fa0     libucrt:openfile.obj
 0002:00002fa8       ?utf16_encoding@?1???$__acrt_stdio_parse_mode@D@@YA?AU__acrt_stdio_stream_mode@@QEBD@Z@4QBDB 0000000180042fa8     libucrt:openfile.obj
 0002:00002fb0       ?unicode_encoding@?1???$__acrt_stdio_parse_mode@D@@YA?AU__acrt_stdio_stream_mode@@QEBD@Z@4QBDB 0000000180042fb0     libucrt:openfile.obj
 0002:00002fb8       ??_C@_03JGHBODFD@pow?$AA@  0000000180042fb8     libucrt:fpexcept.obj
 0002:00002fbc       ??_C@_05HGHHAHAP@log10?$AA@ 0000000180042fbc     libucrt:fpexcept.obj
 0002:00003070       ??_C@_1EA@JGEFHKEI@?$AAa?$AAp?$AAi?$AA?9?$AAm?$AAs?$AA?9?$AAw?$AAi?$AAn?$AA?9?$AAc?$AAo?$AAr?$AAe?$AA?9?$AAd?$AAa?$AAt?$AAe?$AAt?$AAi?$AAm?$AAe?$AA?9?$AAl?$AA1?$AA?9?$AA1?$AA?9?$AA1?$AA?$AA@ 0000000180043070     libucrt:winapi_thunks.obj
 0002:000030b0       ??_C@_1DM@KHCHBNEB@?$AAa?$AAp?$AAi?$AA?9?$AAm?$AAs?$AA?9?$AAw?$AAi?$AAn?$AA?9?$AAc?$AAo?$AAr?$AAe?$AA?9?$AAf?$AAi?$AAb?$AAe?$AAr?$AAs?$AA?9?$AAl?$AA1?$AA?9?$AA1?$AA?9?$AA1?$AA?$AA@ 00000001800430b0     libucrt:winapi_thunks.obj
 0002:000030f0       ??_C@_1DI@IJCEHOCB@?$AAa?$AAp?$AAi?$AA?9?$AAm?$AAs?$AA?9?$AAw?$AAi?$AAn?$AA?9?$AAc?$AAo?$AAr?$AAe?$AA?9?$AAf?$AAi?$AAl?$AAe?$AA?9?$AAl?$AA1?$AA?9?$AA2?$AA?9?$AA2?$AA?$AA@ 00000001800430f0     libucrt:winapi_thunks.obj
 0002:00003130       ??_C@_1EI@MPIAOHOC@?$AAa?$AAp?$AAi?$AA?9?$AAm?$AAs?$AA?9?$AAw?$AAi?$AAn?$AA?9?$AAc?$AAo?$AAr?$AAe?$AA?9?$AAl?$AAo?$AAc?$AAa?$AAl?$AAi?$AAz?$AAa?$AAt?$AAi?$AAo?$AAn?$AA?9?$AAl?$AA1?$AA?9@ 0000000180043130     libucrt:winapi_thunks.obj
 0002:00003180       ??_C@_1FK@FPHCKFIE@?$AAa?$AAp?$AAi?$AA?9?$AAm?$AAs?$AA?9?$AAw?$AAi?$AAn?$AA?9?$AAc?$AAo?$AAr?$AAe?$AA?9?$AAl?$AAo?$AAc?$AAa?$AAl?$AAi?$AAz?$AAa?$AAt?$AAi?$AAo?$AAn?$AA?9?$AAo?$AAb?$AAs@ 0000000180043180     libucrt:winapi_thunks.obj
 0002:000031e0       ??_C@_1EM@DILCGIIO@?$AAa?$AAp?$AAi?$AA?9?$AAm?$AAs?$AA?9?$AAw?$AAi?$AAn?$AA?9?$AAc?$AAo?$AAr?$AAe?$AA?9?$AAp?$AAr?$AAo?$AAc?$AAe?$AAs?$AAs?$AAt?$AAh?$AAr?$AAe?$AAa?$AAd?$AAs?$AA?9?$AAl@ 00000001800431e0     libucrt:winapi_thunks.obj
 0002:00003230       ??_C@_1DM@LNCGDDPN@?$AAa?$AAp?$AAi?$AA?9?$AAm?$AAs?$AA?9?$AAw?$AAi?$AAn?$AA?9?$AAc?$AAo?$AAr?$AAe?$AA?9?$AAs?$AAt?$AAr?$AAi?$AAn?$AAg?$AA?9?$AAl?$AA1?$AA?9?$AA1?$AA?9?$AA0?$AA?$AA@ 0000000180043230     libucrt:winapi_thunks.obj
 0002:00003270       ??_C@_1DK@LPPGFMPP@?$AAa?$AAp?$AAi?$AA?9?$AAm?$AAs?$AA?9?$AAw?$AAi?$AAn?$AA?9?$AAc?$AAo?$AAr?$AAe?$AA?9?$AAs?$AAy?$AAn?$AAc?$AAh?$AA?9?$AAl?$AA1?$AA?9?$AA2?$AA?9?$AA0?$AA?$AA@ 0000000180043270     libucrt:winapi_thunks.obj
 0002:000032b0       ??_C@_1DO@FPAPJEMD@?$AAa?$AAp?$AAi?$AA?9?$AAm?$AAs?$AA?9?$AAw?$AAi?$AAn?$AA?9?$AAc?$AAo?$AAr?$AAe?$AA?9?$AAs?$AAy?$AAs?$AAi?$AAn?$AAf?$AAo?$AA?9?$AAl?$AA1?$AA?9?$AA2?$AA?9?$AA1?$AA?$AA@ 00000001800432b0     libucrt:winapi_thunks.obj
 0002:000032f0       ??_C@_1DK@NDHNAHIO@?$AAa?$AAp?$AAi?$AA?9?$AAm?$AAs?$AA?9?$AAw?$AAi?$AAn?$AA?9?$AAc?$AAo?$AAr?$AAe?$AA?9?$AAw?$AAi?$AAn?$AAr?$AAt?$AA?9?$AAl?$AA1?$AA?9?$AA1?$AA?9?$AA0?$AA?$AA@ 00000001800432f0     libucrt:winapi_thunks.obj
 0002:00003330       ??_C@_1DM@KGHDGBCM@?$AAa?$AAp?$AAi?$AA?9?$AAm?$AAs?$AA?9?$AAw?$AAi?$AAn?$AA?9?$AAc?$AAo?$AAr?$AAe?$AA?9?$AAx?$AAs?$AAt?$AAa?$AAt?$AAe?$AA?9?$AAl?$AA2?$AA?9?$AA1?$AA?9?$AA0?$AA?$AA@ 0000000180043330     libucrt:winapi_thunks.obj
 0002:00003370       ??_C@_1EO@IJIOEFOH@?$AAa?$AAp?$AAi?$AA?9?$AAm?$AAs?$AA?9?$AAw?$AAi?$AAn?$AA?9?$AAr?$AAt?$AAc?$AAo?$AAr?$AAe?$AA?9?$AAn?$AAt?$AAu?$AAs?$AAe?$AAr?$AA?9?$AAw?$AAi?$AAn?$AAd?$AAo?$AAw?$AA?9@ 0000000180043370     libucrt:winapi_thunks.obj
 0002:000033c0       ??_C@_1FG@HHGEKANL@?$AAa?$AAp?$AAi?$AA?9?$AAm?$AAs?$AA?9?$AAw?$AAi?$AAn?$AA?9?$AAs?$AAe?$AAc?$AAu?$AAr?$AAi?$AAt?$AAy?$AA?9?$AAs?$AAy?$AAs?$AAt?$AAe?$AAm?$AAf?$AAu?$AAn?$AAc?$AAt?$AAi@ 00000001800433c0     libucrt:winapi_thunks.obj
 0002:00003420       ??_C@_1EG@DBIOJECG@?$AAe?$AAx?$AAt?$AA?9?$AAm?$AAs?$AA?9?$AAw?$AAi?$AAn?$AA?9?$AAn?$AAt?$AAu?$AAs?$AAe?$AAr?$AA?9?$AAd?$AAi?$AAa?$AAl?$AAo?$AAg?$AAb?$AAo?$AAx?$AA?9?$AAl?$AA1?$AA?9?$AA1@ 0000000180043420     libucrt:winapi_thunks.obj
 0002:00003470       ??_C@_1EO@FIHMJCLF@?$AAe?$AAx?$AAt?$AA?9?$AAm?$AAs?$AA?9?$AAw?$AAi?$AAn?$AA?9?$AAn?$AAt?$AAu?$AAs?$AAe?$AAr?$AA?9?$AAw?$AAi?$AAn?$AAd?$AAo?$AAw?$AAs?$AAt?$AAa?$AAt?$AAi?$AAo?$AAn?$AA?9@ 0000000180043470     libucrt:winapi_thunks.obj
 0002:000034c0       ??_C@_1BC@DNHGCMLG@?$AAa?$AAd?$AAv?$AAa?$AAp?$AAi?$AA3?$AA2?$AA?$AA@ 00000001800434c0     libucrt:winapi_thunks.obj
 0002:000034d8       ??_C@_1BC@GDMECMAK@?$AAk?$AAe?$AAr?$AAn?$AAe?$AAl?$AA3?$AA2?$AA?$AA@ 00000001800434d8     libucrt:winapi_thunks.obj
 0002:000034f0       ??_C@_1M@OAIMIKLP@?$AAn?$AAt?$AAd?$AAl?$AAl?$AA?$AA@ 00000001800434f0     libucrt:winapi_thunks.obj
 0002:00003500       ??_C@_1EG@DPGNFKGC@?$AAa?$AAp?$AAi?$AA?9?$AAm?$AAs?$AA?9?$AAw?$AAi?$AAn?$AA?9?$AAa?$AAp?$AAp?$AAm?$AAo?$AAd?$AAe?$AAl?$AA?9?$AAr?$AAu?$AAn?$AAt?$AAi?$AAm?$AAe?$AA?9?$AAl?$AA1?$AA?9?$AA1@ 0000000180043500     libucrt:winapi_thunks.obj
 0002:00003548       ??_C@_1O@BCCLBEOE@?$AAu?$AAs?$AAe?$AAr?$AA3?$AA2?$AA?$AA@ 0000000180043548     libucrt:winapi_thunks.obj
 0002:00003558       ??_C@_1BA@PFFKHIOG@?$AAa?$AAp?$AAi?$AA?9?$AAm?$AAs?$AA?9?$AA?$AA@ 0000000180043558     libucrt:winapi_thunks.obj
 0002:00003568       ??_C@_1BA@IAIFMGEF@?$AAe?$AAx?$AAt?$AA?9?$AAm?$AAs?$AA?9?$AA?$AA@ 0000000180043568     libucrt:winapi_thunks.obj
 0002:00003580       ??_C@_0BA@FHFNEAED@AreFileApisANSI?$AA@ 0000000180043580     libucrt:winapi_thunks.obj
 0002:00003598       ??_C@_08KNHFBNJ@FlsAlloc?$AA@ 0000000180043598     libucrt:winapi_thunks.obj
 0002:000035b0       ??_C@_07PEJMOBNF@FlsFree?$AA@ 00000001800435b0     libucrt:winapi_thunks.obj
 0002:000035c0       ??_C@_0M@GDNOONDI@FlsGetValue?$AA@ 00000001800435c0     libucrt:winapi_thunks.obj
 0002:000035d8       ??_C@_0M@JCPCPOEF@FlsSetValue?$AA@ 00000001800435d8     libucrt:winapi_thunks.obj
 0002:000035f0       ??_C@_0BA@HNOPNCHB@GetActiveWindow?$AA@ 00000001800435f0     libucrt:winapi_thunks.obj
 0002:00003608       ??_C@_0BD@HHGDFDBJ@GetLastActivePopup?$AA@ 0000000180043608     libucrt:winapi_thunks.obj
 0002:00003628       ??_C@_0BI@DFKBFLJE@GetProcessWindowStation?$AA@ 0000000180043628     libucrt:winapi_thunks.obj
 0002:00003648       ??_C@_0BK@DEKFELLI@GetUserObjectInformationW?$AA@ 0000000180043648     libucrt:winapi_thunks.obj
 0002:00003670       ??_C@_0BM@HCFOFFN@InitializeCriticalSectionEx?$AA@ 0000000180043670     libucrt:winapi_thunks.obj
 0002:00003698       ??_C@_0O@KKBNKAPF@LCMapStringEx?$AA@ 0000000180043698     libucrt:winapi_thunks.obj
 0002:000036b0       ??_C@_0BB@HBDEELFH@LocaleNameToLCID?$AA@ 00000001800436b0     libucrt:winapi_thunks.obj
 0002:000036d0       ??_C@_0M@CHKKJDAI@MessageBoxA?$AA@ 00000001800436d0     libucrt:winapi_thunks.obj
 0002:000036e8       ??_C@_0M@DLDCCGNP@MessageBoxW?$AA@ 00000001800436e8     libucrt:winapi_thunks.obj
 0002:000036f8       ??_C@_0CF@OJOFEIGO@AppPolicyGetProcessTerminationMe@ 00000001800436f8     libucrt:winapi_thunks.obj
 0002:00003728       ??_C@_0CE@OICFMIKE@AppPolicyGetShowDeveloperDiagnos@ 0000000180043728     libucrt:winapi_thunks.obj
 0002:00003750       ??_C@_0BL@ODDJNEDA@AppPolicyGetWindowingModel?$AA@ 0000000180043750     libucrt:winapi_thunks.obj
 0002:0000376c       ??_C@_03OEIAHPBN@INF?$AA@  000000018004376c     libucrt:cvt.obj
 0002:00003770       ??_C@_03OJHLLCGB@inf?$AA@  0000000180043770     libucrt:cvt.obj
 0002:00003774       ??_C@_03LKNCIKJB@NAN?$AA@  0000000180043774     libucrt:cvt.obj
 0002:00003778       ??_C@_03LHCJEHON@nan?$AA@  0000000180043778     libucrt:cvt.obj
 0002:00003780       ??_C@_09OFJJIMPC@NAN?$CISNAN?$CJ?$AA@ 0000000180043780     libucrt:cvt.obj
 0002:00003790       ??_C@_09IPFBKMDL@nan?$CIsnan?$CJ?$AA@ 0000000180043790     libucrt:cvt.obj
 0002:000037a0       ??_C@_08IKHNHAJ@NAN?$CIIND?$CJ?$AA@ 00000001800437a0     libucrt:cvt.obj
 0002:000037b0       ??_C@_08OFCDMILK@nan?$CIind?$CJ?$AA@ 00000001800437b0     libucrt:cvt.obj
 0002:000037bc       ??_C@_05KLBDPFGC@e?$CL000?$AA@ 00000001800437bc     libucrt:cvt.obj
 0002:000037e8       ??_C@_1M@HPNHIDJI@?$AAj?$AAa?$AA?9?$AAJ?$AAP?$AA?$AA@ 00000001800437e8     libucrt:mbctype.obj
 0002:000037f8       ??_C@_1M@BIBDDEMK@?$AAz?$AAh?$AA?9?$AAC?$AAN?$AA?$AA@ 00000001800437f8     libucrt:mbctype.obj
 0002:00003808       ??_C@_1M@JLOOOEGK@?$AAk?$AAo?$AA?9?$AAK?$AAR?$AA?$AA@ 0000000180043808     libucrt:mbctype.obj
 0002:00003818       ??_C@_1M@CLNBBOPM@?$AAz?$AAh?$AA?9?$AAT?$AAW?$AA?$AA@ 0000000180043818     libucrt:mbctype.obj
 0002:00003824       ??_C@_15PJPFLCCM@?$AAu?$AAk?$AA?$AA@ 0000000180043824     libucrt:get_qualified_locale.obj
 0002:00004680       ??_C@_15EMKDOKLE@?$AAa?$AAr?$AA?$AA@ 0000000180044680     libucrt:lcidtoname_downlevel.obj
 0002:00004688       ??_C@_15KNPADPLH@?$AAb?$AAg?$AA?$AA@ 0000000180044688     libucrt:lcidtoname_downlevel.obj
 0002:00004690       ??_C@_15EDMHLDMO@?$AAc?$AAa?$AA?$AA@ 0000000180044690     libucrt:lcidtoname_downlevel.obj
 0002:00004698       ??_C@_1O@BPEAJADD@?$AAz?$AAh?$AA?9?$AAC?$AAH?$AAS?$AA?$AA@ 0000000180044698     libucrt:lcidtoname_downlevel.obj
 0002:000046a8       ??_C@_15LJNHCMNK@?$AAc?$AAs?$AA?$AA@ 00000001800446a8     libucrt:lcidtoname_downlevel.obj
 0002:000046b0       ??_C@_15FOMCIDHG@?$AAd?$AAa?$AA?$AA@ 00000001800446b0     libucrt:lcidtoname_downlevel.obj
 0002:000046b8       ??_C@_15NBKABECB@?$AAd?$AAe?$AA?$AA@ 00000001800446b8     libucrt:lcidtoname_downlevel.obj
 0002:000046c0       ??_C@_15GHPEIIAO@?$AAe?$AAl?$AA?$AA@ 00000001800446c0     libucrt:lcidtoname_downlevel.obj
 0002:000046c8       ??_C@_15MNPNEAIF@?$AAe?$AAn?$AA?$AA@ 00000001800446c8     libucrt:lcidtoname_downlevel.obj
 0002:000046d0       ??_C@_15GPIOMPMH@?$AAe?$AAs?$AA?$AA@ 00000001800446d0     libucrt:lcidtoname_downlevel.obj
 0002:000046d8       ??_C@_15NGLOAKJC@?$AAf?$AAi?$AA?$AA@ 00000001800446d8     libucrt:lcidtoname_downlevel.obj
 0002:000046e0       ??_C@_15FBKGNKAM@?$AAf?$AAr?$AA?$AA@ 00000001800446e0     libucrt:lcidtoname_downlevel.obj
 0002:000046e8       ??_C@_15KGGCNEFK@?$AAh?$AAe?$AA?$AA@ 00000001800446e8     libucrt:lcidtoname_downlevel.obj
 0002:000046f0       ??_C@_15PGHLIDMF@?$AAh?$AAu?$AA?$AA@ 00000001800446f0     libucrt:lcidtoname_downlevel.obj
 0002:000046f8       ??_C@_15BIEMAPLM@?$AAi?$AAs?$AA?$AA@ 00000001800446f8     libucrt:lcidtoname_downlevel.obj
 0002:00004700       ??_C@_15IFJLDHAF@?$AAi?$AAt?$AA?$AA@ 0000000180044700     libucrt:lcidtoname_downlevel.obj
 0002:00004708       ??_C@_15GEMIOCAG@?$AAj?$AAa?$AA?$AA@ 0000000180044708     libucrt:lcidtoname_downlevel.obj
 0002:00004710       ??_C@_15EPELEGJA@?$AAk?$AAo?$AA?$AA@ 0000000180044710     libucrt:lcidtoname_downlevel.obj
 0002:00004718       ??_C@_15NDDHIMN@?$AAn?$AAl?$AA?$AA@ 0000000180044718     libucrt:lcidtoname_downlevel.obj
 0002:00004720       ??_C@_15BPIGNHCD@?$AAn?$AAo?$AA?$AA@ 0000000180044720     libucrt:lcidtoname_downlevel.obj
 0002:00004728       ??_C@_15DEOPBLCG@?$AAp?$AAl?$AA?$AA@ 0000000180044728     libucrt:lcidtoname_downlevel.obj
 0002:00004730       ??_C@_15KBECGEFG@?$AAp?$AAt?$AA?$AA@ 0000000180044730     libucrt:lcidtoname_downlevel.obj
 0002:00004738       ??_C@_15GLJCBFMD@?$AAr?$AAo?$AA?$AA@ 0000000180044738     libucrt:lcidtoname_downlevel.obj
 0002:00004740       ??_C@_15FEDGKCDI@?$AAr?$AAu?$AA?$AA@ 0000000180044740     libucrt:lcidtoname_downlevel.obj
 0002:00004748       ??_C@_15GLKMLLHM@?$AAh?$AAr?$AA?$AA@ 0000000180044748     libucrt:lcidtoname_downlevel.obj
 0002:00004750       ??_C@_15CPKMFBDB@?$AAs?$AAk?$AA?$AA@ 0000000180044750     libucrt:lcidtoname_downlevel.obj
 0002:00004758       ??_C@_15BAAIOGMK@?$AAs?$AAq?$AA?$AA@ 0000000180044758     libucrt:lcidtoname_downlevel.obj
 0002:00004760       ??_C@_15INNPNOHD@?$AAs?$AAv?$AA?$AA@ 0000000180044760     libucrt:lcidtoname_downlevel.obj
 0002:00004768       ??_C@_15CABMMOGH@?$AAt?$AAh?$AA?$AA@ 0000000180044768     libucrt:lcidtoname_downlevel.obj
 0002:00004770       ??_C@_15BPLIHJJM@?$AAt?$AAr?$AA?$AA@ 0000000180044770     libucrt:lcidtoname_downlevel.obj
 0002:00004778       ??_C@_15NEOEKKDJ@?$AAu?$AAr?$AA?$AA@ 0000000180044778     libucrt:lcidtoname_downlevel.obj
 0002:00004780       ??_C@_15NFICGAJK@?$AAi?$AAd?$AA?$AA@ 0000000180044780     libucrt:lcidtoname_downlevel.obj
 0002:00004788       ??_C@_15HPJPHDM@?$AAb?$AAe?$AA?$AA@ 0000000180044788     libucrt:lcidtoname_downlevel.obj
 0002:00004790       ??_C@_15LCHLGJII@?$AAs?$AAl?$AA?$AA@ 0000000180044790     libucrt:lcidtoname_downlevel.obj
 0002:00004798       ??_C@_15PCFJPHHO@?$AAe?$AAt?$AA?$AA@ 0000000180044798     libucrt:lcidtoname_downlevel.obj
 0002:000047a0       ??_C@_15HPFPGODN@?$AAl?$AAv?$AA?$AA@ 00000001800447a0     libucrt:lcidtoname_downlevel.obj
 0002:000047a8       ??_C@_15NFFGKGLG@?$AAl?$AAt?$AA?$AA@ 00000001800447a8     libucrt:lcidtoname_downlevel.obj
 0002:000047b0       ??_C@_15BDAKCCHN@?$AAf?$AAa?$AA?$AA@ 00000001800447b0     libucrt:lcidtoname_downlevel.obj
 0002:000047b8       ??_C@_15NFGIAIAJ@?$AAv?$AAi?$AA?$AA@ 00000001800447b8     libucrt:lcidtoname_downlevel.obj
 0002:000047c0       ??_C@_15LMKNDMHN@?$AAh?$AAy?$AA?$AA@ 00000001800447c0     libucrt:lcidtoname_downlevel.obj
 0002:000047c8       ??_C@_15IJBHMCFL@?$AAa?$AAz?$AA?$AA@ 00000001800447c8     libucrt:lcidtoname_downlevel.obj
 0002:000047d0       ??_C@_15EKOFJABL@?$AAe?$AAu?$AA?$AA@ 00000001800447d0     libucrt:lcidtoname_downlevel.obj
 0002:000047d8       ??_C@_15BGHADCNK@?$AAm?$AAk?$AA?$AA@ 00000001800447d8     libucrt:lcidtoname_downlevel.obj
 0002:000047e0       ??_C@_15JDNICKHM@?$AAa?$AAf?$AA?$AA@ 00000001800447e0     libucrt:lcidtoname_downlevel.obj
 0002:000047e8       ??_C@_15KPJEDBKD@?$AAk?$AAa?$AA?$AA@ 00000001800447e8     libucrt:lcidtoname_downlevel.obj
 0002:000047f0       ??_C@_15PDNFFFEO@?$AAf?$AAo?$AA?$AA@ 00000001800447f0     libucrt:lcidtoname_downlevel.obj
 0002:000047f8       ??_C@_15OMLEGLOC@?$AAh?$AAi?$AA?$AA@ 00000001800447f8     libucrt:lcidtoname_downlevel.obj
 0002:00004800       ??_C@_15IDNNENKK@?$AAm?$AAs?$AA?$AA@ 0000000180044800     libucrt:lcidtoname_downlevel.obj
 0002:00004808       ??_C@_15MACJNBMH@?$AAk?$AAk?$AA?$AA@ 0000000180044808     libucrt:lcidtoname_downlevel.obj
 0002:00004810       ??_C@_15DKDJEOND@?$AAk?$AAy?$AA?$AA@ 0000000180044810     libucrt:lcidtoname_downlevel.obj
 0002:00004818       ??_C@_15DFGDLJBG@?$AAs?$AAw?$AA?$AA@ 0000000180044818     libucrt:lcidtoname_downlevel.obj
 0002:00004820       ??_C@_15BBFAICNG@?$AAu?$AAz?$AA?$AA@ 0000000180044820     libucrt:lcidtoname_downlevel.obj
 0002:00004828       ??_C@_15DKNDCGEA@?$AAt?$AAt?$AA?$AA@ 0000000180044828     libucrt:lcidtoname_downlevel.obj
 0002:00004830       ??_C@_15MGIFMDPL@?$AAp?$AAa?$AA?$AA@ 0000000180044830     libucrt:lcidtoname_downlevel.obj
 0002:00004838       ??_C@_15HCNDBBA@?$AAg?$AAu?$AA?$AA@ 0000000180044838     libucrt:lcidtoname_downlevel.obj
 0002:00004840       ??_C@_15FNBEIBON@?$AAt?$AAa?$AA?$AA@ 0000000180044840     libucrt:lcidtoname_downlevel.obj
 0002:00004848       ??_C@_15NCHGBGLK@?$AAt?$AAe?$AA?$AA@ 0000000180044848     libucrt:lcidtoname_downlevel.obj
 0002:00004850       ??_C@_15PHPHCBPF@?$AAk?$AAn?$AA?$AA@ 0000000180044850     libucrt:lcidtoname_downlevel.obj
 0002:00004858       ??_C@_15DLGBCKMP@?$AAm?$AAr?$AA?$AA@ 0000000180044858     libucrt:lcidtoname_downlevel.obj
 0002:00004860       ??_C@_15EABBLBFF@?$AAs?$AAa?$AA?$AA@ 0000000180044860     libucrt:lcidtoname_downlevel.obj
 0002:00004868       ??_C@_15CBKOMCOI@?$AAm?$AAn?$AA?$AA@ 0000000180044868     libucrt:lcidtoname_downlevel.obj
 0002:00004870       ??_C@_15CKDMCJAF@?$AAg?$AAl?$AA?$AA@ 0000000180044870     libucrt:lcidtoname_downlevel.obj
 0002:00004878       ??_C@_17CNJFBPG@?$AAk?$AAo?$AAk?$AA?$AA@ 0000000180044878     libucrt:lcidtoname_downlevel.obj
 0002:00004880       ??_C@_17FFBJICPL@?$AAs?$AAy?$AAr?$AA?$AA@ 0000000180044880     libucrt:lcidtoname_downlevel.obj
 0002:00004888       ??_C@_17KPNDCPAF@?$AAd?$AAi?$AAv?$AA?$AA@ 0000000180044888     libucrt:lcidtoname_downlevel.obj
 0002:00004890       ??_C@_11LOCGONAA@?$AA?$AA@ 0000000180044890     libucrt:lcidtoname_downlevel.obj
 0002:00004898       ??_C@_1M@OKAHONE@?$AAa?$AAr?$AA?9?$AAS?$AAA?$AA?$AA@ 0000000180044898     libucrt:lcidtoname_downlevel.obj
 0002:000048a8       ??_C@_1M@FFFIGIGK@?$AAb?$AAg?$AA?9?$AAB?$AAG?$AA?$AA@ 00000001800448a8     libucrt:lcidtoname_downlevel.obj
 0002:000048b8       ??_C@_1M@BJNKEDC@?$AAc?$AAa?$AA?9?$AAE?$AAS?$AA?$AA@ 00000001800448b8     libucrt:lcidtoname_downlevel.obj
 0002:000048c8       ??_C@_1M@IJJHFJHA@?$AAc?$AAs?$AA?9?$AAC?$AAZ?$AA?$AA@ 00000001800448c8     libucrt:lcidtoname_downlevel.obj
 0002:000048d8       ??_C@_1M@CLPEOBGI@?$AAd?$AAa?$AA?9?$AAD?$AAK?$AA?$AA@ 00000001800448d8     libucrt:lcidtoname_downlevel.obj
 0002:000048e8       ??_C@_1M@MCMADGCB@?$AAd?$AAe?$AA?9?$AAD?$AAE?$AA?$AA@ 00000001800448e8     libucrt:lcidtoname_downlevel.obj
 0002:000048f8       ??_C@_1M@OOCKEMAM@?$AAe?$AAl?$AA?9?$AAG?$AAR?$AA?$AA@ 00000001800448f8     libucrt:lcidtoname_downlevel.obj
 0002:00004908       ??_C@_1M@DDNJFGID@?$AAf?$AAi?$AA?9?$AAF?$AAI?$AA?$AA@ 0000000180044908     libucrt:lcidtoname_downlevel.obj
 0002:00004918       ??_C@_1M@GLIPPMAC@?$AAf?$AAr?$AA?9?$AAF?$AAR?$AA?$AA@ 0000000180044918     libucrt:lcidtoname_downlevel.obj
 0002:00004928       ??_C@_1M@GFMCHPE@?$AAh?$AAe?$AA?9?$AAI?$AAL?$AA?$AA@ 0000000180044928     libucrt:lcidtoname_downlevel.obj
 0002:00004938       ??_C@_1M@MHLPGNKM@?$AAh?$AAu?$AA?9?$AAH?$AAU?$AA?$AA@ 0000000180044938     libucrt:lcidtoname_downlevel.obj
 0002:00004948       ??_C@_1M@LPDDNNPN@?$AAi?$AAs?$AA?9?$AAI?$AAS?$AA?$AA@ 0000000180044948     libucrt:lcidtoname_downlevel.obj
 0002:00004958       ??_C@_1M@MADIPODN@?$AAi?$AAt?$AA?9?$AAI?$AAT?$AA?$AA@ 0000000180044958     libucrt:lcidtoname_downlevel.obj
 0002:00004968       ??_C@_1M@IHBJJGG@?$AAn?$AAl?$AA?9?$AAN?$AAL?$AA?$AA@ 0000000180044968     libucrt:lcidtoname_downlevel.obj
 0002:00004978       ??_C@_1M@EANAGDL@?$AAn?$AAb?$AA?9?$AAN?$AAO?$AA?$AA@ 0000000180044978     libucrt:lcidtoname_downlevel.obj
 0002:00004988       ??_C@_1M@NEIEMEGP@?$AAp?$AAl?$AA?9?$AAP?$AAL?$AA?$AA@ 0000000180044988     libucrt:lcidtoname_downlevel.obj
 0002:00004998       ??_C@_1M@BOCFIGEP@?$AAp?$AAt?$AA?9?$AAB?$AAR?$AA?$AA@ 0000000180044998     libucrt:lcidtoname_downlevel.obj
 0002:000049a8       ??_C@_1M@IMPFOPBG@?$AAr?$AAo?$AA?9?$AAR?$AAO?$AA?$AA@ 00000001800449a8     libucrt:lcidtoname_downlevel.obj
 0002:000049b8       ??_C@_1M@IDNNEJMM@?$AAr?$AAu?$AA?9?$AAR?$AAU?$AA?$AA@ 00000001800449b8     libucrt:lcidtoname_downlevel.obj
 0002:000049c8       ??_C@_1M@LILEEOGM@?$AAh?$AAr?$AA?9?$AAH?$AAR?$AA?$AA@ 00000001800449c8     libucrt:lcidtoname_downlevel.obj
 0002:000049d8       ??_C@_1M@FKIFEHPB@?$AAs?$AAk?$AA?9?$AAS?$AAK?$AA?$AA@ 00000001800449d8     libucrt:lcidtoname_downlevel.obj
 0002:000049e8       ??_C@_1M@LJMAMNPJ@?$AAs?$AAq?$AA?9?$AAA?$AAL?$AA?$AA@ 00000001800449e8     libucrt:lcidtoname_downlevel.obj
 0002:000049f8       ??_C@_1M@GIAKDKJK@?$AAs?$AAv?$AA?9?$AAS?$AAE?$AA?$AA@ 00000001800449f8     libucrt:lcidtoname_downlevel.obj
 0002:00004a08       ??_C@_1M@MKJKIKCL@?$AAt?$AAh?$AA?9?$AAT?$AAH?$AA?$AA@ 0000000180044a08     libucrt:lcidtoname_downlevel.obj
 0002:00004a18       ??_C@_1M@MFLCCMPB@?$AAt?$AAr?$AA?9?$AAT?$AAR?$AA?$AA@ 0000000180044a18     libucrt:lcidtoname_downlevel.obj
 0002:00004a28       ??_C@_1M@OIJHDKJN@?$AAu?$AAr?$AA?9?$AAP?$AAK?$AA?$AA@ 0000000180044a28     libucrt:lcidtoname_downlevel.obj
 0002:00004a38       ??_C@_1M@LHIPCIEK@?$AAi?$AAd?$AA?9?$AAI?$AAD?$AA?$AA@ 0000000180044a38     libucrt:lcidtoname_downlevel.obj
 0002:00004a48       ??_C@_1M@MFMOBGI@?$AAu?$AAk?$AA?9?$AAU?$AAA?$AA?$AA@ 0000000180044a48     libucrt:lcidtoname_downlevel.obj
 0002:00004a58       ??_C@_1M@OBGLJIPL@?$AAb?$AAe?$AA?9?$AAB?$AAY?$AA?$AA@ 0000000180044a58     libucrt:lcidtoname_downlevel.obj
 0002:00004a68       ??_C@_1M@BCFAJEAD@?$AAs?$AAl?$AA?9?$AAS?$AAI?$AA?$AA@ 0000000180044a68     libucrt:lcidtoname_downlevel.obj
 0002:00004a78       ??_C@_1M@FKFFEDDN@?$AAe?$AAt?$AA?9?$AAE?$AAE?$AA?$AA@ 0000000180044a78     libucrt:lcidtoname_downlevel.obj
 0002:00004a88       ??_C@_1M@KGKKAACI@?$AAl?$AAv?$AA?9?$AAL?$AAV?$AA?$AA@ 0000000180044a88     libucrt:lcidtoname_downlevel.obj
 0002:00004a98       ??_C@_1M@IFGBIJO@?$AAl?$AAt?$AA?9?$AAL?$AAT?$AA?$AA@ 0000000180044a98     libucrt:lcidtoname_downlevel.obj
 0002:00004aa8       ??_C@_1M@FGEAHEDM@?$AAf?$AAa?$AA?9?$AAI?$AAR?$AA?$AA@ 0000000180044aa8     libucrt:lcidtoname_downlevel.obj
 0002:00004ab8       ??_C@_1M@KBMAIBFN@?$AAv?$AAi?$AA?9?$AAV?$AAN?$AA?$AA@ 0000000180044ab8     libucrt:lcidtoname_downlevel.obj
 0002:00004ac8       ??_C@_1M@GPCBKDJK@?$AAh?$AAy?$AA?9?$AAA?$AAM?$AA?$AA@ 0000000180044ac8     libucrt:lcidtoname_downlevel.obj
 0002:00004ad8       ??_C@_1BG@BECMDDJB@?$AAa?$AAz?$AA?9?$AAA?$AAZ?$AA?9?$AAL?$AAa?$AAt?$AAn?$AA?$AA@ 0000000180044ad8     libucrt:lcidtoname_downlevel.obj
 0002:00004af0       ??_C@_1M@MAOFCAEA@?$AAe?$AAu?$AA?9?$AAE?$AAS?$AA?$AA@ 0000000180044af0     libucrt:lcidtoname_downlevel.obj
 0002:00004b00       ??_C@_1M@IGHABKPI@?$AAm?$AAk?$AA?9?$AAM?$AAK?$AA?$AA@ 0000000180044b00     libucrt:lcidtoname_downlevel.obj
 0002:00004b10       ??_C@_1M@IAIGNEJG@?$AAt?$AAn?$AA?9?$AAZ?$AAA?$AA?$AA@ 0000000180044b10     libucrt:lcidtoname_downlevel.obj
 0002:00004b20       ??_C@_1M@IIJCOJFA@?$AAx?$AAh?$AA?9?$AAZ?$AAA?$AA?$AA@ 0000000180044b20     libucrt:lcidtoname_downlevel.obj
 0002:00004b30       ??_C@_1M@LGPJHNJH@?$AAz?$AAu?$AA?9?$AAZ?$AAA?$AA?$AA@ 0000000180044b30     libucrt:lcidtoname_downlevel.obj
 0002:00004b40       ??_C@_1M@HOKAOIO@?$AAa?$AAf?$AA?9?$AAZ?$AAA?$AA?$AA@ 0000000180044b40     libucrt:lcidtoname_downlevel.obj
 0002:00004b50       ??_C@_1M@DPCLHLIE@?$AAk?$AAa?$AA?9?$AAG?$AAE?$AA?$AA@ 0000000180044b50     libucrt:lcidtoname_downlevel.obj
 0002:00004b60       ??_C@_1M@BLKMHJBI@?$AAf?$AAo?$AA?9?$AAF?$AAO?$AA?$AA@ 0000000180044b60     libucrt:lcidtoname_downlevel.obj
 0002:00004b70       ??_C@_1M@LGGJAPPB@?$AAh?$AAi?$AA?9?$AAI?$AAN?$AA?$AA@ 0000000180044b70     libucrt:lcidtoname_downlevel.obj
 0002:00004b80       ??_C@_1M@FIKPIHFE@?$AAm?$AAt?$AA?9?$AAM?$AAT?$AA?$AA@ 0000000180044b80     libucrt:lcidtoname_downlevel.obj
 0002:00004b90       ??_C@_1M@HEGGPBFA@?$AAs?$AAe?$AA?9?$AAN?$AAO?$AA?$AA@ 0000000180044b90     libucrt:lcidtoname_downlevel.obj
 0002:00004ba0       ??_C@_1M@EIBJEEPA@?$AAm?$AAs?$AA?9?$AAM?$AAY?$AA?$AA@ 0000000180044ba0     libucrt:lcidtoname_downlevel.obj
 0002:00004bb0       ??_C@_1M@FHLBGMPP@?$AAk?$AAk?$AA?9?$AAK?$AAZ?$AA?$AA@ 0000000180044bb0     libucrt:lcidtoname_downlevel.obj
 0002:00004bc0       ??_C@_1M@NGJJLCGI@?$AAk?$AAy?$AA?9?$AAK?$AAG?$AA?$AA@ 0000000180044bc0     libucrt:lcidtoname_downlevel.obj
 0002:00004bd0       ??_C@_1M@GIENNBFC@?$AAs?$AAw?$AA?9?$AAK?$AAE?$AA?$AA@ 0000000180044bd0     libucrt:lcidtoname_downlevel.obj
 0002:00004be0       ??_C@_1BG@NDGMJIMJ@?$AAu?$AAz?$AA?9?$AAU?$AAZ?$AA?9?$AAL?$AAa?$AAt?$AAn?$AA?$AA@ 0000000180044be0     libucrt:lcidtoname_downlevel.obj
 0002:00004bf8       ??_C@_1M@IDCCIHBC@?$AAt?$AAt?$AA?9?$AAR?$AAU?$AA?$AA@ 0000000180044bf8     libucrt:lcidtoname_downlevel.obj
 0002:00004c08       ??_C@_1M@LOICPMOJ@?$AAb?$AAn?$AA?9?$AAI?$AAN?$AA?$AA@ 0000000180044c08     libucrt:lcidtoname_downlevel.obj
 0002:00004c18       ??_C@_1M@KPKKNEAH@?$AAp?$AAa?$AA?9?$AAI?$AAN?$AA?$AA@ 0000000180044c18     libucrt:lcidtoname_downlevel.obj
 0002:00004c28       ??_C@_1M@PJGPPBOG@?$AAg?$AAu?$AA?9?$AAI?$AAN?$AA?$AA@ 0000000180044c28     libucrt:lcidtoname_downlevel.obj
 0002:00004c38       ??_C@_1M@KMKMOPHI@?$AAt?$AAa?$AA?9?$AAI?$AAN?$AA?$AA@ 0000000180044c38     libucrt:lcidtoname_downlevel.obj
 0002:00004c48       ??_C@_1M@KFEHEPAC@?$AAt?$AAe?$AA?9?$AAI?$AAN?$AA?$AA@ 0000000180044c48     libucrt:lcidtoname_downlevel.obj
 0002:00004c58       ??_C@_1M@CDCLMGHI@?$AAk?$AAn?$AA?9?$AAI?$AAN?$AA?$AA@ 0000000180044c58     libucrt:lcidtoname_downlevel.obj
 0002:00004c68       ??_C@_1M@MIODLDKF@?$AAm?$AAl?$AA?9?$AAI?$AAN?$AA?$AA@ 0000000180044c68     libucrt:lcidtoname_downlevel.obj
 0002:00004c78       ??_C@_1M@PBIEACPO@?$AAm?$AAr?$AA?9?$AAI?$AAN?$AA?$AA@ 0000000180044c78     libucrt:lcidtoname_downlevel.obj
 0002:00004c88       ??_C@_1M@NIDEAGPH@?$AAs?$AAa?$AA?9?$AAI?$AAN?$AA?$AA@ 0000000180044c88     libucrt:lcidtoname_downlevel.obj
 0002:00004c98       ??_C@_1M@FHIHCBIO@?$AAm?$AAn?$AA?9?$AAM?$AAN?$AA?$AA@ 0000000180044c98     libucrt:lcidtoname_downlevel.obj
 0002:00004ca8       ??_C@_1M@JAIJPENP@?$AAc?$AAy?$AA?9?$AAG?$AAB?$AA?$AA@ 0000000180044ca8     libucrt:lcidtoname_downlevel.obj
 0002:00004cb8       ??_C@_1M@PHGFBEPN@?$AAg?$AAl?$AA?9?$AAE?$AAS?$AA?$AA@ 0000000180044cb8     libucrt:lcidtoname_downlevel.obj
 0002:00004cc8       ??_C@_1O@KPIPDNCP@?$AAk?$AAo?$AAk?$AA?9?$AAI?$AAN?$AA?$AA@ 0000000180044cc8     libucrt:lcidtoname_downlevel.obj
 0002:00004cd8       ??_C@_1O@KNHJLDJA@?$AAs?$AAy?$AAr?$AA?9?$AAS?$AAY?$AA?$AA@ 0000000180044cd8     libucrt:lcidtoname_downlevel.obj
 0002:00004ce8       ??_C@_1O@MKEKBLAH@?$AAd?$AAi?$AAv?$AA?9?$AAM?$AAV?$AA?$AA@ 0000000180044ce8     libucrt:lcidtoname_downlevel.obj
 0002:00004cf8       ??_C@_1O@OHDCKDDF@?$AAq?$AAu?$AAz?$AA?9?$AAB?$AAO?$AA?$AA@ 0000000180044cf8     libucrt:lcidtoname_downlevel.obj
 0002:00004d08       ??_C@_1M@LEPJNLFD@?$AAn?$AAs?$AA?9?$AAZ?$AAA?$AA?$AA@ 0000000180044d08     libucrt:lcidtoname_downlevel.obj
 0002:00004d18       ??_C@_1M@OMLEIIJB@?$AAm?$AAi?$AA?9?$AAN?$AAZ?$AA?$AA@ 0000000180044d18     libucrt:lcidtoname_downlevel.obj
 0002:00004d28       ??_C@_1M@PMPEAILG@?$AAa?$AAr?$AA?9?$AAI?$AAQ?$AA?$AA@ 0000000180044d28     libucrt:lcidtoname_downlevel.obj
 0002:00004d38       ??_C@_1M@CNKPNOEE@?$AAd?$AAe?$AA?9?$AAC?$AAH?$AA?$AA@ 0000000180044d38     libucrt:lcidtoname_downlevel.obj
 0002:00004d48       ??_C@_1M@LKMGMLKO@?$AAe?$AAn?$AA?9?$AAG?$AAB?$AA?$AA@ 0000000180044d48     libucrt:lcidtoname_downlevel.obj
 0002:00004d58       ??_C@_1M@PGKJFFGL@?$AAe?$AAs?$AA?9?$AAM?$AAX?$AA?$AA@ 0000000180044d58     libucrt:lcidtoname_downlevel.obj
 0002:00004d68       ??_C@_1M@DNNANBDC@?$AAf?$AAr?$AA?9?$AAB?$AAE?$AA?$AA@ 0000000180044d68     libucrt:lcidtoname_downlevel.obj
 0002:00004d78       ??_C@_1M@HLGMDFHM@?$AAi?$AAt?$AA?9?$AAC?$AAH?$AA?$AA@ 0000000180044d78     libucrt:lcidtoname_downlevel.obj
 0002:00004d88       ??_C@_1M@CLLBGJH@?$AAn?$AAl?$AA?9?$AAB?$AAE?$AA?$AA@ 0000000180044d88     libucrt:lcidtoname_downlevel.obj
 0002:00004d98       ??_C@_1M@BODBOGLF@?$AAn?$AAn?$AA?9?$AAN?$AAO?$AA?$AA@ 0000000180044d98     libucrt:lcidtoname_downlevel.obj
 0002:00004da8       ??_C@_1M@HFFAHKAD@?$AAp?$AAt?$AA?9?$AAP?$AAT?$AA?$AA@ 0000000180044da8     libucrt:lcidtoname_downlevel.obj
 0002:00004db8       ??_C@_1BG@LNOAKHIE@?$AAs?$AAr?$AA?9?$AAS?$AAP?$AA?9?$AAL?$AAa?$AAt?$AAn?$AA?$AA@ 0000000180044db8     libucrt:lcidtoname_downlevel.obj
 0002:00004dd0       ??_C@_1M@HBMHBGAK@?$AAs?$AAv?$AA?9?$AAF?$AAI?$AA?$AA@ 0000000180044dd0     libucrt:lcidtoname_downlevel.obj
 0002:00004de0       ??_C@_1BG@DGCJGJBE@?$AAa?$AAz?$AA?9?$AAA?$AAZ?$AA?9?$AAC?$AAy?$AAr?$AAl?$AA?$AA@ 0000000180044de0     libucrt:lcidtoname_downlevel.obj
 0002:00004df8       ??_C@_1M@KEJDAAHB@?$AAs?$AAe?$AA?9?$AAS?$AAE?$AA?$AA@ 0000000180044df8     libucrt:lcidtoname_downlevel.obj
 0002:00004e08       ??_C@_1M@HEIBJJAD@?$AAm?$AAs?$AA?9?$AAB?$AAN?$AA?$AA@ 0000000180044e08     libucrt:lcidtoname_downlevel.obj
 0002:00004e18       ??_C@_1BG@PBGJMCEM@?$AAu?$AAz?$AA?9?$AAU?$AAZ?$AA?9?$AAC?$AAy?$AAr?$AAl?$AA?$AA@ 0000000180044e18     libucrt:lcidtoname_downlevel.obj
 0002:00004e30       ??_C@_1O@LAOBCMDF@?$AAq?$AAu?$AAz?$AA?9?$AAE?$AAC?$AA?$AA@ 0000000180044e30     libucrt:lcidtoname_downlevel.obj
 0002:00004e40       ??_C@_1M@POEEMAIO@?$AAa?$AAr?$AA?9?$AAE?$AAG?$AA?$AA@ 0000000180044e40     libucrt:lcidtoname_downlevel.obj
 0002:00004e50       ??_C@_1M@EFAKDEDL@?$AAz?$AAh?$AA?9?$AAH?$AAK?$AA?$AA@ 0000000180044e50     libucrt:lcidtoname_downlevel.obj
 0002:00004e60       ??_C@_1M@HKKIJHGI@?$AAd?$AAe?$AA?9?$AAA?$AAT?$AA?$AA@ 0000000180044e60     libucrt:lcidtoname_downlevel.obj
 0002:00004e70       ??_C@_1M@KBFBEHJF@?$AAe?$AAn?$AA?9?$AAA?$AAU?$AA?$AA@ 0000000180044e70     libucrt:lcidtoname_downlevel.obj
 0002:00004e80       ??_C@_1M@MNPLFAAH@?$AAe?$AAs?$AA?9?$AAE?$AAS?$AA?$AA@ 0000000180044e80     libucrt:lcidtoname_downlevel.obj
 0002:00004e90       ??_C@_1M@HJOOJFMA@?$AAf?$AAr?$AA?9?$AAC?$AAA?$AA?$AA@ 0000000180044e90     libucrt:lcidtoname_downlevel.obj
 0002:00004ea0       ??_C@_1BG@JPOFPNAB@?$AAs?$AAr?$AA?9?$AAS?$AAP?$AA?9?$AAC?$AAy?$AAr?$AAl?$AA?$AA@ 0000000180044ea0     libucrt:lcidtoname_downlevel.obj
 0002:00004eb8       ??_C@_1M@LNFOCMOB@?$AAs?$AAe?$AA?9?$AAF?$AAI?$AA?$AA@ 0000000180044eb8     libucrt:lcidtoname_downlevel.obj
 0002:00004ec8       ??_C@_1O@MGJBOAMB@?$AAq?$AAu?$AAz?$AA?9?$AAP?$AAE?$AA?$AA@ 0000000180044ec8     libucrt:lcidtoname_downlevel.obj
 0002:00004ed8       ??_C@_1M@GJINLBOK@?$AAa?$AAr?$AA?9?$AAL?$AAY?$AA?$AA@ 0000000180044ed8     libucrt:lcidtoname_downlevel.obj
 0002:00004ee8       ??_C@_1M@GGMNHJNL@?$AAz?$AAh?$AA?9?$AAS?$AAG?$AA?$AA@ 0000000180044ee8     libucrt:lcidtoname_downlevel.obj
 0002:00004ef8       ??_C@_1M@HOIKODND@?$AAd?$AAe?$AA?9?$AAL?$AAU?$AA?$AA@ 0000000180044ef8     libucrt:lcidtoname_downlevel.obj
 0002:00004f08       ??_C@_1M@DDOCCGFG@?$AAe?$AAn?$AA?9?$AAC?$AAA?$AA?$AA@ 0000000180044f08     libucrt:lcidtoname_downlevel.obj
 0002:00004f18       ??_C@_1M@BNOEMJLF@?$AAe?$AAs?$AA?9?$AAG?$AAT?$AA?$AA@ 0000000180044f18     libucrt:lcidtoname_downlevel.obj
 0002:00004f28       ??_C@_1M@EOGNKEK@?$AAf?$AAr?$AA?9?$AAC?$AAH?$AA?$AA@ 0000000180044f28     libucrt:lcidtoname_downlevel.obj
 0002:00004f38       ??_C@_1M@FLIDJFHL@?$AAh?$AAr?$AA?9?$AAB?$AAA?$AA?$AA@ 0000000180044f38     libucrt:lcidtoname_downlevel.obj
 0002:00004f48       ??_C@_1O@FMCELNAJ@?$AAs?$AAm?$AAj?$AA?9?$AAN?$AAO?$AA?$AA@ 0000000180044f48     libucrt:lcidtoname_downlevel.obj
 0002:00004f58       ??_C@_1M@JHGLJMGJ@?$AAa?$AAr?$AA?9?$AAD?$AAZ?$AA?$AA@ 0000000180044f58     libucrt:lcidtoname_downlevel.obj
 0002:00004f68       ??_C@_1M@JKKFDCNP@?$AAz?$AAh?$AA?9?$AAM?$AAO?$AA?$AA@ 0000000180044f68     libucrt:lcidtoname_downlevel.obj
 0002:00004f78       ??_C@_1M@GEEFALPE@?$AAd?$AAe?$AA?9?$AAL?$AAI?$AA?$AA@ 0000000180044f78     libucrt:lcidtoname_downlevel.obj
 0002:00004f88       ??_C@_1M@IGEOFBG@?$AAe?$AAn?$AA?9?$AAN?$AAZ?$AA?$AA@ 0000000180044f88     libucrt:lcidtoname_downlevel.obj
 0002:00004f98       ??_C@_1M@KDBONEHP@?$AAe?$AAs?$AA?9?$AAC?$AAR?$AA?$AA@ 0000000180044f98     libucrt:lcidtoname_downlevel.obj
 0002:00004fa8       ??_C@_1M@FHMDOHNN@?$AAf?$AAr?$AA?9?$AAL?$AAU?$AA?$AA@ 0000000180044fa8     libucrt:lcidtoname_downlevel.obj
 0002:00004fb8       ??_C@_1BG@NFKKMAFG@?$AAb?$AAs?$AA?9?$AAB?$AAA?$AA?9?$AAL?$AAa?$AAt?$AAn?$AA?$AA@ 0000000180044fb8     libucrt:lcidtoname_downlevel.obj
 0002:00004fd0       ??_C@_1O@IMNBEMCI@?$AAs?$AAm?$AAj?$AA?9?$AAS?$AAE?$AA?$AA@ 0000000180044fd0     libucrt:lcidtoname_downlevel.obj
 0002:00004fe0       ??_C@_1M@DHHMBNDP@?$AAa?$AAr?$AA?9?$AAM?$AAA?$AA?$AA@ 0000000180044fe0     libucrt:lcidtoname_downlevel.obj
 0002:00004ff0       ??_C@_1M@BNBLJCGH@?$AAe?$AAn?$AA?9?$AAI?$AAE?$AA?$AA@ 0000000180044ff0     libucrt:lcidtoname_downlevel.obj
 0002:00005000       ??_C@_1M@GEPAFMDL@?$AAe?$AAs?$AA?9?$AAP?$AAA?$AA?$AA@ 0000000180045000     libucrt:lcidtoname_downlevel.obj
 0002:00005010       ??_C@_1M@OJONDMDL@?$AAf?$AAr?$AA?9?$AAM?$AAC?$AA?$AA@ 0000000180045010     libucrt:lcidtoname_downlevel.obj
 0002:00005020       ??_C@_1BG@OBCNFJB@?$AAs?$AAr?$AA?9?$AAB?$AAA?$AA?9?$AAL?$AAa?$AAt?$AAn?$AA?$AA@ 0000000180045020     libucrt:lcidtoname_downlevel.obj
 0002:00005038       ??_C@_1O@KEMEEGPO@?$AAs?$AAm?$AAa?$AA?9?$AAN?$AAO?$AA?$AA@ 0000000180045038     libucrt:lcidtoname_downlevel.obj
 0002:00005048       ??_C@_1M@ELMGFODK@?$AAa?$AAr?$AA?9?$AAT?$AAN?$AA?$AA@ 0000000180045048     libucrt:lcidtoname_downlevel.obj
 0002:00005058       ??_C@_1M@BHDLHFAF@?$AAe?$AAn?$AA?9?$AAZ?$AAA?$AA?$AA@ 0000000180045058     libucrt:lcidtoname_downlevel.obj
 0002:00005068       ??_C@_1M@BMGIGLIF@?$AAe?$AAs?$AA?9?$AAD?$AAO?$AA?$AA@ 0000000180045068     libucrt:lcidtoname_downlevel.obj
 0002:00005078       ??_C@_1BG@CMBHIPBE@?$AAs?$AAr?$AA?9?$AAB?$AAA?$AA?9?$AAC?$AAy?$AAr?$AAl?$AA?$AA@ 0000000180045078     libucrt:lcidtoname_downlevel.obj
 0002:00005090       ??_C@_1O@HEDBLHNP@?$AAs?$AAm?$AAa?$AA?9?$AAS?$AAE?$AA?$AA@ 0000000180045090     libucrt:lcidtoname_downlevel.obj
 0002:000050a0       ??_C@_1M@DAGCADIM@?$AAa?$AAr?$AA?9?$AAO?$AAM?$AA?$AA@ 00000001800450a0     libucrt:lcidtoname_downlevel.obj
 0002:000050b0       ??_C@_1M@FODLMICG@?$AAe?$AAn?$AA?9?$AAJ?$AAM?$AA?$AA@ 00000001800450b0     libucrt:lcidtoname_downlevel.obj
 0002:000050c0       ??_C@_1M@DNMLCIHB@?$AAe?$AAs?$AA?9?$AAV?$AAE?$AA?$AA@ 00000001800450c0     libucrt:lcidtoname_downlevel.obj
 0002:000050d0       ??_C@_1O@EOKHMKJK@?$AAs?$AAm?$AAs?$AA?9?$AAF?$AAI?$AA?$AA@ 00000001800450d0     libucrt:lcidtoname_downlevel.obj
 0002:000050e0       ??_C@_1M@CAFJMKOF@?$AAa?$AAr?$AA?9?$AAY?$AAE?$AA?$AA@ 00000001800450e0     libucrt:lcidtoname_downlevel.obj
 0002:000050f0       ??_C@_1M@CBFHIJLI@?$AAe?$AAn?$AA?9?$AAC?$AAB?$AA?$AA@ 00000001800450f0     libucrt:lcidtoname_downlevel.obj
 0002:00005100       ??_C@_1M@BGNFLDN@?$AAe?$AAs?$AA?9?$AAC?$AAO?$AA?$AA@ 0000000180045100     libucrt:lcidtoname_downlevel.obj
 0002:00005110       ??_C@_1O@JMPHMAMC@?$AAs?$AAm?$AAn?$AA?9?$AAF?$AAI?$AA?$AA@ 0000000180045110     libucrt:lcidtoname_downlevel.obj
 0002:00005120       ??_C@_1M@JLANABKE@?$AAa?$AAr?$AA?9?$AAS?$AAY?$AA?$AA@ 0000000180045120     libucrt:lcidtoname_downlevel.obj
 0002:00005130       ??_C@_1M@HPKGCFGN@?$AAe?$AAn?$AA?9?$AAB?$AAZ?$AA?$AA@ 0000000180045130     libucrt:lcidtoname_downlevel.obj
 0002:00005140       ??_C@_1M@OLJCMLGM@?$AAe?$AAs?$AA?9?$AAP?$AAE?$AA?$AA@ 0000000180045140     libucrt:lcidtoname_downlevel.obj
 0002:00005150       ??_C@_1M@MKKGFKLE@?$AAa?$AAr?$AA?9?$AAJ?$AAO?$AA?$AA@ 0000000180045150     libucrt:lcidtoname_downlevel.obj
 0002:00005160       ??_C@_1M@EKPGLDNI@?$AAe?$AAn?$AA?9?$AAT?$AAT?$AA?$AA@ 0000000180045160     libucrt:lcidtoname_downlevel.obj
 0002:00005170       ??_C@_1M@OONGHFHE@?$AAe?$AAs?$AA?9?$AAA?$AAR?$AA?$AA@ 0000000180045170     libucrt:lcidtoname_downlevel.obj
 0002:00005180       ??_C@_1M@OOJFGBHE@?$AAa?$AAr?$AA?9?$AAL?$AAB?$AA?$AA@ 0000000180045180     libucrt:lcidtoname_downlevel.obj
 0002:00005190       ??_C@_1M@GCEJHNEG@?$AAe?$AAn?$AA?9?$AAZ?$AAW?$AA?$AA@ 0000000180045190     libucrt:lcidtoname_downlevel.obj
 0002:000051a0       ??_C@_1M@JNOCAHJI@?$AAe?$AAs?$AA?9?$AAE?$AAC?$AA?$AA@ 00000001800451a0     libucrt:lcidtoname_downlevel.obj
 0002:000051b0       ??_C@_1M@JEFHPGGB@?$AAa?$AAr?$AA?9?$AAK?$AAW?$AA?$AA@ 00000001800451b0     libucrt:lcidtoname_downlevel.obj
 0002:000051c0       ??_C@_1M@MLKIBJOJ@?$AAe?$AAn?$AA?9?$AAP?$AAH?$AA?$AA@ 00000001800451c0     libucrt:lcidtoname_downlevel.obj
 0002:000051d0       ??_C@_1M@BDNIPEND@?$AAe?$AAs?$AA?9?$AAC?$AAL?$AA?$AA@ 00000001800451d0     libucrt:lcidtoname_downlevel.obj
 0002:000051e0       ??_C@_1M@MPNMEKBD@?$AAa?$AAr?$AA?9?$AAA?$AAE?$AA?$AA@ 00000001800451e0     libucrt:lcidtoname_downlevel.obj
 0002:000051f0       ??_C@_1M@KBJALCPI@?$AAe?$AAs?$AA?9?$AAU?$AAY?$AA?$AA@ 00000001800451f0     libucrt:lcidtoname_downlevel.obj
 0002:00005200       ??_C@_1M@LLCCOAGA@?$AAa?$AAr?$AA?9?$AAB?$AAH?$AA?$AA@ 0000000180045200     libucrt:lcidtoname_downlevel.obj
 0002:00005210       ??_C@_1M@PBFNCDEL@?$AAe?$AAs?$AA?9?$AAP?$AAY?$AA?$AA@ 0000000180045210     libucrt:lcidtoname_downlevel.obj
 0002:00005220       ??_C@_1M@EDGINPNP@?$AAa?$AAr?$AA?9?$AAQ?$AAA?$AA?$AA@ 0000000180045220     libucrt:lcidtoname_downlevel.obj
 0002:00005230       ??_C@_1M@MKDBIIJI@?$AAe?$AAs?$AA?9?$AAB?$AAO?$AA?$AA@ 0000000180045230     libucrt:lcidtoname_downlevel.obj
 0002:00005240       ??_C@_1M@CPKKEBLD@?$AAe?$AAs?$AA?9?$AAS?$AAV?$AA?$AA@ 0000000180045240     libucrt:lcidtoname_downlevel.obj
 0002:00005250       ??_C@_1M@NDBGMMJL@?$AAe?$AAs?$AA?9?$AAH?$AAN?$AA?$AA@ 0000000180045250     libucrt:lcidtoname_downlevel.obj
 0002:00005260       ??_C@_1M@JIJIBHDP@?$AAe?$AAs?$AA?9?$AAN?$AAI?$AA?$AA@ 0000000180045260     libucrt:lcidtoname_downlevel.obj
 0002:00005270       ??_C@_1M@CGFMKEEK@?$AAe?$AAs?$AA?9?$AAP?$AAR?$AA?$AA@ 0000000180045270     libucrt:lcidtoname_downlevel.obj
 0002:00005280       ??_C@_1O@ICJHKIIK@?$AAz?$AAh?$AA?9?$AAC?$AAH?$AAT?$AA?$AA@ 0000000180045280     libucrt:lcidtoname_downlevel.obj
 0002:00005290       ??_C@_15CLNEJCE@?$AAs?$AAr?$AA?$AA@ 0000000180045290     libucrt:lcidtoname_downlevel.obj
 0002:000060e0       ??_C@_1M@KAHEKEIG@?$AAa?$AAf?$AA?9?$AAz?$AAa?$AA?$AA@ 00000001800460e0     libucrt:lcidtoname_downlevel.obj
 0002:000060f0       ??_C@_1M@GIECOABL@?$AAa?$AAr?$AA?9?$AAa?$AAe?$AA?$AA@ 00000001800460f0     libucrt:lcidtoname_downlevel.obj
 0002:00006100       ??_C@_1M@BMLMEKGI@?$AAa?$AAr?$AA?9?$AAb?$AAh?$AA?$AA@ 0000000180046100     libucrt:lcidtoname_downlevel.obj
 0002:00006110       ??_C@_1M@DAPFDGGB@?$AAa?$AAr?$AA?9?$AAd?$AAz?$AA?$AA@ 0000000180046110     libucrt:lcidtoname_downlevel.obj
 0002:00006120       ??_C@_1M@FJNKGKIG@?$AAa?$AAr?$AA?9?$AAe?$AAg?$AA?$AA@ 0000000180046120     libucrt:lcidtoname_downlevel.obj
 0002:00006130       ??_C@_1M@FLGKKCLO@?$AAa?$AAr?$AA?9?$AAi?$AAq?$AA?$AA@ 0000000180046130     libucrt:lcidtoname_downlevel.obj
 0002:00006140       ??_C@_1M@GNDIPALM@?$AAa?$AAr?$AA?9?$AAj?$AAo?$AA?$AA@ 0000000180046140     libucrt:lcidtoname_downlevel.obj
 0002:00006150       ??_C@_1M@DDMJFMGJ@?$AAa?$AAr?$AA?9?$AAk?$AAw?$AA?$AA@ 0000000180046150     libucrt:lcidtoname_downlevel.obj
 0002:00006160       ??_C@_1M@EJALMLHM@?$AAa?$AAr?$AA?9?$AAl?$AAb?$AA?$AA@ 0000000180046160     libucrt:lcidtoname_downlevel.obj
 0002:00006170       ??_C@_1M@MOBDBLOC@?$AAa?$AAr?$AA?9?$AAl?$AAy?$AA?$AA@ 0000000180046170     libucrt:lcidtoname_downlevel.obj
 0002:00006180       ??_C@_1M@JAOCLHDH@?$AAa?$AAr?$AA?9?$AAm?$AAa?$AA?$AA@ 0000000180046180     libucrt:lcidtoname_downlevel.obj
 0002:00006190       ??_C@_1M@JHPMKJIE@?$AAa?$AAr?$AA?9?$AAo?$AAm?$AA?$AA@ 0000000180046190     libucrt:lcidtoname_downlevel.obj
 0002:000061a0       ??_C@_1M@OEPGHFNH@?$AAa?$AAr?$AA?9?$AAq?$AAa?$AA?$AA@ 00000001800461a0     libucrt:lcidtoname_downlevel.obj
 0002:000061b0       ??_C@_1M@KJDONENM@?$AAa?$AAr?$AA?9?$AAs?$AAa?$AA?$AA@ 00000001800461b0     libucrt:lcidtoname_downlevel.obj
 0002:000061c0       ??_C@_1M@DMJDKLKM@?$AAa?$AAr?$AA?9?$AAs?$AAy?$AA?$AA@ 00000001800461c0     libucrt:lcidtoname_downlevel.obj
 0002:000061d0       ??_C@_1M@OMFIPEDC@?$AAa?$AAr?$AA?9?$AAt?$AAn?$AA?$AA@ 00000001800461d0     libucrt:lcidtoname_downlevel.obj
 0002:000061e0       ??_C@_1M@IHMHGAON@?$AAa?$AAr?$AA?9?$AAy?$AAe?$AA?$AA@ 00000001800461e0     libucrt:lcidtoname_downlevel.obj
 0002:000061f0       ??_C@_1BG@KDCPGJGB@?$AAa?$AAz?$AA?9?$AAa?$AAz?$AA?9?$AAc?$AAy?$AAr?$AAl?$AA?$AA@ 00000001800461f0     libucrt:lcidtoname_downlevel.obj
 0002:00006208       ??_C@_1BG@IBCKDDOE@?$AAa?$AAz?$AA?9?$AAa?$AAz?$AA?9?$AAl?$AAa?$AAt?$AAn?$AA?$AA@ 0000000180046208     libucrt:lcidtoname_downlevel.obj
 0002:00006220       ??_C@_1M@EGPFDCPD@?$AAb?$AAe?$AA?9?$AAb?$AAy?$AA?$AA@ 0000000180046220     libucrt:lcidtoname_downlevel.obj
 0002:00006230       ??_C@_1M@PCMGMCGC@?$AAb?$AAg?$AA?9?$AAb?$AAg?$AA?$AA@ 0000000180046230     libucrt:lcidtoname_downlevel.obj
 0002:00006240       ??_C@_1M@BJBMFGOB@?$AAb?$AAn?$AA?9?$AAi?$AAn?$AA?$AA@ 0000000180046240     libucrt:lcidtoname_downlevel.obj
 0002:00006250       ??_C@_1BG@EAKMMACD@?$AAb?$AAs?$AA?9?$AAb?$AAa?$AA?9?$AAl?$AAa?$AAt?$AAn?$AA?$AA@ 0000000180046250     libucrt:lcidtoname_downlevel.obj
 0002:00006268       ??_C@_1M@KGADAODK@?$AAc?$AAa?$AA?9?$AAe?$AAs?$AA?$AA@ 0000000180046268     libucrt:lcidtoname_downlevel.obj
 0002:00006278       ??_C@_1M@COAJPDHI@?$AAc?$AAs?$AA?9?$AAc?$AAz?$AA?$AA@ 0000000180046278     libucrt:lcidtoname_downlevel.obj
 0002:00006288       ??_C@_1M@DHBHFONH@?$AAc?$AAy?$AA?9?$AAg?$AAb?$AA?$AA@ 0000000180046288     libucrt:lcidtoname_downlevel.obj
 0002:00006298       ??_C@_1M@IMGKELGA@?$AAd?$AAa?$AA?9?$AAd?$AAk?$AA?$AA@ 0000000180046298     libucrt:lcidtoname_downlevel.obj
 0002:000062a8       ??_C@_1M@NNDGDNGA@?$AAd?$AAe?$AA?9?$AAa?$AAt?$AA?$AA@ 00000001800462a8     libucrt:lcidtoname_downlevel.obj
 0002:000062b8       ??_C@_1M@IKDBHEEM@?$AAd?$AAe?$AA?9?$AAc?$AAh?$AA?$AA@ 00000001800462b8     libucrt:lcidtoname_downlevel.obj
 0002:000062c8       ??_C@_1M@GFFOJMCJ@?$AAd?$AAe?$AA?9?$AAd?$AAe?$AA?$AA@ 00000001800462c8     libucrt:lcidtoname_downlevel.obj
 0002:000062d8       ??_C@_1M@MDNLKBPM@?$AAd?$AAe?$AA?9?$AAl?$AAi?$AA?$AA@ 00000001800462d8     libucrt:lcidtoname_downlevel.obj
 0002:000062e8       ??_C@_1M@NJBEEJNL@?$AAd?$AAe?$AA?9?$AAl?$AAu?$AA?$AA@ 00000001800462e8     libucrt:lcidtoname_downlevel.obj
 0002:000062f8       ??_C@_1O@GNNELBAP@?$AAd?$AAi?$AAv?$AA?9?$AAm?$AAv?$AA?$AA@ 00000001800462f8     libucrt:lcidtoname_downlevel.obj
 0002:00006308       ??_C@_1M@EJLEOGAE@?$AAe?$AAl?$AA?9?$AAg?$AAr?$AA?$AA@ 0000000180046308     libucrt:lcidtoname_downlevel.obj
 0002:00006318       ??_C@_1M@GMPONJN@?$AAe?$AAn?$AA?9?$AAa?$AAu?$AA?$AA@ 0000000180046318     libucrt:lcidtoname_downlevel.obj
 0002:00006328       ??_C@_1M@NIDIIPGF@?$AAe?$AAn?$AA?9?$AAb?$AAz?$AA?$AA@ 0000000180046328     libucrt:lcidtoname_downlevel.obj
 0002:00006338       ??_C@_1M@JEHMIMFO@?$AAe?$AAn?$AA?9?$AAc?$AAa?$AA?$AA@ 0000000180046338     libucrt:lcidtoname_downlevel.obj
 0002:00006348       ??_C@_1M@IGMJCDLA@?$AAe?$AAn?$AA?9?$AAc?$AAb?$AA?$AA@ 0000000180046348     libucrt:lcidtoname_downlevel.obj
 0002:00006358       ??_C@_1M@BNFIGBKG@?$AAe?$AAn?$AA?9?$AAg?$AAb?$AA?$AA@ 0000000180046358     libucrt:lcidtoname_downlevel.obj
 0002:00006368       ??_C@_1M@LKIFDIGP@?$AAe?$AAn?$AA?9?$AAi?$AAe?$AA?$AA@ 0000000180046368     libucrt:lcidtoname_downlevel.obj
 0002:00006378       ??_C@_1M@PJKFGCCO@?$AAe?$AAn?$AA?9?$AAj?$AAm?$AA?$AA@ 0000000180046378     libucrt:lcidtoname_downlevel.obj
 0002:00006388       ??_C@_1M@KPPKEPBO@?$AAe?$AAn?$AA?9?$AAn?$AAz?$AA?$AA@ 0000000180046388     libucrt:lcidtoname_downlevel.obj
 0002:00006398       ??_C@_1M@GMDGLDOB@?$AAe?$AAn?$AA?9?$AAp?$AAh?$AA?$AA@ 0000000180046398     libucrt:lcidtoname_downlevel.obj
 0002:000063a8       ??_C@_1M@ONGIBJNA@?$AAe?$AAn?$AA?9?$AAt?$AAt?$AA?$AA@ 00000001800463a8     libucrt:lcidtoname_downlevel.obj
 0002:000063b8       ??_C@_1M@LLODPCMM@?$AAe?$AAn?$AA?9?$AAu?$AAs?$AA?$AA@ 00000001800463b8     libucrt:lcidtoname_downlevel.obj
 0002:000063c8       ??_C@_1M@LAKFNPAN@?$AAe?$AAn?$AA?9?$AAz?$AAa?$AA?$AA@ 00000001800463c8     libucrt:lcidtoname_downlevel.obj
 0002:000063d8       ??_C@_1M@MFNHNHEO@?$AAe?$AAn?$AA?9?$AAz?$AAw?$AA?$AA@ 00000001800463d8     libucrt:lcidtoname_downlevel.obj
 0002:000063e8       ??_C@_1M@EJEINPHM@?$AAe?$AAs?$AA?9?$AAa?$AAr?$AA?$AA@ 00000001800463e8     libucrt:lcidtoname_downlevel.obj
 0002:000063f8       ??_C@_1M@GNKPCCJA@?$AAe?$AAs?$AA?9?$AAb?$AAo?$AA?$AA@ 00000001800463f8     libucrt:lcidtoname_downlevel.obj
 0002:00006408       ??_C@_1M@LEEGFONL@?$AAe?$AAs?$AA?9?$AAc?$AAl?$AA?$AA@ 0000000180046408     libucrt:lcidtoname_downlevel.obj
 0002:00006418       ??_C@_1M@KGPDPBDF@?$AAe?$AAs?$AA?9?$AAc?$AAo?$AA?$AA@ 0000000180046418     libucrt:lcidtoname_downlevel.obj
 0002:00006428       ??_C@_1M@EIAHOHH@?$AAe?$AAs?$AA?9?$AAc?$AAr?$AA?$AA@ 0000000180046428     libucrt:lcidtoname_downlevel.obj
 0002:00006438       ??_C@_1M@LLPGMBIN@?$AAe?$AAs?$AA?9?$AAd?$AAo?$AA?$AA@ 0000000180046438     libucrt:lcidtoname_downlevel.obj
 0002:00006448       ??_C@_1M@DKHMKNJA@?$AAe?$AAs?$AA?9?$AAe?$AAc?$AA?$AA@ 0000000180046448     libucrt:lcidtoname_downlevel.obj
 0002:00006458       ??_C@_1M@GKGFPKAP@?$AAe?$AAs?$AA?9?$AAe?$AAs?$AA?$AA@ 0000000180046458     libucrt:lcidtoname_downlevel.obj
 0002:00006468       ??_C@_1M@LKHKGDLN@?$AAe?$AAs?$AA?9?$AAg?$AAt?$AA?$AA@ 0000000180046468     libucrt:lcidtoname_downlevel.obj
 0002:00006478       ??_C@_1M@HEIIGGJD@?$AAe?$AAs?$AA?9?$AAh?$AAn?$AA?$AA@ 0000000180046478     libucrt:lcidtoname_downlevel.obj
 0002:00006488       ??_C@_1M@FBDHPPGD@?$AAe?$AAs?$AA?9?$AAm?$AAx?$AA?$AA@ 0000000180046488     libucrt:lcidtoname_downlevel.obj
 0002:00006498       ??_C@_1M@DPAGLNDH@?$AAe?$AAs?$AA?9?$AAn?$AAi?$AA?$AA@ 0000000180046498     libucrt:lcidtoname_downlevel.obj
 0002:000064a8       ??_C@_1M@MDGOPGDD@?$AAe?$AAs?$AA?9?$AAp?$AAa?$AA?$AA@ 00000001800464a8     libucrt:lcidtoname_downlevel.obj
 0002:000064b8       ??_C@_1M@EMAMGBGE@?$AAe?$AAs?$AA?9?$AAp?$AAe?$AA?$AA@ 00000001800464b8     libucrt:lcidtoname_downlevel.obj
 0002:000064c8       ??_C@_1M@IBMCAOEC@?$AAe?$AAs?$AA?9?$AAp?$AAr?$AA?$AA@ 00000001800464c8     libucrt:lcidtoname_downlevel.obj
 0002:000064d8       ??_C@_1M@FGMDIJED@?$AAe?$AAs?$AA?9?$AAp?$AAy?$AA?$AA@ 00000001800464d8     libucrt:lcidtoname_downlevel.obj
 0002:000064e8       ??_C@_1M@IIDEOLLL@?$AAe?$AAs?$AA?9?$AAs?$AAv?$AA?$AA@ 00000001800464e8     libucrt:lcidtoname_downlevel.obj
 0002:000064f8       ??_C@_1M@GAOBIPA@?$AAe?$AAs?$AA?9?$AAu?$AAy?$AA?$AA@ 00000001800464f8     libucrt:lcidtoname_downlevel.obj
 0002:00006508       ??_C@_1M@JKFFICHJ@?$AAe?$AAs?$AA?9?$AAv?$AAe?$AA?$AA@ 0000000180046508     libucrt:lcidtoname_downlevel.obj
 0002:00006518       ??_C@_1M@PNMLOJDF@?$AAe?$AAt?$AA?9?$AAe?$AAe?$AA?$AA@ 0000000180046518     libucrt:lcidtoname_downlevel.obj
 0002:00006528       ??_C@_1M@GHHLIKEI@?$AAe?$AAu?$AA?9?$AAe?$AAs?$AA?$AA@ 0000000180046528     libucrt:lcidtoname_downlevel.obj
 0002:00006538       ??_C@_1M@PBNONODE@?$AAf?$AAa?$AA?9?$AAi?$AAr?$AA?$AA@ 0000000180046538     libucrt:lcidtoname_downlevel.obj
 0002:00006548       ??_C@_1M@JEEHPMIL@?$AAf?$AAi?$AA?9?$AAf?$AAi?$AA?$AA@ 0000000180046548     libucrt:lcidtoname_downlevel.obj
 0002:00006558       ??_C@_1M@LMDCNDBA@?$AAf?$AAo?$AA?9?$AAf?$AAo?$AA?$AA@ 0000000180046558     libucrt:lcidtoname_downlevel.obj
 0002:00006568       ??_C@_1M@JKEOHLDK@?$AAf?$AAr?$AA?9?$AAb?$AAe?$AA?$AA@ 0000000180046568     libucrt:lcidtoname_downlevel.obj
 0002:00006578       ??_C@_1M@NOHADPMI@?$AAf?$AAr?$AA?9?$AAc?$AAa?$AA?$AA@ 0000000180046578     libucrt:lcidtoname_downlevel.obj
 0002:00006588       ??_C@_1M@KDHIHAEC@?$AAf?$AAr?$AA?9?$AAc?$AAh?$AA?$AA@ 0000000180046588     libucrt:lcidtoname_downlevel.obj
 0002:00006598       ??_C@_1M@MMBBFGAK@?$AAf?$AAr?$AA?9?$AAf?$AAr?$AA?$AA@ 0000000180046598     libucrt:lcidtoname_downlevel.obj
 0002:000065a8       ??_C@_1M@PAFNENNF@?$AAf?$AAr?$AA?9?$AAl?$AAu?$AA?$AA@ 00000001800465a8     libucrt:lcidtoname_downlevel.obj
 0002:000065b8       ??_C@_1M@EOHDJGDD@?$AAf?$AAr?$AA?9?$AAm?$AAc?$AA?$AA@ 00000001800465b8     libucrt:lcidtoname_downlevel.obj
 0002:000065c8       ??_C@_1M@FAPLLOPF@?$AAg?$AAl?$AA?9?$AAe?$AAs?$AA?$AA@ 00000001800465c8     libucrt:lcidtoname_downlevel.obj
 0002:000065d8       ??_C@_1M@FOPBFLOO@?$AAg?$AAu?$AA?9?$AAi?$AAn?$AA?$AA@ 00000001800465d8     libucrt:lcidtoname_downlevel.obj
 0002:000065e8       ??_C@_1M@KBMCINPM@?$AAh?$AAe?$AA?9?$AAi?$AAl?$AA?$AA@ 00000001800465e8     libucrt:lcidtoname_downlevel.obj
 0002:000065f8       ??_C@_1M@BBPHKFPJ@?$AAh?$AAi?$AA?9?$AAi?$AAn?$AA?$AA@ 00000001800465f8     libucrt:lcidtoname_downlevel.obj
 0002:00006608       ??_C@_1M@PMBNDPHD@?$AAh?$AAr?$AA?9?$AAb?$AAa?$AA?$AA@ 0000000180046608     libucrt:lcidtoname_downlevel.obj
 0002:00006618       ??_C@_1M@BPCKOEGE@?$AAh?$AAr?$AA?9?$AAh?$AAr?$AA?$AA@ 0000000180046618     libucrt:lcidtoname_downlevel.obj
 0002:00006628       ??_C@_1M@GACBMHKE@?$AAh?$AAu?$AA?9?$AAh?$AAu?$AA?$AA@ 0000000180046628     libucrt:lcidtoname_downlevel.obj
 0002:00006638       ??_C@_1M@MILPAJJC@?$AAh?$AAy?$AA?9?$AAa?$AAm?$AA?$AA@ 0000000180046638     libucrt:lcidtoname_downlevel.obj
 0002:00006648       ??_C@_1M@BABBICEC@?$AAi?$AAd?$AA?9?$AAi?$AAd?$AA?$AA@ 0000000180046648     libucrt:lcidtoname_downlevel.obj
 0002:00006658       ??_C@_1M@BIKNHHPF@?$AAi?$AAs?$AA?9?$AAi?$AAs?$AA?$AA@ 0000000180046658     libucrt:lcidtoname_downlevel.obj
 0002:00006668       ??_C@_1M@NMPCJPHE@?$AAi?$AAt?$AA?9?$AAc?$AAh?$AA?$AA@ 0000000180046668     libucrt:lcidtoname_downlevel.obj
 0002:00006678       ??_C@_1M@GHKGFEDF@?$AAi?$AAt?$AA?9?$AAi?$AAt?$AA?$AA@ 0000000180046678     libucrt:lcidtoname_downlevel.obj
 0002:00006688       ??_C@_1M@NIEJCJJA@?$AAj?$AAa?$AA?9?$AAj?$AAp?$AA?$AA@ 0000000180046688     libucrt:lcidtoname_downlevel.obj
 0002:00006698       ??_C@_1M@JILFNBIM@?$AAk?$AAa?$AA?9?$AAg?$AAe?$AA?$AA@ 0000000180046698     libucrt:lcidtoname_downlevel.obj
 0002:000066a8       ??_C@_1M@PACPMGPH@?$AAk?$AAk?$AA?9?$AAk?$AAz?$AA?$AA@ 00000001800466a8     libucrt:lcidtoname_downlevel.obj
 0002:000066b8       ??_C@_1M@IELFGMHA@?$AAk?$AAn?$AA?9?$AAi?$AAn?$AA?$AA@ 00000001800466b8     libucrt:lcidtoname_downlevel.obj
 0002:000066c8       ??_C@_1O@IBBJHCH@?$AAk?$AAo?$AAk?$AA?9?$AAi?$AAn?$AA?$AA@ 00000001800466c8     libucrt:lcidtoname_downlevel.obj
 0002:000066d8       ??_C@_1M@DMHAEOGC@?$AAk?$AAo?$AA?9?$AAk?$AAr?$AA?$AA@ 00000001800466d8     libucrt:lcidtoname_downlevel.obj
 0002:000066e8       ??_C@_1M@HBAHBIGA@?$AAk?$AAy?$AA?9?$AAk?$AAg?$AA?$AA@ 00000001800466e8     libucrt:lcidtoname_downlevel.obj
 0002:000066f8       ??_C@_1M@KPMILCJG@?$AAl?$AAt?$AA?9?$AAl?$AAt?$AA?$AA@ 00000001800466f8     libucrt:lcidtoname_downlevel.obj
 0002:00006708       ??_C@_1M@BDEKKCA@?$AAl?$AAv?$AA?9?$AAl?$AAv?$AA?$AA@ 0000000180046708     libucrt:lcidtoname_downlevel.obj
 0002:00006718       ??_C@_1M@ELCKCCJJ@?$AAm?$AAi?$AA?9?$AAn?$AAz?$AA?$AA@ 0000000180046718     libucrt:lcidtoname_downlevel.obj
 0002:00006728       ??_C@_1M@CBOOLAPA@?$AAm?$AAk?$AA?9?$AAm?$AAk?$AA?$AA@ 0000000180046728     libucrt:lcidtoname_downlevel.obj
 0002:00006738       ??_C@_1M@GPHNBJKN@?$AAm?$AAl?$AA?9?$AAi?$AAn?$AA?$AA@ 0000000180046738     libucrt:lcidtoname_downlevel.obj
 0002:00006748       ??_C@_1M@PABJILIG@?$AAm?$AAn?$AA?9?$AAm?$AAn?$AA?$AA@ 0000000180046748     libucrt:lcidtoname_downlevel.obj
 0002:00006758       ??_C@_1M@FGBKKIPG@?$AAm?$AAr?$AA?9?$AAi?$AAn?$AA?$AA@ 0000000180046758     libucrt:lcidtoname_downlevel.obj
 0002:00006768       ??_C@_1M@NDBPDDAL@?$AAm?$AAs?$AA?9?$AAb?$AAn?$AA?$AA@ 0000000180046768     libucrt:lcidtoname_downlevel.obj
 0002:00006778       ??_C@_1M@OPIHOOPI@?$AAm?$AAs?$AA?9?$AAm?$AAy?$AA?$AA@ 0000000180046778     libucrt:lcidtoname_downlevel.obj
 0002:00006788       ??_C@_1M@PPDBCNFM@?$AAm?$AAt?$AA?9?$AAm?$AAt?$AA?$AA@ 0000000180046788     libucrt:lcidtoname_downlevel.obj
 0002:00006798       ??_C@_1M@KDJDKMDD@?$AAn?$AAb?$AA?9?$AAn?$AAo?$AA?$AA@ 0000000180046798     libucrt:lcidtoname_downlevel.obj
 0002:000067a8       ??_C@_1M@KFCFLMJP@?$AAn?$AAl?$AA?9?$AAb?$AAe?$AA?$AA@ 00000001800467a8     libucrt:lcidtoname_downlevel.obj
 0002:000067b8       ??_C@_1M@KPOPDDGO@?$AAn?$AAl?$AA?9?$AAn?$AAl?$AA?$AA@ 00000001800467b8     libucrt:lcidtoname_downlevel.obj
 0002:000067c8       ??_C@_1M@LJKPEMLN@?$AAn?$AAn?$AA?9?$AAn?$AAo?$AA?$AA@ 00000001800467c8     libucrt:lcidtoname_downlevel.obj
 0002:000067d8       ??_C@_1M@BDGHHBFL@?$AAn?$AAs?$AA?9?$AAz?$AAa?$AA?$AA@ 00000001800467d8     libucrt:lcidtoname_downlevel.obj
 0002:000067e8       ??_C@_1M@IDEHOAP@?$AAp?$AAa?$AA?9?$AAi?$AAn?$AA?$AA@ 00000001800467e8     libucrt:lcidtoname_downlevel.obj
 0002:000067f8       ??_C@_1M@HDBKGOGH@?$AAp?$AAl?$AA?9?$AAp?$AAl?$AA?$AA@ 00000001800467f8     libucrt:lcidtoname_downlevel.obj
 0002:00006808       ??_C@_1M@LJLLCMEH@?$AAp?$AAt?$AA?9?$AAb?$AAr?$AA?$AA@ 0000000180046808     libucrt:lcidtoname_downlevel.obj
 0002:00006818       ??_C@_1M@NCMONAAL@?$AAp?$AAt?$AA?9?$AAp?$AAt?$AA?$AA@ 0000000180046818     libucrt:lcidtoname_downlevel.obj
 0002:00006828       ??_C@_1O@EAKMAJDN@?$AAq?$AAu?$AAz?$AA?9?$AAb?$AAo?$AA?$AA@ 0000000180046828     libucrt:lcidtoname_downlevel.obj
 0002:00006838       ??_C@_1O@BHHPIGDN@?$AAq?$AAu?$AAz?$AA?9?$AAe?$AAc?$AA?$AA@ 0000000180046838     libucrt:lcidtoname_downlevel.obj
 0002:00006848       ??_C@_1O@GBAPEKMJ@?$AAq?$AAu?$AAz?$AA?9?$AAp?$AAe?$AA?$AA@ 0000000180046848     libucrt:lcidtoname_downlevel.obj
 0002:00006858       ??_C@_1M@CLGLEFBO@?$AAr?$AAo?$AA?9?$AAr?$AAo?$AA?$AA@ 0000000180046858     libucrt:lcidtoname_downlevel.obj
 0002:00006868       ??_C@_1M@CEEDODME@?$AAr?$AAu?$AA?9?$AAr?$AAu?$AA?$AA@ 0000000180046868     libucrt:lcidtoname_downlevel.obj
 0002:00006878       ??_C@_1M@HPKKKMPP@?$AAs?$AAa?$AA?9?$AAi?$AAn?$AA?$AA@ 0000000180046878     libucrt:lcidtoname_downlevel.obj
 0002:00006888       ??_C@_1M@BKMAIGOJ@?$AAs?$AAe?$AA?9?$AAf?$AAi?$AA?$AA@ 0000000180046888     libucrt:lcidtoname_downlevel.obj
 0002:00006898       ??_C@_1M@NDPIFLFI@?$AAs?$AAe?$AA?9?$AAn?$AAo?$AA?$AA@ 0000000180046898     libucrt:lcidtoname_downlevel.obj
 0002:000068a8       ??_C@_1M@DANKKHJ@?$AAs?$AAe?$AA?9?$AAs?$AAe?$AA?$AA@ 00000001800468a8     libucrt:lcidtoname_downlevel.obj
 0002:000068b8       ??_C@_1M@PNBLONPJ@?$AAs?$AAk?$AA?9?$AAs?$AAk?$AA?$AA@ 00000001800468b8     libucrt:lcidtoname_downlevel.obj
 0002:000068c8       ??_C@_1M@LFMODOAL@?$AAs?$AAl?$AA?9?$AAs?$AAi?$AA?$AA@ 00000001800468c8     libucrt:lcidtoname_downlevel.obj
 0002:000068d8       ??_C@_1O@DFKOMPG@?$AAs?$AAm?$AAa?$AA?9?$AAn?$AAo?$AA?$AA@ 00000001800468d8     libucrt:lcidtoname_downlevel.obj
 0002:000068e8       ??_C@_1O@NDKPBNNH@?$AAs?$AAm?$AAa?$AA?9?$AAs?$AAe?$AA?$AA@ 00000001800468e8     libucrt:lcidtoname_downlevel.obj
 0002:000068f8       ??_C@_1O@PLLKBHAB@?$AAs?$AAm?$AAj?$AA?9?$AAn?$AAo?$AA?$AA@ 00000001800468f8     libucrt:lcidtoname_downlevel.obj
 0002:00006908       ??_C@_1O@CLEPOGCA@?$AAs?$AAm?$AAj?$AA?9?$AAs?$AAe?$AA?$AA@ 0000000180046908     libucrt:lcidtoname_downlevel.obj
 0002:00006918       ??_C@_1O@DLGJGKMK@?$AAs?$AAm?$AAn?$AA?9?$AAf?$AAi?$AA?$AA@ 0000000180046918     libucrt:lcidtoname_downlevel.obj
 0002:00006928       ??_C@_1O@OJDJGAJC@?$AAs?$AAm?$AAs?$AA?9?$AAf?$AAi?$AA?$AA@ 0000000180046928     libucrt:lcidtoname_downlevel.obj
 0002:00006938       ??_C@_1M@BOFOGHPB@?$AAs?$AAq?$AA?9?$AAa?$AAl?$AA?$AA@ 0000000180046938     libucrt:lcidtoname_downlevel.obj
 0002:00006948       ??_C@_1BG@LJBBIPGB@?$AAs?$AAr?$AA?9?$AAb?$AAa?$AA?9?$AAc?$AAy?$AAr?$AAl?$AA?$AA@ 0000000180046948     libucrt:lcidtoname_downlevel.obj
 0002:00006960       ??_C@_1BG@JLBENFOE@?$AAs?$AAr?$AA?9?$AAb?$AAa?$AA?9?$AAl?$AAa?$AAt?$AAn?$AA?$AA@ 0000000180046960     libucrt:lcidtoname_downlevel.obj
 0002:00006978       ??_C@_1BG@KODPNHE@?$AAs?$AAr?$AA?9?$AAs?$AAp?$AA?9?$AAc?$AAy?$AAr?$AAl?$AA?$AA@ 0000000180046978     libucrt:lcidtoname_downlevel.obj
 0002:00006990       ??_C@_1BG@CIOGKHPB@?$AAs?$AAr?$AA?9?$AAs?$AAp?$AA?9?$AAl?$AAa?$AAt?$AAn?$AA?$AA@ 0000000180046990     libucrt:lcidtoname_downlevel.obj
 0002:000069a8       ??_C@_1M@NGFJLMAC@?$AAs?$AAv?$AA?9?$AAf?$AAi?$AA?$AA@ 00000001800469a8     libucrt:lcidtoname_downlevel.obj
 0002:000069b8       ??_C@_1M@MPJEJAJC@?$AAs?$AAv?$AA?9?$AAs?$AAe?$AA?$AA@ 00000001800469b8     libucrt:lcidtoname_downlevel.obj
 0002:000069c8       ??_C@_1M@MPNDHLFK@?$AAs?$AAw?$AA?9?$AAk?$AAe?$AA?$AA@ 00000001800469c8     libucrt:lcidtoname_downlevel.obj
 0002:000069d8       ??_C@_1O@KOHBJJI@?$AAs?$AAy?$AAr?$AA?9?$AAs?$AAy?$AA?$AA@ 00000001800469d8     libucrt:lcidtoname_downlevel.obj
 0002:000069e8       ??_C@_1M@LDCEFHA@?$AAt?$AAa?$AA?9?$AAi?$AAn?$AA?$AA@ 00000001800469e8     libucrt:lcidtoname_downlevel.obj
 0002:000069f8       ??_C@_1M@CNJOFAK@?$AAt?$AAe?$AA?9?$AAi?$AAn?$AA?$AA@ 00000001800469f8     libucrt:lcidtoname_downlevel.obj
 0002:00006a08       ??_C@_1M@GNAECACD@?$AAt?$AAh?$AA?9?$AAt?$AAh?$AA?$AA@ 0000000180046a08     libucrt:lcidtoname_downlevel.obj
 0002:00006a18       ??_C@_1M@CHBIHOJO@?$AAt?$AAn?$AA?9?$AAz?$AAa?$AA?$AA@ 0000000180046a18     libucrt:lcidtoname_downlevel.obj
 0002:00006a28       ??_C@_1M@GCCMIGPJ@?$AAt?$AAr?$AA?9?$AAt?$AAr?$AA?$AA@ 0000000180046a28     libucrt:lcidtoname_downlevel.obj
 0002:00006a38       ??_C@_1M@CELMCNBK@?$AAt?$AAt?$AA?9?$AAr?$AAu?$AA?$AA@ 0000000180046a38     libucrt:lcidtoname_downlevel.obj
 0002:00006a48       ??_C@_1M@KLMCELGA@?$AAu?$AAk?$AA?9?$AAu?$AAa?$AA?$AA@ 0000000180046a48     libucrt:lcidtoname_downlevel.obj
 0002:00006a58       ??_C@_1M@EPAJJAJF@?$AAu?$AAr?$AA?9?$AAp?$AAk?$AA?$AA@ 0000000180046a58     libucrt:lcidtoname_downlevel.obj
 0002:00006a68       ??_C@_1BG@GEGPMCDJ@?$AAu?$AAz?$AA?9?$AAu?$AAz?$AA?9?$AAc?$AAy?$AAr?$AAl?$AA?$AA@ 0000000180046a68     libucrt:lcidtoname_downlevel.obj
 0002:00006a80       ??_C@_1BG@EGGKJILM@?$AAu?$AAz?$AA?9?$AAu?$AAz?$AA?9?$AAl?$AAa?$AAt?$AAn?$AA?$AA@ 0000000180046a80     libucrt:lcidtoname_downlevel.obj
 0002:00006a98       ??_C@_1M@GFOCLFF@?$AAv?$AAi?$AA?9?$AAv?$AAn?$AA?$AA@ 0000000180046a98     libucrt:lcidtoname_downlevel.obj
 0002:00006aa8       ??_C@_1M@CPAMEDFI@?$AAx?$AAh?$AA?9?$AAz?$AAa?$AA?$AA@ 0000000180046aa8     libucrt:lcidtoname_downlevel.obj
 0002:00006ab8       ??_C@_1O@EBKIFIGN@?$AAz?$AAh?$AA?9?$AAc?$AAh?$AAs?$AA?$AA@ 0000000180046ab8     libucrt:lcidtoname_downlevel.obj
 0002:00006ac8       ??_C@_1O@NMHPGANE@?$AAz?$AAh?$AA?9?$AAc?$AAh?$AAt?$AA?$AA@ 0000000180046ac8     libucrt:lcidtoname_downlevel.obj
 0002:00006ad8       ??_C@_1M@LPINJOMC@?$AAz?$AAh?$AA?9?$AAc?$AAn?$AA?$AA@ 0000000180046ad8     libucrt:lcidtoname_downlevel.obj
 0002:00006ae8       ??_C@_1M@OCJEJODD@?$AAz?$AAh?$AA?9?$AAh?$AAk?$AA?$AA@ 0000000180046ae8     libucrt:lcidtoname_downlevel.obj
 0002:00006af8       ??_C@_1M@DNDLJINH@?$AAz?$AAh?$AA?9?$AAm?$AAo?$AA?$AA@ 0000000180046af8     libucrt:lcidtoname_downlevel.obj
 0002:00006b08       ??_C@_1M@MBFDNDND@?$AAz?$AAh?$AA?9?$AAs?$AAg?$AA?$AA@ 0000000180046b08     libucrt:lcidtoname_downlevel.obj
 0002:00006b18       ??_C@_1M@IMEPLEPE@?$AAz?$AAh?$AA?9?$AAt?$AAw?$AA?$AA@ 0000000180046b18     libucrt:lcidtoname_downlevel.obj
 0002:00006b28       ??_C@_1M@BBGHNHJP@?$AAz?$AAu?$AA?9?$AAz?$AAa?$AA?$AA@ 0000000180046b28     libucrt:lcidtoname_downlevel.obj
 0002:00006b34       ??_C@_00CNPNBAHC@?$AA@     0000000180046b34     libucrt:mbrtowc.obj
 0002:00006b38       ??_C@_01GBGANLPD@0?$AA@    0000000180046b38     libucrt:cfout.obj
 0002:00006b3c       ??_C@_05DNEBIAHO@1?$CDINF?$AA@ 0000000180046b3c     libucrt:cfout.obj
 0002:00006b44       ??_C@_06IMKFLFPG@1?$CDQNAN?$AA@ 0000000180046b44     libucrt:cfout.obj
 0002:00006b4c       ??_C@_06PGGFOGJG@1?$CDSNAN?$AA@ 0000000180046b4c     libucrt:cfout.obj
 0002:00006b54       ??_C@_05PHHOCPM@1?$CDIND?$AA@ 0000000180046b54     libucrt:cfout.obj
 0002:00006b60       ??_C@_1BA@BALFACEM@?$AAC?$AAO?$AAN?$AAO?$AAU?$AAT?$AA$?$AA?$AA@ 0000000180046b60     libucrt:initcon.obj
 0002:00006df0       __log10_256_lead           0000000180046df0     libucrt:log10_256_lead_tail_table.obj
 0002:00007600       __log10_256_tail           0000000180047600     libucrt:log10_256_lead_tail_table.obj
 0002:00007e10       __log_F_inv_qword          0000000180047e10     libucrt:log_f_inv_qword_table.obj
 0002:00008620       ??_C@_1BK@DBDEIDLH@?$AAK?$AAE?$AAR?$AAN?$AAE?$AAL?$AA3?$AA2?$AA?4?$AAD?$AAL?$AAL@ 0000000180048620     DelayImp:delayhlp.obj
 0002:00008640       ??_C@_0BI@OMNLIJDB@AcquireSRWLockExclusive@ 0000000180048640     DelayImp:delayhlp.obj
 0002:00008658       ??_C@_0BI@HMIEPCNJ@ReleaseSRWLockExclusive@ 0000000180048658     DelayImp:delayhlp.obj
 0002:00008670       __pfnDliFailureHook2       0000000180048670     DelayImp:delayhk1.obj
 0002:00008680       _load_config_used          0000000180048680     LIBCMT:loadcfg.obj
 0002:00008780       ??_C@_06NEAFLOOF@PngImg@   0000000180048780     init.obj
 0002:00008788       ??_C@_0DD@NPIABEJI@c?3?2uplab?2hermione?2node_modules?2@ 0000000180048788     init.obj
 0002:000087c0       ??_C@_07GOCLPMNM@png_img@  00000001800487c0     init.obj
 0002:000087d0       ??_C@_1IA@NLBCBPIP@?$AAc?$AA?3?$AA?2?$AAu?$AAs?$AAe?$AAr?$AAs?$AA?2?$AAd?$AAi?$AAm?$AAa?$AAx?$AA?2@ 00000001800487d0     PngImgAdapter.obj
 0002:00008850       ??_C@_1DG@OKCGPKIB@?$AAp?$AAe?$AAr?$AAs?$AAi?$AAs?$AAt?$AAe?$AAn?$AAt?$AA?$CI?$AA?$CJ?$AA?4?$AAI?$AAs@ 0000000180048850     PngImgAdapter.obj
 0002:00008888       ??_C@_1CO@EGNPJLKI@?$AAp?$AAe?$AAr?$AAs?$AAi?$AAs?$AAt?$AAe?$AAn?$AAt?$AA?$CI?$AA?$CJ?$AA?4?$AAI?$AAs@ 0000000180048888     PngImgAdapter.obj
 0002:000088c0       ??_C@_1EC@NOLNIHNJ@?$AAh?$AAa?$AAn?$AAd?$AAl?$AAe?$AA?9?$AA?$DO?$AAI?$AAn?$AAt?$AAe?$AAr?$AAn?$AAa@ 00000001800488c0     PngImgAdapter.obj
 0002:00008908       ??_C@_1DA@FBGAEOIO@?$AA?$CB?$AAp?$AAe?$AAr?$AAs?$AAi?$AAs?$AAt?$AAe?$AAn?$AAt?$AA?$CI?$AA?$CJ?$AA?4?$AAI@ 0000000180048908     PngImgAdapter.obj
 0002:00008938       ??_C@_1CO@JCKLEFMA@?$AA?$CB?$AAp?$AAe?$AAr?$AAs?$AAi?$AAs?$AAt?$AAe?$AAn?$AAt?$AA?$CI?$AA?$CJ?$AA?4?$AAI@ 0000000180048938     PngImgAdapter.obj
 0002:00008968       ??_C@_1BE@GMLLOIPJ@?$AAr?$AAe?$AAf?$AAs?$AA_?$AA?5?$AA?$DO?$AA?5?$AA0@ 0000000180048968     PngImgAdapter.obj
 0002:00008980       ??_C@_1CC@GBFLAAPF@?$AAw?$AAr?$AAa?$AAp?$AA?9?$AA?$DO?$AAr?$AAe?$AAf?$AAs?$AA_?$AA?5?$AA?$DN?$AA?$DN?$AA?5@ 0000000180048980     PngImgAdapter.obj
 0002:000089a8       ??_C@_0BG@HGEDEDEC@invalid?5stoi?5argument@ 00000001800489a8     PngImgAdapter.obj
 0002:000089c0       ??_C@_0BL@MFFNMGGC@stoi?5argument?5out?5of?5range@ 00000001800489c0     PngImgAdapter.obj
 0002:000089e0       ??_C@_0BA@JFNIOLAK@string?5too?5long@ 00000001800489e0     PngImgAdapter.obj
 0002:000089f0       ??_C@_1FC@HNOODKJL@?$AAc?$AA?3?$AA?2?$AAu?$AAp?$AAl?$AAa?$AAb?$AA?2?$AAh?$AAe?$AAr?$AAm?$AAi?$AAo@ 00000001800489f0     PngImgAdapter.obj
 0002:00008a48       ??_C@_1BO@OPFMAOCA@?$AAl?$AAe?$AAn?$AA?5?$AA?$DM?$AA?$DN?$AA?5?$AAI?$AAN?$AAT?$AA_?$AAM?$AAA?$AAX@ 0000000180048a48     PngImgAdapter.obj
 0002:00008a68       ??_C@_1BE@CKDJNAPC@?$AAs?$AAt?$AAr?$AA_?$AA?5?$AA?$CB?$AA?$DN?$AA?5?$AA0@ 0000000180048a68     PngImgAdapter.obj
 0002:00008a7c       ??_C@_05IGKADHGO@width@    0000000180048a7c     PngImgAdapter.obj
 0002:00008a84       ??_C@_06LNLHEAAG@height@   0000000180048a84     PngImgAdapter.obj
 0002:00008a8c       ??_C@_03HNAFFKGA@get@      0000000180048a8c     PngImgAdapter.obj
 0002:00008a90       ??_C@_04OBAECEGJ@fill@     0000000180048a90     PngImgAdapter.obj
 0002:00008a98       ??_C@_04EKMNJIID@crop@     0000000180048a98     PngImgAdapter.obj
 0002:00008aa0       ??_C@_07IJEOOFIG@setSize@  0000000180048aa0     PngImgAdapter.obj
 0002:00008aa8       ??_C@_06OAOPNKHP@insert@   0000000180048aa8     PngImgAdapter.obj
 0002:00008ab0       ??_C@_0M@LEFLFNDI@rotateRight@ 0000000180048ab0     PngImgAdapter.obj
 0002:00008ac0       ??_C@_0L@HFDIBLOI@rotateLeft@ 0000000180048ac0     PngImgAdapter.obj
 0002:00008acc       ??_C@_05NGFEDHGN@write@    0000000180048acc     PngImgAdapter.obj
 0002:00008ad8       ??_C@_0CE@FLCJBEGJ@Cannot?5call?5constructor?5as?5func@ 0000000180048ad8     PngImgAdapter.obj
 0002:00008b00       ??_C@_0BB@GMEJBHFK@To?5few?5arguments@ 0000000180048b00     PngImgAdapter.obj
 0002:00008b18       ??_C@_0CC@LBODBMCG@First?5argument?5should?5be?5a?5buff@ 0000000180048b18     PngImgAdapter.obj
 0002:00008b40       ??_C@_09PECDMNEI@Not?5a?5PNG@ 0000000180048b40     PngImgAdapter.obj
 0002:00008b4c       ??_C@_01KDCPPGHE@r@        0000000180048b4c     PngImgAdapter.obj
 0002:00008b50       ??_C@_01JEJKBAGA@g@        0000000180048b50     PngImgAdapter.obj
 0002:00008b54       ??_C@_01OJONOECF@b@        0000000180048b54     PngImgAdapter.obj
 0002:00008b58       ??_C@_01MCMALHOG@a@        0000000180048b58     PngImgAdapter.obj
 0002:00008b60       ??_C@_1CE@IAEMMFJ@?$AA?$CB?$AAh?$AAa?$AAn?$AAd?$AAl?$AAe?$AA?4?$AAI?$AAs?$AAE?$AAm?$AAp?$AAt?$AAy@ 0000000180048b60     PngImgAdapter.obj
 0002:00008b88       ??_7ObjectWrap@node@@6B@   0000000180048b88     PngImgAdapter.obj
 0002:00008ba0       ??_7AsyncWorker@Nan@@6B@   0000000180048ba0     PngImgAdapter.obj
 0002:00008bd0       ??_7SaveWorker@@6B@        0000000180048bd0     PngImgAdapter.obj
 0002:00008c00       ??_7PngImgAdapter@@6B@     0000000180048c00     PngImgAdapter.obj
 0002:00008c18       ??_C@_06KBCOADFK@1?46?414@ 0000000180048c18     PngImg.obj
 0002:00008c20       ??_C@_0BC@IMDFGHKM@Out?5of?5the?5bounds@ 0000000180048c20     PngImg.obj
 0002:00008c34       ??_C@_02GMLFBBN@wb@        0000000180048c34     PngImg.obj
 0002:00008c38       ??_C@_0BM@MLGNCOGE@Can?8t?5open?5file?5for?5writing@ 0000000180048c38     PngImg.obj
 0002:00008c58       ??_C@_0BJ@GBFCPIIO@Can?8t?5create?5png?5structs@ 0000000180048c58     PngImg.obj
 0002:00008c78       ??_C@_0BB@OADLCFLG@Can?8t?5write?5file@ 0000000180048c78     PngImg.obj
 0002:00008c90       ??_C@_0BD@OLBABOEK@vector?$DMT?$DO?5too?5long@ 0000000180048c90     PngImg.obj
 0002:00008ca8       ??_7?$_Func_impl_no_alloc@V<lambda_b270b1f630724084d5f3bb877471ea65>@@XPEAPEAUpng_struct_def@@PEAPEAUpng_info_def@@@std@@6B@ 0000000180048ca8     PngImg.obj
 0002:00008d08       ??_7?$_Func_impl_no_alloc@P6APEAUpng_struct_def@@PEBDPEAXP6AXPEAU1@0@Z3@ZPEAU1@PEBDPEAXP6AX20@ZP6AX20@Z@std@@6B@ 0000000180048d08     PngImg.obj
 0002:00008d38       ??_7?$_Func_impl_no_alloc@V<lambda_2a721ab91676828147c5c332544348da>@@XPEAPEAUpng_struct_def@@PEAPEAUpng_info_def@@@std@@6B@ 0000000180048d38     PngImg.obj
 0002:00008d98       ??_C@_08HCOMDCCD@iojs?4exe@ 0000000180048d98     win_delay_load_hook.obj
 0002:00008da8       ??_C@_08JDDNMFDB@node?4exe@ 0000000180048da8     win_delay_load_hook.obj
 0002:00008dc0       __pfnDliNotifyHook2        0000000180048dc0     win_delay_load_hook.obj
 0002:00008df0       png_sRGB_base              0000000180048df0     libpng:png.obj
 0002:000091f0       png_sRGB_delta             00000001800491f0     libpng:png.obj
 0002:00009440       png_sRGB_table             0000000180049440     libpng:png.obj
 0002:0000c5c0       z_errmsg                   000000018004c5c0     zlib:zutil.obj
 0002:0000c710       _length_code               000000018004c710     zlib:trees.obj
 0002:0000c810       _dist_code                 000000018004c810     zlib:trees.obj
 0002:0000d180       ??_C@_0CD@PGGPKBFM@Potential?5overflow?5in?5png_zallo@ 000000018004d180     libpng:png.obj
 0002:0000d1b0       ??_C@_0BP@LLMNPADO@Application?5built?5with?5libpng?9@ 000000018004d1b0     libpng:png.obj
 0002:0000d1d0       ??_C@_0BD@IECHPOPJ@?5but?5running?5with?5@ 000000018004d1d0     libpng:png.obj
 0002:0000d1f0       ??_C@_0BM@FGHKPJNF@Ignoring?5invalid?5time?5value@ 000000018004d1f0     libpng:png.obj
 0002:0000d210       ??_C@_0BM@FGGHCFBF@unexpected?5zlib?5return?5code@ 000000018004d210     libpng:png.obj
 0002:0000d230       ??_C@_0BM@DCGHBGGB@unexpected?5end?5of?5LZ?5stream@ 000000018004d230     libpng:png.obj
 0002:0000d250       ??_C@_0BG@MPHEFODE@missing?5LZ?5dictionary@ 000000018004d250     libpng:png.obj
 0002:0000d268       ??_C@_0O@HJOFHIEK@zlib?5IO?5error@ 000000018004d268     libpng:png.obj
 0002:0000d278       ??_C@_0BH@MLOBAKCG@bad?5parameters?5to?5zlib@ 000000018004d278     libpng:png.obj
 0002:0000d290       ??_C@_0BC@NNBNLNOK@damaged?5LZ?5stream@ 000000018004d290     libpng:png.obj
 0002:0000d2a8       ??_C@_0BE@OGGJBMCE@insufficient?5memory@ 000000018004d2a8     libpng:png.obj
 0002:0000d2c0       ??_C@_09IDFJECNO@truncated@ 000000018004d2c0     libpng:png.obj
 0002:0000d2d0       ??_C@_0BJ@EHGGFMEH@unsupported?5zlib?5version@ 000000018004d2d0     libpng:png.obj
 0002:0000d2f0       ??_C@_0BH@MPOINNNJ@unexpected?5zlib?5return@ 000000018004d2f0     libpng:png.obj
 0002:0000d310       ??_C@_0CA@CLCNGBEC@gamma?5value?5does?5not?5match?5sRGB@ 000000018004d310     libpng:png.obj
 0002:0000d330       ??_C@_0CL@GOLDHPHF@gamma?5value?5does?5not?5match?5libp@ 000000018004d330     libpng:png.obj
 0002:0000d360       ??_C@_0BJ@PAAJEMGL@gamma?5value?5out?5of?5range@ 000000018004d360     libpng:png.obj
 0002:0000d380       ??_C@_09KHIKJOBP@duplicate@ 000000018004d380     libpng:png.obj
 0002:0000d390       ??_C@_0BM@HJJDGHNN@inconsistent?5chromaticities@ 000000018004d390     libpng:png.obj
 0002:0000d3b0       ??_C@_0BH@LBOFIDPO@invalid?5chromaticities@ 000000018004d3b0     libpng:png.obj
 0002:0000d3c8       ??_C@_0CH@BBPMHCN@internal?5error?5checking?5chromat@ 000000018004d3c8     libpng:png.obj
 0002:0000d3f0       ??_C@_09EIINAFOA@profile?5?8@ 000000018004d3f0     libpng:png.obj
 0002:0000d3fc       ??_C@_03FPCGPDIA@?8?3?5@   000000018004d3fc     libpng:png.obj
 0002:0000d400       ??_C@_03JMFBLLOL@h?3?5@    000000018004d400     libpng:png.obj
 0002:0000d410       ??_C@_0BO@IGFOGDFM@invalid?5sRGB?5rendering?5intent@ 000000018004d410     libpng:png.obj
 0002:0000d430       ??_C@_04FBDBODBG@sRGB@     000000018004d430     libpng:png.obj
 0002:0000d440       ??_C@_0BP@PJLHGALD@inconsistent?5rendering?5intents@ 000000018004d440     libpng:png.obj
 0002:0000d460       ??_C@_0CD@CDNBECKE@duplicate?5sRGB?5information?5igno@ 000000018004d460     libpng:png.obj
 0002:0000d490       ??_C@_0BP@NCEJAGKE@cHRM?5chunk?5does?5not?5match?5sRGB@ 000000018004d490     libpng:png.obj
 0002:0000d4b0       ??_C@_09PNOMNDOP@too?5short@ 000000018004d4b0     libpng:png.obj
 0002:0000d4c0       ??_C@_0BO@EOFNLIJI@length?5does?5not?5match?5profile@ 000000018004d4c0     libpng:png.obj
 0002:0000d4e0       ??_C@_0P@BHAFPBHF@invalid?5length@ 000000018004d4e0     libpng:png.obj
 0002:0000d4f0       ??_C@_0BE@CNFFOELI@tag?5count?5too?5large@ 000000018004d4f0     libpng:png.obj
 0002:0000d510       ??_C@_0BJ@NOHNGFGM@invalid?5rendering?5intent@ 000000018004d510     libpng:png.obj
 0002:0000d530       ??_C@_0BN@BMHOENEG@intent?5outside?5defined?5range@ 000000018004d530     libpng:png.obj
 0002:0000d550       ??_C@_0BC@HAKEGDIP@invalid?5signature@ 000000018004d550     libpng:png.obj
 0002:0000d570       ??_C@_0BK@MEJNAFGD@PCS?5illuminant?5is?5not?5D50@ 000000018004d570     libpng:png.obj
 0002:0000d590       ??_C@_0CP@GHPMDODC@RGB?5color?5space?5not?5permitted?5o@ 000000018004d590     libpng:png.obj
 0002:0000d5c0       ??_C@_0CK@CEMFCLCA@Gray?5color?5space?5not?5permitted?5@ 000000018004d5c0     libpng:png.obj
 0002:0000d5f0       ??_C@_0CA@HOHKIILJ@invalid?5ICC?5profile?5color?5space@ 000000018004d5f0     libpng:png.obj
 0002:0000d610       ??_C@_0CG@INEPEFFI@invalid?5embedded?5Abstract?5ICC?5p@ 000000018004d610     libpng:png.obj
 0002:0000d640       ??_C@_0CI@NFBGKLIH@unexpected?5DeviceLink?5ICC?5profi@ 000000018004d640     libpng:png.obj
 0002:0000d670       ??_C@_0CI@NDFPJEMP@unexpected?5NamedColor?5ICC?5profi@ 000000018004d670     libpng:png.obj
 0002:0000d6a0       ??_C@_0BP@DOFHBNBO@unrecognized?5ICC?5profile?5class@ 000000018004d6a0     libpng:png.obj
 0002:0000d6c0       ??_C@_0BM@BPHIMDPD@unexpected?5ICC?5PCS?5encoding@ 000000018004d6c0     libpng:png.obj
 0002:0000d6e0       ??_C@_0CK@FLMCLBG@ICC?5profile?5tag?5start?5not?5a?5mul@ 000000018004d6e0     libpng:png.obj
 0002:0000d710       ??_C@_0CA@NKEPDGAJ@ICC?5profile?5tag?5outside?5profile@ 000000018004d710     libpng:png.obj
 0002:0000d730       ??_C@_0BN@NGLMALGM@known?5incorrect?5sRGB?5profile@ 000000018004d730     libpng:png.obj
 0002:0000d750       ??_C@_0CL@KMCEELKM@out?9of?9date?5sRGB?5profile?5with?5n@ 000000018004d750     libpng:png.obj
 0002:0000d780       ??_C@_0DI@OPGPJMBN@Not?5recognizing?5known?5sRGB?5prof@ 000000018004d780     libpng:png.obj
 0002:0000d7b8       ??_C@_0CK@DCDMPLDM@internal?5error?5handling?5cHRM?5co@ 000000018004d7b8     libpng:png.obj
 0002:0000d7e8       ??_C@_0CC@BANLOLFJ@internal?5error?5handling?5cHRM?9?$DOX@ 000000018004d7e8     libpng:png.obj
 0002:0000d810       ??_C@_0BM@CEAELHL@Image?5width?5is?5zero?5in?5IHDR@ 000000018004d810     libpng:png.obj
 0002:0000d830       ??_C@_0BM@KHHGCJLE@Invalid?5image?5width?5in?5IHDR@ 000000018004d830     libpng:png.obj
 0002:0000d850       ??_C@_0CH@COHNFPDF@Image?5width?5exceeds?5user?5limit?5@ 000000018004d850     libpng:png.obj
 0002:0000d880       ??_C@_0BN@CMEOFBLN@Image?5height?5is?5zero?5in?5IHDR@ 000000018004d880     libpng:png.obj
 0002:0000d8a0       ??_C@_0BN@NOEKCPOM@Invalid?5image?5height?5in?5IHDR@ 000000018004d8a0     libpng:png.obj
 0002:0000d8c0       ??_C@_0CI@HDNDADNB@Image?5height?5exceeds?5user?5limit@ 000000018004d8c0     libpng:png.obj
 0002:0000d8f0       ??_C@_0BK@OAKOLNFJ@Invalid?5bit?5depth?5in?5IHDR@ 000000018004d8f0     libpng:png.obj
 0002:0000d910       ??_C@_0BL@KPIFPGMP@Invalid?5color?5type?5in?5IHDR@ 000000018004d910     libpng:png.obj
 0002:0000d930       ??_C@_0DB@FGMBGHOJ@Invalid?5color?5type?1bit?5depth?5co@ 000000018004d930     libpng:png.obj
 0002:0000d970       ??_C@_0CB@EMHJMLOA@Unknown?5interlace?5method?5in?5IHD@ 000000018004d970     libpng:png.obj
 0002:0000d9a0       ??_C@_0CD@DDOOCEDP@Unknown?5compression?5method?5in?5I@ 000000018004d9a0     libpng:png.obj
 0002:0000d9d0       ??_C@_0DB@CJBLKABO@MNG?5features?5are?5not?5allowed?5in@ 000000018004d9d0     libpng:png.obj
 0002:0000da10       ??_C@_0BO@KOOEGEDO@Unknown?5filter?5method?5in?5IHDR@ 000000018004da10     libpng:png.obj
 0002:0000da30       ??_C@_0BO@PAJOKPHG@Invalid?5filter?5method?5in?5IHDR@ 000000018004da30     libpng:png.obj
 0002:0000da50       ??_C@_0BC@MEPNMCAI@Invalid?5IHDR?5data@ 000000018004da50     libpng:png.obj
 0002:0000da70       ??_C@_0BK@FEDMIILC@gamma?5table?5being?5rebuilt@ 000000018004da70     libpng:png.obj
 0002:0000da90       ??_C@_0CC@MDLFHCPJ@Writing?5zero?9length?5unknown?5chu@ 000000018004da90     libpng:pngwrite.obj
 0002:0000dac0       ??_C@_0CO@EFONKKHE@profile?5matches?5sRGB?5but?5writin@ 000000018004dac0     libpng:pngwrite.obj
 0002:0000daf0       ??_C@_0CL@BBINJHDH@Valid?5palette?5required?5for?5pale@ 000000018004daf0     libpng:pngwrite.obj
 0002:0000db20       ??_C@_0BL@LMBFPIMK@No?5IDATs?5written?5into?5file@ 000000018004db20     libpng:pngwrite.obj
 0002:0000db40       ??_C@_0CK@IDMGDACI@Wrote?5palette?5index?5exceeding?5n@ 000000018004db40     libpng:pngwrite.obj
 0002:0000db70       ??_C@_0DF@HCKCLABC@png_write_info?5was?5never?5called@ 000000018004db70     libpng:pngwrite.obj
 0002:0000dba8       ??_C@_0CF@LGBPMINO@internal?5write?5transform?5logic?5@ 000000018004dba8     libpng:pngwrite.obj
 0002:0000dbd0       ??_C@_0CF@BOPBPFII@no?5rows?5for?5png_write_image?5to?5@ 000000018004dbd0     libpng:pngwrite.obj
 0002:0000dbf8       ??_C@_0BP@OGHIMAJC@Libpng?5jmp_buf?5still?5allocated@ 000000018004dbf8     libpng:pngerror.obj
 0002:0000dc20       ??_C@_0CB@MNPMICGC@Application?5jmp_buf?5size?5change@ 000000018004dc20     libpng:pngerror.obj
 0002:0000dc48       ??_C@_09MLGAJAED@undefined@ 000000018004dc48     libpng:pngerror.obj
 0002:0000dc58       ??_C@_0BB@FHIOKKKG@libpng?5error?3?5?$CFs@ 000000018004dc58     libpng:pngerror.obj
 0002:0000dc6c       ??_C@_01EEMJAFIK@?6@       000000018004dc6c     libpng:pngerror.obj
 0002:0000dc70       ??_C@_0BD@OLJIBHNB@libpng?5warning?3?5?$CFs@ 000000018004dc70     libpng:pngerror.obj
 0002:0000dc88       ??_C@_0BJ@FFGICIDJ@Missing?5IHDR?5before?5IDAT@ 000000018004dc88     libpng:pngread.obj
 0002:0000dca8       ??_C@_0BJ@LAKDHAPN@Missing?5PLTE?5before?5IDAT@ 000000018004dca8     libpng:pngread.obj
 0002:0000dcc8       ??_C@_0BF@DJLIMHLL@Too?5many?5IDATs?5found@ 000000018004dcc8     libpng:pngread.obj
 0002:0000dce0       ??_C@_0CB@KCPNIGFM@Invalid?5attempt?5to?5read?5row?5dat@ 000000018004dce0     libpng:pngread.obj
 0002:0000dd08       ??_C@_0BK@CONOMAKG@bad?5adaptive?5filter?5value@ 000000018004dd08     libpng:pngread.obj
 0002:0000dd28       ??_C@_0BI@DKBHKBPF@sequential?5row?5overflow@ 000000018004dd28     libpng:pngread.obj
 0002:0000dd40       ??_C@_0CP@OINAJLHB@internal?5sequential?5row?5size?5ca@ 000000018004dd40     libpng:pngread.obj
 0002:0000dd70       ??_C@_0EB@BJILBCPL@Interlace?5handling?5should?5be?5tu@ 000000018004dd70     libpng:pngread.obj
 0002:0000ddb8       ??_C@_0BL@GPADEDKN@Call?5to?5NULL?5read?5function@ 000000018004ddb8     libpng:pngrio.obj
 0002:0000ddd8       ??_C@_0L@BAFDDAPG@Read?5Error@ 000000018004ddd8     libpng:pngrio.obj
 0002:0000ddf0       ??_C@_0EE@LKAKJMIG@Can?8t?5set?5both?5read_data_fn?5and@ 000000018004ddf0     libpng:pngrio.obj
 0002:0000de40       ??_C@_0CO@CLNKJNCD@Invalid?5palette?5size?0?5hIST?5allo@ 000000018004de40     libpng:pngset.obj
 0002:0000de70       ??_C@_0CI@FEJILDIH@Insufficient?5memory?5for?5hIST?5ch@ 000000018004de70     libpng:pngset.obj
 0002:0000de98       ??_C@_0BL@BGONKFBB@Invalid?5pCAL?5equation?5type@ 000000018004de98     libpng:pngset.obj
 0002:0000deb8       ??_C@_0BN@FHGDAAAD@Invalid?5pCAL?5parameter?5count@ 000000018004deb8     libpng:pngset.obj
 0002:0000ded8       ??_C@_0CC@LPAJHANK@Invalid?5format?5for?5pCAL?5paramet@ 000000018004ded8     libpng:pngset.obj
 0002:0000df00       ??_C@_0CF@CKIMKPAH@Insufficient?5memory?5for?5pCAL?5pu@ 000000018004df00     libpng:pngset.obj
 0002:0000df30       ??_C@_0CD@PAPNLFE@Insufficient?5memory?5for?5pCAL?5un@ 000000018004df30     libpng:pngset.obj
 0002:0000df60       ??_C@_0CE@KNDKKCDF@Insufficient?5memory?5for?5pCAL?5pa@ 000000018004df60     libpng:pngset.obj
 0002:0000df90       ??_C@_0CH@CAHFGHFJ@Insufficient?5memory?5for?5pCAL?5pa@ 000000018004df90     libpng:pngset.obj
 0002:0000dfb8       ??_C@_0BC@GANANPIA@Invalid?5sCAL?5unit@ 000000018004dfb8     libpng:pngset.obj
 0002:0000dfd0       ??_C@_0BD@ENHOBHJG@Invalid?5sCAL?5width@ 000000018004dfd0     libpng:pngset.obj
 0002:0000dfe8       ??_C@_0BE@OBKOEAI@Invalid?5sCAL?5height@ 000000018004dfe8     libpng:pngset.obj
 0002:0000e000       ??_C@_0CP@EHHAKMDE@Memory?5allocation?5failed?5while?5@ 000000018004e000     libpng:pngset.obj
 0002:0000e030       ??_C@_0BH@IKBNLCFC@Invalid?5palette?5length@ 000000018004e030     libpng:pngset.obj
 0002:0000e048       ??_C@_0BA@NCKCMMNF@Invalid?5palette@ 000000018004e048     libpng:pngset.obj
 0002:0000e060       ??_C@_0BF@EPLDENLO@too?5many?5text?5chunks@ 000000018004e060     libpng:pngset.obj
 0002:0000e080       ??_C@_0CG@KOBFBGAM@text?5compression?5mode?5is?5out?5of@ 000000018004e080     libpng:pngset.obj
 0002:0000e0b0       ??_C@_0BK@FPMAJGNB@text?5chunk?3?5out?5of?5memory@ 000000018004e0b0     libpng:pngset.obj
 0002:0000e0d0       ??_C@_0DC@BAKLMMNF@tRNS?5chunk?5has?5out?9of?9range?5sam@ 000000018004e0d0     libpng:pngset.obj
 0002:0000e110       ??_C@_0BF@IBPPODIO@too?5many?5sPLT?5chunks@ 000000018004e110     libpng:pngset.obj
 0002:0000e130       ??_C@_0BL@FDLCPBMN@png_set_sPLT?3?5invalid?5sPLT@ 000000018004e130     libpng:pngset.obj
 0002:0000e150       ??_C@_0BD@FCEBHNK@sPLT?5out?5of?5memory@ 000000018004e150     libpng:pngset.obj
 0002:0000e170       ??_C@_0DE@GDJFMIAK@png_set_unknown_chunks?5now?5expe@ 000000018004e170     libpng:pngset.obj
 0002:0000e1a8       ??_C@_0CL@HCECGJBJ@invalid?5location?5in?5png_set_unk@ 000000018004e1a8     libpng:pngset.obj
 0002:0000e1e0       ??_C@_0BI@DHBNAPDO@too?5many?5unknown?5chunks@ 000000018004e1e0     libpng:pngset.obj
 0002:0000e200       ??_C@_0BN@IMBDGIBC@unknown?5chunk?3?5out?5of?5memory@ 000000018004e200     libpng:pngset.obj
 0002:0000e220       ??_C@_0BM@JALLIJNF@internal?5error?3?5array?5alloc@ 000000018004e220     libpng:pngmem.obj
 0002:0000e240       ??_C@_0BO@KBIBCEFP@internal?5error?3?5array?5realloc@ 000000018004e240     libpng:pngmem.obj
 0002:0000e260       ??_C@_0O@NALGGDJF@Out?5of?5memory@ 000000018004e260     libpng:pngmem.obj
 0002:0000e270       ??_C@_0BL@FIFGACAA@length?5exceeds?5PNG?5maximum@ 000000018004e270     libpng:pngwutil.obj
 0002:0000e290       ??_C@_0P@KJIHHBLD@?5using?5zstream@ 000000018004e290     libpng:pngwutil.obj
 0002:0000e2a0       ??_C@_0P@IEMGANLE@in?5use?5by?5IDAT@ 000000018004e2a0     libpng:pngwutil.obj
 0002:0000e2b0       ??_C@_0BM@OCCEEGNK@deflateEnd?5failed?5?$CIignored?$CJ@ 000000018004e2b0     libpng:pngwutil.obj
 0002:0000e2cc       ??_C@_06CJNJFBNP@1?42?411@ 000000018004e2cc     libpng:pngwutil.obj
 0002:0000e2d8       ??_C@_0BJ@IAKKIGHC@compressed?5data?5too?5long@ 000000018004e2d8     libpng:pngwutil.obj
 0002:0000e2f8       ??_C@_0DA@PBMGOJBC@error?5writing?5ancillary?5chunked@ 000000018004e2f8     libpng:pngwutil.obj
 0002:0000e330       ??_C@_0BC@KIPGKHJI@keyword?5truncated@ 000000018004e330     libpng:pngwutil.obj
 0002:0000e350       ??_C@_0CD@ECFBBIHG@keyword?5?$CC?$EA1?$CC?3?5bad?5character?5?80x@ 000000018004e350     libpng:pngwutil.obj
 0002:0000e378       ??_C@_0CG@NMBHOEGJ@Invalid?5bit?5depth?5for?5grayscale@ 000000018004e378     libpng:pngwutil.obj
 0002:0000e3a0       ??_C@_0CA@JFINDAEN@Invalid?5bit?5depth?5for?5RGB?5image@ 000000018004e3a0     libpng:pngwutil.obj
 0002:0000e3c0       ??_C@_0CF@KCHGLJIB@Invalid?5bit?5depth?5for?5paletted?5@ 000000018004e3c0     libpng:pngwutil.obj
 0002:0000e3e8       ??_C@_0CM@FPEKKHEM@Invalid?5bit?5depth?5for?5grayscale@ 000000018004e3e8     libpng:pngwutil.obj
 0002:0000e418       ??_C@_0CB@KFCOJLNF@Invalid?5bit?5depth?5for?5RGBA?5imag@ 000000018004e418     libpng:pngwutil.obj
 0002:0000e440       ??_C@_0CD@BMDFBAM@Invalid?5image?5color?5type?5specif@ 000000018004e440     libpng:pngwutil.obj
 0002:0000e470       ??_C@_0CD@KAANFJDM@Invalid?5compression?5type?5specif@ 000000018004e470     libpng:pngwutil.obj
 0002:0000e4a0       ??_C@_0BO@NHOMDFKG@Invalid?5filter?5type?5specified@ 000000018004e4a0     libpng:pngwutil.obj
 0002:0000e4c0       ??_C@_0CB@INFMBLLB@Invalid?5interlace?5type?5specifie@ 000000018004e4c0     libpng:pngwutil.obj
 0002:0000e4f0       ??_C@_0CE@HMOECEJ@Invalid?5number?5of?5colors?5in?5pal@ 000000018004e4f0     libpng:pngwutil.obj
 0002:0000e520       ??_C@_0DI@EOMIECBC@Ignoring?5request?5to?5write?5a?5PLT@ 000000018004e520     libpng:pngwutil.obj
 0002:0000e558       ??_C@_0CD@BPNHOCCE@Z_OK?5on?5Z_FINISH?5with?5output?5sp@ 000000018004e558     libpng:pngwutil.obj
 0002:0000e580       ??_C@_0CI@CGCNKNIG@Invalid?5sRGB?5rendering?5intent?5s@ 000000018004e580     libpng:pngwutil.obj
 0002:0000e5a8       ??_C@_0BK@JEAONDOG@No?5profile?5for?5iCCP?5chunk@ 000000018004e5a8     libpng:pngwutil.obj
 0002:0000e5c8       ??_C@_0BG@MPGAAJPH@ICC?5profile?5too?5short@ 000000018004e5c8     libpng:pngwutil.obj
 0002:0000e5e0       ??_C@_0DB@CAJKDDJN@ICC?5profile?5length?5invalid?5?$CInot@ 000000018004e5e0     libpng:pngwutil.obj
 0002:0000e618       ??_C@_0BG@GPLJJLKB@iCCP?3?5invalid?5keyword@ 000000018004e618     libpng:pngwutil.obj
 0002:0000e630       ??_C@_0BG@PEFANDKM@sPLT?3?5invalid?5keyword@ 000000018004e630     libpng:pngwutil.obj
 0002:0000e650       ??_C@_0BN@EBBMENIF@Invalid?5sBIT?5depth?5specified@ 000000018004e650     libpng:pngwutil.obj
 0002:0000e670       ??_C@_0CP@PFJBFCBG@Invalid?5number?5of?5transparent?5c@ 000000018004e670     libpng:pngwutil.obj
 0002:0000e6a0       ??_C@_0EA@GMIFOPEM@Ignoring?5attempt?5to?5write?5tRNS?5@ 000000018004e6a0     libpng:pngwutil.obj
 0002:0000e6e0       ??_C@_0EA@JIMPJFKJ@Ignoring?5attempt?5to?5write?516?9bi@ 000000018004e6e0     libpng:pngwutil.obj
 0002:0000e720       ??_C@_0CH@JCFDIEK@Can?8t?5write?5tRNS?5with?5an?5alpha?5@ 000000018004e720     libpng:pngwutil.obj
 0002:0000e750       ??_C@_0CB@BIGCBPLL@Invalid?5background?5palette?5inde@ 000000018004e750     libpng:pngwutil.obj
 0002:0000e780       ??_C@_0EA@PGJGJFFB@Ignoring?5attempt?5to?5write?516?9bi@ 000000018004e780     libpng:pngwutil.obj
 0002:0000e7c0       ??_C@_0EA@NFOOLGHI@Ignoring?5attempt?5to?5write?5bKGD?5@ 000000018004e7c0     libpng:pngwutil.obj
 0002:0000e800       ??_C@_0CO@KLGKHOE@Invalid?5number?5of?5histogram?5ent@ 000000018004e800     libpng:pngwutil.obj
 0002:0000e830       ??_C@_0BG@NPOBEOEN@tEXt?3?5invalid?5keyword@ 000000018004e830     libpng:pngwutil.obj
 0002:0000e848       ??_C@_0BE@FBHBOAAH@tEXt?3?5text?5too?5long@ 000000018004e848     libpng:pngwutil.obj
 0002:0000e860       ??_C@_0BP@JDMOLNCF@zTXt?3?5invalid?5compression?5type@ 000000018004e860     libpng:pngwutil.obj
 0002:0000e880       ??_C@_0BG@MAGNKDLP@zTXt?3?5invalid?5keyword@ 000000018004e880     libpng:pngwutil.obj
 0002:0000e898       ??_C@_0BG@FAOCEELO@iTXt?3?5invalid?5keyword@ 000000018004e898     libpng:pngwutil.obj
 0002:0000e8b0       ??_C@_0BK@DICHOCDF@iTXt?3?5invalid?5compression@ 000000018004e8b0     libpng:pngwutil.obj
 0002:0000e8ca       ??_C@_00CNPNBAHC@@         000000018004e8ca     libpng:pngwutil.obj
 0002:0000e8d0       ??_C@_0CB@BLFBJFOA@iTXt?3?5uncompressed?5text?5too?5lon@ 000000018004e8d0     libpng:pngwutil.obj
 0002:0000e900       ??_C@_0CG@LALPJLHA@Unrecognized?5unit?5type?5for?5oFFs@ 000000018004e900     libpng:pngwutil.obj
 0002:0000e928       ??_C@_0CK@GBCGFDCK@Unrecognized?5equation?5type?5for?5@ 000000018004e928     libpng:pngwutil.obj
 0002:0000e958       ??_C@_0BG@FBGAMOMB@pCAL?3?5invalid?5keyword@ 000000018004e958     libpng:pngwutil.obj
 0002:0000e970       ??_C@_0CE@GHBDGPIG@Can?8t?5write?5sCAL?5?$CIbuffer?5too?5sm@ 000000018004e970     libpng:pngwutil.obj
 0002:0000e9a0       ??_C@_0CG@OAABBGGO@Unrecognized?5unit?5type?5for?5pHYs@ 000000018004e9a0     libpng:pngwutil.obj
 0002:0000e9d0       ??_C@_0CG@IADLICLG@Invalid?5time?5specified?5for?5tIME@ 000000018004e9d0     libpng:pngwutil.obj
 0002:0000e9f8       ??_C@_0BM@HGGPCIDB@Call?5to?5NULL?5write?5function@ 000000018004e9f8     libpng:pngwio.obj
 0002:0000ea18       ??_C@_0M@POLPJMAP@Write?5Error@ 000000018004ea18     libpng:pngwio.obj
 0002:0000ea28       ??_C@_0CC@CLHKAOCN@PNG?5unsigned?5integer?5out?5of?5ran@ 000000018004ea28     libpng:pngrutil.obj
 0002:0000ea50       ??_C@_0P@KIMIGLKH@Not?5a?5PNG?5file@ 000000018004ea50     libpng:pngrutil.obj
 0002:0000ea60       ??_C@_0CH@NMANOLCN@PNG?5file?5corrupted?5by?5ASCII?5con@ 000000018004ea60     libpng:pngrutil.obj
 0002:0000ea88       ??_C@_09BJGMGMHA@CRC?5error@ 000000018004ea88     libpng:pngrutil.obj
 0002:0000eaa0       ??_C@_0CC@DELNGCGA@insufficient?5memory?5to?5read?5chu@ 000000018004eaa0     libpng:pngrutil.obj
 0002:0000eac8       ??_C@_0BC@HNCILENJ@zstream?5unclaimed@ 000000018004eac8     libpng:pngrutil.obj
 0002:0000eae0       ??_C@_0BG@GCPIOAHM@extra?5compressed?5data@ 000000018004eae0     libpng:pngrutil.obj
 0002:0000eaf8       ??_C@_0N@LIMFFBPG@out?5of?5place@ 000000018004eaf8     libpng:pngrutil.obj
 0002:0000eb08       ??_C@_07MALOAKCI@invalid@  000000018004eb08     libpng:pngrutil.obj
 0002:0000eb10       ??_C@_0N@POFAPNKG@missing?5IHDR@ 000000018004eb10     libpng:pngrutil.obj
 0002:0000eb20       ??_C@_0BJ@CHOIBJOP@ignored?5in?5grayscale?5PNG@ 000000018004eb20     libpng:pngrutil.obj
 0002:0000eb40       ??_C@_0BD@NJKCAGJC@tRNS?5must?5be?5after@ 000000018004eb40     libpng:pngrutil.obj
 0002:0000eb58       ??_C@_0BD@BELMAJD@hIST?5must?5be?5after@ 000000018004eb58     libpng:pngrutil.obj
 0002:0000eb70       ??_C@_0BD@PLPEDAEI@bKGD?5must?5be?5after@ 000000018004eb70     libpng:pngrutil.obj
 0002:0000eb88       ??_C@_0P@HLDILOEK@invalid?5values@ 000000018004eb88     libpng:pngrutil.obj
 0002:0000eb98       ??_C@_0BC@CBGHBEBH@too?5many?5profiles@ 000000018004eb98     libpng:pngrutil.obj
 0002:0000ebb0       ??_C@_0O@BNNCBLEN@out?5of?5memory@ 000000018004ebb0     libpng:pngrutil.obj
 0002:0000ebc0       ??_C@_0BH@KIAOMNIJ@bad?5compression?5method@ 000000018004ebc0     libpng:pngrutil.obj
 0002:0000ebd8       ??_C@_0M@INJFOOOH@bad?5keyword@ 000000018004ebd8     libpng:pngrutil.obj
 0002:0000ebf0       ??_C@_0CB@KEIBOKCA@No?5space?5in?5chunk?5cache?5for?5sPL@ 000000018004ebf0     libpng:pngrutil.obj
 0002:0000ec20       ??_C@_0BF@JHCGGFHI@malformed?5sPLT?5chunk@ 000000018004ec20     libpng:pngrutil.obj
 0002:0000ec40       ??_C@_0BK@FFJLCLGE@sPLT?5chunk?5has?5bad?5length@ 000000018004ec40     libpng:pngrutil.obj
 0002:0000ec60       ??_C@_0CE@MCMAFPMA@sPLT?5chunk?5requires?5too?5much?5me@ 000000018004ec60     libpng:pngrutil.obj
 0002:0000ec88       ??_C@_0BL@MHLOEJAP@invalid?5with?5alpha?5channel@ 000000018004ec88     libpng:pngrutil.obj
 0002:0000eca8       ??_C@_0O@BGLHAEFA@invalid?5index@ 000000018004eca8     libpng:pngrutil.obj
 0002:0000ecb8       ??_C@_0BI@LAIHDGGP@invalid?5parameter?5count@ 000000018004ecb8     libpng:pngrutil.obj
 0002:0000ecd0       ??_C@_0BL@OJIHHCAK@unrecognized?5equation?5type@ 000000018004ecd0     libpng:pngrutil.obj
 0002:0000ecf0       ??_C@_0N@FNKMFOEC@invalid?5data@ 000000018004ecf0     libpng:pngrutil.obj
 0002:0000ed00       ??_C@_0N@HLAECGBB@invalid?5unit@ 000000018004ed00     libpng:pngrutil.obj
 0002:0000ed10       ??_C@_0BB@CJAEGFPG@bad?5width?5format@ 000000018004ed10     libpng:pngrutil.obj
 0002:0000ed28       ??_C@_0BD@PGENKNPL@non?9positive?5width@ 000000018004ed28     libpng:pngrutil.obj
 0002:0000ed40       ??_C@_0BC@EEJECMAN@bad?5height?5format@ 000000018004ed40     libpng:pngrutil.obj
 0002:0000ed58       ??_C@_0BE@DNKCMKFH@non?9positive?5height@ 000000018004ed58     libpng:pngrutil.obj
 0002:0000ed70       ??_C@_0BI@EMEPIKPK@no?5space?5in?5chunk?5cache@ 000000018004ed70     libpng:pngrutil.obj
 0002:0000ed90       ??_C@_0CK@DGKIICIA@Insufficient?5memory?5to?5process?5@ 000000018004ed90     libpng:pngrutil.obj
 0002:0000edc0       ??_C@_0BJ@FKGJGMAA@unknown?5compression?5type@ 000000018004edc0     libpng:pngrutil.obj
 0002:0000ede0       ??_C@_0BF@LLHBOPCG@bad?5compression?5info@ 000000018004ede0     libpng:pngrutil.obj
 0002:0000edf8       ??_C@_0CE@OGILCCBP@unknown?5chunk?5exceeds?5memory?5li@ 000000018004edf8     libpng:pngrutil.obj
 0002:0000ee20       ??_C@_0BE@IFBNEDBM@error?5in?5user?5chunk@ 000000018004ee20     libpng:pngrutil.obj
 0002:0000ee40       ??_C@_0BG@IANHEEOB@Saving?5unknown?5chunk?3@ 000000018004ee40     libpng:pngrutil.obj
 0002:0000ee60       ??_C@_0EM@CPAIEDFN@forcing?5save?5of?5an?5unhandled?5ch@ 000000018004ee60     libpng:pngrutil.obj
 0002:0000eeb0       ??_C@_0BJ@OGKNBOLG@unhandled?5critical?5chunk@ 000000018004eeb0     libpng:pngrutil.obj
 0002:0000eed0       ??_C@_0BD@GFBMLKLH@invalid?5chunk?5type@ 000000018004eed0     libpng:pngrutil.obj
 0002:0000eee8       ??_C@_0BJ@DILPAFHB@internal?5row?5logic?5error@ 000000018004eee8     libpng:pngrutil.obj
 0002:0000ef08       ??_C@_0CE@DMJCLOFE@internal?5row?5size?5calculation?5e@ 000000018004ef08     libpng:pngrutil.obj
 0002:0000ef30       ??_C@_0BJ@EGFCIELD@internal?5row?5width?5error@ 000000018004ef30     libpng:pngrutil.obj
 0002:0000ef50       ??_C@_0CD@FPHNEGJK@invalid?5user?5transform?5pixel?5de@ 000000018004ef50     libpng:pngrutil.obj
 0002:0000ef78       ??_C@_0BG@EIEOOJHA@Not?5enough?5image?5data@ 000000018004ef78     libpng:pngrutil.obj
 0002:0000ef90       ??_C@_0BG@OKGHHCLP@Extra?5compressed?5data@ 000000018004ef90     libpng:pngrutil.obj
 0002:0000efa8       ??_C@_0BE@EFPCKDCF@Too?5much?5image?5data@ 000000018004efa8     libpng:pngrutil.obj
 0002:0000efc0       ??_C@_0CN@PNKHKIBI@Row?5has?5too?5many?5bytes?5to?5alloc@ 000000018004efc0     libpng:pngrutil.obj
 0002:0000eff0       ??_C@_0DF@DLPECGFI@libpng?5does?5not?5support?5gamma?$CLb@ 000000018004eff0     libpng:pngrtran.obj
 0002:0000f028       ??_C@_0BO@ENKNLJK@invalid?5background?5gamma?5type@ 000000018004f028     libpng:pngrtran.obj
 0002:0000f050       ??_C@_0CF@NLNFFJAO@png_do_encode_alpha?3?5unexpected@ 000000018004f050     libpng:pngrtran.obj
 0002:0000f078       ??_C@_0BA@DBGPKIA@NULL?5row?5buffer@ 000000018004f078     libpng:pngrtran.obj
 0002:0000f088       ??_C@_0BC@ICIDCBAI@Uninitialized?5row@ 000000018004f088     libpng:pngrtran.obj
 0002:0000f0a0       ??_C@_0CH@DAMIMNHG@png_do_rgb_to_gray?5found?5nongra@ 000000018004f0a0     libpng:pngrtran.obj
 0002:0000f0c8       ??_C@_0CE@PFPGIBHI@png_do_quantize?5returned?5rowbyt@ 000000018004f0c8     libpng:pngrtran.obj
 0002:0000f0f0       ??_C@_0BH@LIBMMIGA@incorrect?5header?5check@ 000000018004f0f0     zlib:inflate.obj
 0002:0000f108       ??_C@_0BL@IHKGDAEE@unknown?5compression?5method@ 000000018004f108     zlib:inflate.obj
 0002:0000f128       ??_C@_0BE@EMOGCLGO@invalid?5window?5size@ 000000018004f128     zlib:inflate.obj
 0002:0000f140       ??_C@_0BJ@BLBBCOMO@unknown?5header?5flags?5set@ 000000018004f140     zlib:inflate.obj
 0002:0000f160       ??_C@_0BE@GONKLEPM@header?5crc?5mismatch@ 000000018004f160     zlib:inflate.obj
 0002:0000f178       ??_C@_0BD@PJCBIDD@invalid?5block?5type@ 000000018004f178     zlib:inflate.obj
 0002:0000f190       ??_C@_0BN@LGAADGOK@invalid?5stored?5block?5lengths@ 000000018004f190     zlib:inflate.obj
 0002:0000f1b0       ??_C@_0CE@GMIGFPBB@too?5many?5length?5or?5distance?5sym@ 000000018004f1b0     zlib:inflate.obj
 0002:0000f1d8       ??_C@_0BJ@HDEPPGOH@invalid?5code?5lengths?5set@ 000000018004f1d8     zlib:inflate.obj
 0002:0000f1f8       ??_C@_0BK@BMMPFBBH@invalid?5bit?5length?5repeat@ 000000018004f1f8     zlib:inflate.obj
 0002:0000f218       ??_C@_0CF@DGDMADCD@invalid?5code?5?9?9?5missing?5end?9of?9@ 000000018004f218     zlib:inflate.obj
 0002:0000f240       ??_C@_0BM@IIMGAINC@invalid?5literal?1lengths?5set@ 000000018004f240     zlib:inflate.obj
 0002:0000f260       ??_C@_0BG@GMDFCBGP@invalid?5distances?5set@ 000000018004f260     zlib:inflate.obj
 0002:0000f278       ??_C@_0BM@FFFLPBBC@invalid?5literal?1length?5code@ 000000018004f278     zlib:inflate.obj
 0002:0000f298       ??_C@_0BG@LBKINIKP@invalid?5distance?5code@ 000000018004f298     zlib:inflate.obj
 0002:0000f2b0       ??_C@_0BO@ECPMAOGG@invalid?5distance?5too?5far?5back@ 000000018004f2b0     zlib:inflate.obj
 0002:0000f2d0       ??_C@_0BF@MEIGEHBE@incorrect?5data?5check@ 000000018004f2d0     zlib:inflate.obj
 0002:0000f2e8       ??_C@_0BH@FGKKJGOC@incorrect?5length?5check@ 000000018004f2e8     zlib:inflate.obj
 0002:0000f300       ??_C@_0BA@MOKMMFOD@need?5dictionary@ 000000018004f300     zlib:zutil.obj
 0002:0000f310       ??_C@_0L@FNAOCBOG@stream?5end@ 000000018004f310     zlib:zutil.obj
 0002:0000f320       ??_C@_0L@KIJFAKBJ@file?5error@ 000000018004f320     zlib:zutil.obj
 0002:0000f330       ??_C@_0N@MKKNPMJD@stream?5error@ 000000018004f330     zlib:zutil.obj
 0002:0000f340       ??_C@_0L@HAHMBNLP@data?5error@ 000000018004f340     zlib:zutil.obj
 0002:0000f350       ??_C@_0N@DFPGLBGC@buffer?5error@ 000000018004f350     zlib:zutil.obj
 0002:0000f360       ??_C@_0BF@CJFPCCEG@incompatible?5version@ 000000018004f360     zlib:zutil.obj
 0002:0000f3c8       __real@3ee4f8b588e368f1    000000018004f3c8     libpng:png.obj
 0002:0000f3d0       __real@3fe0000000000000    000000018004f3d0     libpng:png.obj
 0002:0000f3d8       __real@401c000000000000    000000018004f3d8     libpng:png.obj
 0002:0000f3e0       __real@406fe00000000000    000000018004f3e0     libpng:png.obj
 0002:0000f3e8       __real@40e0000000000000    000000018004f3e8     libpng:png.obj
 0002:0000f3f0       __real@40efffe000000000    000000018004f3f0     libpng:png.obj
 0002:0000f3f8       __real@40f86a0000000000    000000018004f3f8     libpng:pngrtran.obj
 0002:0000f400       __real@41dfffffffc00000    000000018004f400     libpng:png.obj
 0002:0000f408       __real@4202a05f20000000    000000018004f408     libpng:png.obj
 0002:0000f410       __real@430c6bf526340000    000000018004f410     libpng:png.obj
 0002:0000f418       __real@c1e0000000000000    000000018004f418     libpng:png.obj
 0002:0000f420       __xmm@000000000000000f0000000000000000 000000018004f420     PngImgAdapter.obj
 0002:0000f430       __xmm@00000001000000010000000100000001 000000018004f430     libpng:pngwutil.obj
 0002:0000f440       __xmm@00000080000000800000008000000080 000000018004f440     libpng:pngwutil.obj
 0002:0000f450       __xmm@00000100000001000000010000000100 000000018004f450     libpng:pngwutil.obj
 0002:0000f460       __xmm@00ff00ff00ff00ff00ff00ff00ff00ff 000000018004f460     libpng:pngwutil.obj
 0002:0000f470       __xmm@ffffffffffffffffffffffffffffffff 000000018004f470     libpng:pngrtran.obj
 0002:0000f9b0       __real@bff0000000000000    000000018004f9b0     libucrt:floor.obj
 0002:00010d70       __log_256_lead             0000000180050d70     libucrt:log_256_lead_tail_table.obj
 0002:00011580       __log_256_tail             0000000180051580     libucrt:log_256_lead_tail_table.obj
 0002:00011d90       __two_to_jby64_head_table  0000000180051d90     libucrt:two_to_jby64_head_tail_table.obj
 0002:00011f90       __two_to_jby64_tail_table  0000000180051f90     libucrt:two_to_jby64_head_tail_table.obj
 0002:000121b0       ??_R4exception@std@@6B@    00000001800521b0     libcpmt:xthrow.obj
 0002:000121d8       ??_R3exception@std@@8      00000001800521d8     libcpmt:xthrow.obj
 0002:000121f0       ??_R2exception@std@@8      00000001800521f0     libcpmt:xthrow.obj
 0002:00012200       ??_R1A@?0A@EA@exception@std@@8 0000000180052200     libcpmt:xthrow.obj
 0002:00012228       ??_R4bad_alloc@std@@6B@    0000000180052228     libcpmt:xthrow.obj
 0002:00012250       ??_R3bad_alloc@std@@8      0000000180052250     libcpmt:xthrow.obj
 0002:00012268       ??_R2bad_alloc@std@@8      0000000180052268     libcpmt:xthrow.obj
 0002:00012280       ??_R1A@?0A@EA@bad_alloc@std@@8 0000000180052280     libcpmt:xthrow.obj
 0002:000122a8       ??_R4logic_error@std@@6B@  00000001800522a8     libcpmt:xthrow.obj
 0002:000122d0       ??_R3logic_error@std@@8    00000001800522d0     libcpmt:xthrow.obj
 0002:000122e8       ??_R2logic_error@std@@8    00000001800522e8     libcpmt:xthrow.obj
 0002:00012300       ??_R1A@?0A@EA@logic_error@std@@8 0000000180052300     libcpmt:xthrow.obj
 0002:00012328       ??_R4invalid_argument@std@@6B@ 0000000180052328     libcpmt:xthrow.obj
 0002:00012350       ??_R3invalid_argument@std@@8 0000000180052350     libcpmt:xthrow.obj
 0002:00012368       ??_R2invalid_argument@std@@8 0000000180052368     libcpmt:xthrow.obj
 0002:00012388       ??_R1A@?0A@EA@invalid_argument@std@@8 0000000180052388     libcpmt:xthrow.obj
 0002:000123b0       ??_R4length_error@std@@6B@ 00000001800523b0     libcpmt:xthrow.obj
 0002:000123d8       ??_R3length_error@std@@8   00000001800523d8     libcpmt:xthrow.obj
 0002:000123f0       ??_R2length_error@std@@8   00000001800523f0     libcpmt:xthrow.obj
 0002:00012410       ??_R1A@?0A@EA@length_error@std@@8 0000000180052410     libcpmt:xthrow.obj
 0002:00012438       ??_R4out_of_range@std@@6B@ 0000000180052438     libcpmt:xthrow.obj
 0002:00012460       ??_R3out_of_range@std@@8   0000000180052460     libcpmt:xthrow.obj
 0002:00012478       ??_R2out_of_range@std@@8   0000000180052478     libcpmt:xthrow.obj
 0002:00012498       ??_R1A@?0A@EA@out_of_range@std@@8 0000000180052498     libcpmt:xthrow.obj
 0002:000124c0       ??_R4bad_function_call@std@@6B@ 00000001800524c0     libcpmt:xthrow.obj
 0002:000124e8       ??_R3bad_function_call@std@@8 00000001800524e8     libcpmt:xthrow.obj
 0002:00012500       ??_R2bad_function_call@std@@8 0000000180052500     libcpmt:xthrow.obj
 0002:00012518       ??_R1A@?0A@EA@bad_function_call@std@@8 0000000180052518     libcpmt:xthrow.obj
 0002:00012540       ??_R4type_info@@6B@        0000000180052540     LIBCMT:std_type_info_static.obj
 0002:00012568       ??_R3type_info@@8          0000000180052568     LIBCMT:std_type_info_static.obj
 0002:00012580       ??_R2type_info@@8          0000000180052580     LIBCMT:std_type_info_static.obj
 0002:00012590       ??_R1A@?0A@EA@type_info@@8 0000000180052590     LIBCMT:std_type_info_static.obj
 0002:000125b8       ??_R4bad_array_new_length@std@@6B@ 00000001800525b8     LIBCMT:throw_bad_alloc.obj
 0002:000125e0       ??_R3bad_array_new_length@std@@8 00000001800525e0     LIBCMT:throw_bad_alloc.obj
 0002:000125f8       ??_R2bad_array_new_length@std@@8 00000001800525f8     LIBCMT:throw_bad_alloc.obj
 0002:00012618       ??_R1A@?0A@EA@bad_array_new_length@std@@8 0000000180052618     LIBCMT:throw_bad_alloc.obj
 0002:00012640       ??_R4bad_exception@std@@6B@ 0000000180052640     libvcruntime:frame.obj
 0002:00012668       ??_R3bad_exception@std@@8  0000000180052668     libvcruntime:frame.obj
 0002:00012680       ??_R2bad_exception@std@@8  0000000180052680     libvcruntime:frame.obj
 0002:00012698       ??_R1A@?0A@EA@bad_exception@std@@8 0000000180052698     libvcruntime:frame.obj
 0002:00012a28       __rtc_iaa                  0000000180052a28     LIBCMT:initsect.obj
 0002:00012a30       __rtc_izz                  0000000180052a30     LIBCMT:initsect.obj
 0002:00012a38       __rtc_taa                  0000000180052a38     LIBCMT:initsect.obj
 0002:00012a40       __rtc_tzz                  0000000180052a40     LIBCMT:initsect.obj
 0002:00017138       _TI2?AVbad_alloc@std@@     0000000180057138     libcpmt:xthrow.obj
 0002:00017158       _CTA2?AVbad_alloc@std@@    0000000180057158     libcpmt:xthrow.obj
 0002:00017170       _CT??_R0?AVbad_alloc@std@@@8??0bad_alloc@std@@QEAA@AEBV01@@Z24 0000000180057170     libcpmt:xthrow.obj
 0002:00017198       _CT??_R0?AVexception@std@@@8??0exception@std@@QEAA@AEBV01@@Z24 0000000180057198     libcpmt:xthrow.obj
 0002:000171c0       _TI3?AVinvalid_argument@std@@ 00000001800571c0     libcpmt:xthrow.obj
 0002:000171e0       _CTA3?AVinvalid_argument@std@@ 00000001800571e0     libcpmt:xthrow.obj
 0002:00017200       _CT??_R0?AVinvalid_argument@std@@@8??0invalid_argument@std@@QEAA@AEBV01@@Z24 0000000180057200     libcpmt:xthrow.obj
 0002:00017228       _CT??_R0?AVlogic_error@std@@@8??0logic_error@std@@QEAA@AEBV01@@Z24 0000000180057228     libcpmt:xthrow.obj
 0002:00017250       _TI3?AVlength_error@std@@  0000000180057250     libcpmt:xthrow.obj
 0002:00017270       _CTA3?AVlength_error@std@@ 0000000180057270     libcpmt:xthrow.obj
 0002:00017290       _CT??_R0?AVlength_error@std@@@8??0length_error@std@@QEAA@AEBV01@@Z24 0000000180057290     libcpmt:xthrow.obj
 0002:000172b8       _TI3?AVout_of_range@std@@  00000001800572b8     libcpmt:xthrow.obj
 0002:000172d8       _CTA3?AVout_of_range@std@@ 00000001800572d8     libcpmt:xthrow.obj
 0002:000172f8       _CT??_R0?AVout_of_range@std@@@8??0out_of_range@std@@QEAA@AEBV01@@Z24 00000001800572f8     libcpmt:xthrow.obj
 0002:00017320       _TI2?AVbad_function_call@std@@ 0000000180057320     libcpmt:xthrow.obj
 0002:00017340       _CTA2?AVbad_function_call@std@@ 0000000180057340     libcpmt:xthrow.obj
 0002:00017358       _CT??_R0?AVbad_function_call@std@@@8??0bad_function_call@std@@QEAA@AEBV01@@Z24 0000000180057358     libcpmt:xthrow.obj
 0002:00017380       _TI3?AVbad_array_new_length@std@@ 0000000180057380     LIBCMT:throw_bad_alloc.obj
 0002:000173a0       _CTA3?AVbad_array_new_length@std@@ 00000001800573a0     LIBCMT:throw_bad_alloc.obj
 0002:000173c0       _CT??_R0?AVbad_array_new_length@std@@@8??0bad_array_new_length@std@@QEAA@AEBV01@@Z24 00000001800573c0     LIBCMT:throw_bad_alloc.obj
 0002:000173e8       _TI2?AVbad_exception@std@@ 00000001800573e8     libvcruntime:frame.obj
 0002:00017408       _CTA2?AVbad_exception@std@@ 0000000180057408     libvcruntime:frame.obj
 0002:00017420       _CT??_R0?AVbad_exception@std@@@8??0bad_exception@std@@QEAA@AEBV01@@Z24 0000000180057420     libvcruntime:frame.obj
 0002:00017444       __DELAY_IMPORT_DESCRIPTOR_node_exe 0000000180057444     node:node.exe
 0002:00017464       __NULL_DELAY_IMPORT_DESCRIPTOR 0000000180057464     node:node.exe
 0002:00017640       \177node_NULL_THUNK_DATA_DLN 0000000180057640     node:node.exe
 0002:00018598       \177node_NULL_THUNK_DATA_DLB 0000000180058598     node:node.exe
 0002:000187a4       __IMPORT_DESCRIPTOR_KERNEL32 00000001800587a4     kernel32:KERNEL32.dll
 0002:000187b8       __NULL_IMPORT_DESCRIPTOR   00000001800587b8     kernel32:KERNEL32.dll
 0003:00000000       __scrt_native_dllmain_reason 0000000180059000     LIBCMT:utility.obj
 0003:00000008       __security_cookie_complement 0000000180059008     LIBCMT:gs_cookie.obj
 0003:00000010       __security_cookie          0000000180059010     LIBCMT:gs_cookie.obj
 0003:00000018       __isa_available            0000000180059018     LIBCMT:cpu_disp.obj
 0003:0000001c       __isa_enabled              000000018005901c     LIBCMT:cpu_disp.obj
 0003:00000020       __memcpy_nt_iters          0000000180059020     LIBCMT:cpu_disp.obj
 0003:00000048       __abort_behavior           0000000180059048     libucrt:abort.obj
 0003:00000050       _iob                       0000000180059050     libucrt:_file.obj
 0003:00000168       _pwctype                   0000000180059168     libucrt:ctype.obj
 0003:00000170       __acrt_initial_locale_data 0000000180059170     libucrt:nlsdata.obj
 0003:000002c8       __acrt_initial_locale_pointers 00000001800592c8     libucrt:nlsdata.obj
 0003:000002d8       __acrt_wide_c_locale_string 00000001800592d8     libucrt:nlsdata.obj
 0003:000002e0       __badioinfo                00000001800592e0     libucrt:ioinit.obj
 0003:00000320       _lookuptrailbytes          0000000180059320     libucrt:read.obj
 0003:00000520       __acrt_initial_multibyte_data 0000000180059520     libucrt:mbctype.obj
 0003:00000960       __globallocalestatus       0000000180059960     libucrt:glstatus.obj
 0003:00000970       __acrt_lconv_c             0000000180059970     libucrt:localeconv.obj
 0003:00000a08       __acrt_lconv_static_decimal 0000000180059a08     libucrt:localeconv.obj
 0003:00000a0c       __acrt_lconv_static_W_decimal 0000000180059a0c     libucrt:localeconv.obj
 0003:00000a20       _fltused                   0000000180059a20     LIBCMT:fltused.obj
 0003:00000ad0       ??_R0?AVbad_alloc@std@@@8  0000000180059ad0     libcpmt:xthrow.obj
 0003:00000af8       ??_R0?AVexception@std@@@8  0000000180059af8     libcpmt:xthrow.obj
 0003:00000b20       ??_R0?AVinvalid_argument@std@@@8 0000000180059b20     libcpmt:xthrow.obj
 0003:00000b50       ??_R0?AVlogic_error@std@@@8 0000000180059b50     libcpmt:xthrow.obj
 0003:00000b78       ??_R0?AVlength_error@std@@@8 0000000180059b78     libcpmt:xthrow.obj
 0003:00000ba0       ??_R0?AVout_of_range@std@@@8 0000000180059ba0     libcpmt:xthrow.obj
 0003:00000bc8       ??_R0?AVbad_function_call@std@@@8 0000000180059bc8     libcpmt:xthrow.obj
 0003:00000bf8       ??_R0?AVtype_info@@@8      0000000180059bf8     LIBCMT:std_type_info_static.obj
 0003:00000c18       ??_R0?AVbad_array_new_length@std@@@8 0000000180059c18     LIBCMT:throw_bad_alloc.obj
 0003:00000c48       ??_R0?AVbad_exception@std@@@8 0000000180059c48     libvcruntime:frame.obj
 0003:00000cb0       ??_R0?AV<lambda_b270b1f630724084d5f3bb877471ea65>@@@8 0000000180059cb0     PngImg.obj
 0003:00000d30       ??_R0P6APEAUpng_struct_def@@PEBDPEAXP6AXPEAU0@0@Z3@Z@8 0000000180059d30     PngImg.obj
 0003:00000d80       ??_R0?AV<lambda_2a721ab91676828147c5c332544348da>@@@8 0000000180059d80     PngImg.obj
 0003:00000dc0       __imp_?Value@External@v8@@QEBAPEAXXZ 0000000180059dc0     node:node.exe
 0003:00000dc8       __imp_?New@External@v8@@SA?AV?$Local@VExternal@v8@@@2@PEAVIsolate@2@PEAX@Z 0000000180059dc8     node:node.exe
 0003:00000dd0       __imp_?GetCurrentContext@Isolate@v8@@QEAA?AV?$Local@VContext@v8@@@2@XZ 0000000180059dd0     node:node.exe
 0003:00000dd8       __imp_?GetCurrent@Isolate@v8@@SAPEAV12@XZ 0000000180059dd8     node:node.exe
 0003:00000de0       __imp_?CreateHandle@HandleScope@v8@@KAPEAPEAVObject@internal@2@PEAVIsolate@42@PEAV342@@Z 0000000180059de0     node:node.exe
 0003:00000de8       __imp_?CreateHandle@HandleScope@v8@@CAPEAPEAVObject@internal@2@PEAVHeapObject@42@PEAV342@@Z 0000000180059de8     node:node.exe
 0003:00000df0       __imp_??1HandleScope@v8@@QEAA@XZ 0000000180059df0     node:node.exe
 0003:00000df8       __imp_??0HandleScope@v8@@QEAA@PEAVIsolate@1@@Z 0000000180059df8     node:node.exe
 0003:00000e00       __imp_?GetFunction@FunctionTemplate@v8@@QEAA?AV?$Local@VFunction@v8@@@2@XZ 0000000180059e00     node:node.exe
 0003:00000e08       __imp_?New@FunctionTemplate@v8@@SA?AV?$Local@VFunctionTemplate@v8@@@2@PEAVIsolate@2@P6AXAEBV?$FunctionCallbackInfo@VValue@v8@@@2@@ZV?$Local@VValue@v8@@@2@V?$Local@VSignature@v8@@@2@HW4ConstructorBehavior@2@@Z 0000000180059e08     node:node.exe
 0003:00000e10       __imp_?ToLocalEmpty@V8@v8@@CAXXZ 0000000180059e10     node:node.exe
 0003:00000e18       __imp_?Escape@EscapableHandleScope@v8@@AEAAPEAPEAVObject@internal@2@PEAPEAV342@@Z 0000000180059e18     node:node.exe
 0003:00000e20       __imp_??0EscapableHandleScope@v8@@QEAA@PEAVIsolate@1@@Z 0000000180059e20     node:node.exe
 0003:00000e28       __imp_?NewFromUtf8@String@v8@@SA?AV?$MaybeLocal@VString@v8@@@2@PEAVIsolate@2@PEBDW4NewStringType@2@H@Z 0000000180059e28     node:node.exe
 0003:00000e30       __imp_?SlowGetInternalField@Object@v8@@AEAA?AV?$Local@VValue@v8@@@2@H@Z 0000000180059e30     node:node.exe
 0003:00000e38       __imp_?SetInternalField@Object@v8@@QEAAXHV?$Local@VValue@v8@@@2@@Z 0000000180059e38     node:node.exe
 0003:00000e40       __imp_?Set@Object@v8@@QEAA?AV?$Maybe@_N@2@V?$Local@VContext@v8@@@2@V?$Local@VValue@v8@@@2@1@Z 0000000180059e40     node:node.exe
 0003:00000e48       __imp_?SetInternalFieldCount@ObjectTemplate@v8@@QEAAXH@Z 0000000180059e48     node:node.exe
 0003:00000e50       __imp_?NewInstance@ObjectTemplate@v8@@QEAA?AV?$MaybeLocal@VObject@v8@@@2@V?$Local@VContext@v8@@@2@@Z 0000000180059e50     node:node.exe
 0003:00000e58       __imp_?New@ObjectTemplate@v8@@SA?AV?$Local@VObjectTemplate@v8@@@2@PEAVIsolate@2@V?$Local@VFunctionTemplate@v8@@@2@@Z 0000000180059e58     node:node.exe
 0003:00000e60       __imp_node_module_register 0000000180059e60     node:node.exe
 0003:00000e68       __imp_??1EscapableHandleScope@v8@@QEAA@XZ 0000000180059e68     node:node.exe
 0003:00000e70       __imp_uv_queue_work        0000000180059e70     node:node.exe
 0003:00000e78       __imp_?Global@Context@v8@@QEAA?AV?$Local@VObject@v8@@@2@XZ 0000000180059e78     node:node.exe
 0003:00000e80       __imp_?New@Signature@v8@@SA?AV?$Local@VSignature@v8@@@2@PEAVIsolate@2@V?$Local@VFunctionTemplate@v8@@@2@@Z 0000000180059e80     node:node.exe
 0003:00000e88       __imp_?ThrowException@Isolate@v8@@QEAA?AV?$Local@VValue@v8@@@2@V32@@Z 0000000180059e88     node:node.exe
 0003:00000e90       __imp_?Set@Template@v8@@QEAAXV?$Local@VName@v8@@@2@V?$Local@VData@v8@@@2@W4PropertyAttribute@2@@Z 0000000180059e90     node:node.exe
 0003:00000e98       __imp_?Error@Exception@v8@@SA?AV?$Local@VValue@v8@@@2@V?$Local@VString@v8@@@2@@Z 0000000180059e98     node:node.exe
 0003:00000ea0       __imp_?SetClassName@FunctionTemplate@v8@@QEAAXV?$Local@VString@v8@@@2@@Z 0000000180059ea0     node:node.exe
 0003:00000ea8       __imp_?PrototypeTemplate@FunctionTemplate@v8@@QEAA?AV?$Local@VObjectTemplate@v8@@@2@XZ 0000000180059ea8     node:node.exe
 0003:00000eb0       __imp_?InstanceTemplate@FunctionTemplate@v8@@QEAA?AV?$Local@VObjectTemplate@v8@@@2@XZ 0000000180059eb0     node:node.exe
 0003:00000eb8       __imp_?ClearWeak@V8@v8@@CAPEAXPEAPEAVObject@internal@2@@Z 0000000180059eb8     node:node.exe
 0003:00000ec0       __imp_?MakeWeak@V8@v8@@CAXPEAPEAVObject@internal@2@PEAXP6AXAEBV?$WeakCallbackInfo@X@2@@ZW4WeakCallbackType@2@@Z 0000000180059ec0     node:node.exe
 0003:00000ec8       __imp_?DisposeGlobal@V8@v8@@CAXPEAPEAVObject@internal@2@@Z 0000000180059ec8     node:node.exe
 0003:00000ed0       __imp_?GlobalizeReference@V8@v8@@CAPEAPEAVObject@internal@2@PEAVIsolate@42@PEAPEAV342@@Z 0000000180059ed0     node:node.exe
 0003:00000ed8       __imp_?Uint32Value@Value@v8@@QEBAIXZ 0000000180059ed8     node:node.exe
 0003:00000ee0       __imp_?WriteUtf8@String@v8@@QEBAHPEADHPEAHH@Z 0000000180059ee0     node:node.exe
 0003:00000ee8       __imp_?Length@String@v8@@QEBAHXZ 0000000180059ee8     node:node.exe
 0003:00000ef0       __imp_?New@Number@v8@@SA?AV?$Local@VNumber@v8@@@2@PEAVIsolate@2@N@Z 0000000180059ef0     node:node.exe
 0003:00000ef8       __imp_?SlowGetAlignedPointerFromInternalField@Object@v8@@AEAAPEAXH@Z 0000000180059ef8     node:node.exe
 0003:00000f00       __imp_?New@Object@v8@@SA?AV?$Local@VObject@v8@@@2@PEAVIsolate@2@@Z 0000000180059f00     node:node.exe
 0003:00000f08       __imp_?SetAlignedPointerInInternalField@Object@v8@@QEAAXHPEAX@Z 0000000180059f08     node:node.exe
 0003:00000f10       __imp_?InternalFieldCount@Object@v8@@QEAAHXZ 0000000180059f10     node:node.exe
 0003:00000f18       __imp_?Get@Object@v8@@QEAA?AV?$Local@VValue@v8@@@2@V32@@Z 0000000180059f18     node:node.exe
 0003:00000f20       __imp_?Set@Object@v8@@QEAA_NV?$Local@VValue@v8@@@2@0@Z 0000000180059f20     node:node.exe
 0003:00000f28       __imp_?Set@Object@v8@@QEAA_NIV?$Local@VValue@v8@@@2@@Z 0000000180059f28     node:node.exe
 0003:00000f30       __imp_?NewInstance@Function@v8@@QEBA?AV?$MaybeLocal@VObject@v8@@@2@V?$Local@VContext@v8@@@2@HQEAV?$Local@VValue@v8@@@2@@Z 0000000180059f30     node:node.exe
 0003:00000f38       __imp_?SetAccessor@ObjectTemplate@v8@@QEAAXV?$Local@VName@v8@@@2@P6AX0AEBV?$PropertyCallbackInfo@VValue@v8@@@2@@ZP6AX0V?$Local@VValue@v8@@@2@AEBV?$PropertyCallbackInfo@X@2@@Z3W4AccessControl@2@W4PropertyAttribute@2@V?$Local@VAccessorSignature@v8@@@2@@Z 0000000180059f38     node:node.exe
 0003:00000f40       __imp_?HasInstance@Buffer@node@@YA_NV?$Local@VValue@v8@@@v8@@@Z 0000000180059f40     node:node.exe
 0003:00000f48       __imp_?Data@Buffer@node@@YAPEADV?$Local@VObject@v8@@@v8@@@Z 0000000180059f48     node:node.exe
 0003:00000f50       __imp_?Length@Buffer@node@@YA_KV?$Local@VObject@v8@@@v8@@@Z 0000000180059f50     node:node.exe
 0003:00000f58       __imp_?MakeCallback@node@@YA?AV?$Local@VValue@v8@@@v8@@PEAVIsolate@3@V?$Local@VObject@v8@@@3@V?$Local@VFunction@v8@@@3@HPEAV23@@Z 0000000180059f58     node:node.exe
 0003:00000f60       __imp_?GetCurrentEventLoop@node@@YAPEAUuv_loop_s@@PEAVIsolate@v8@@@Z 0000000180059f60     node:node.exe
 0003:00000f68       __imp_?ToObject@Value@v8@@QEBA?AV?$Local@VObject@v8@@@2@XZ 0000000180059f68     node:node.exe
 0003:00000f70       __imp_?ToString@Value@v8@@QEBA?AV?$Local@VString@v8@@@2@XZ 0000000180059f70     node:node.exe
 0003:00000f78       \177node_NULL_THUNK_DATA_DLA 0000000180059f78     node:node.exe
 0003:00000f80       __hmod__node_exe           0000000180059f80     node:node.exe
 0003:00000f88       __scrt_current_native_startup_state 0000000180059f88     LIBCMT:utility.obj
 0003:00000f90       __scrt_native_startup_lock 0000000180059f90     LIBCMT:utility.obj
 0003:00001550       __favor                    000000018005a550     LIBCMT:cpu_disp.obj
 0003:00001554       __scrt_debugger_hook_flag  000000018005a554     LIBCMT:utility_desktop.obj
 0003:00001560       ?__type_info_root_node@@3U__type_info_node@@A 000000018005a560     LIBCMT:tncleanup.obj
 0003:00001570       ?_OptionsStorage@?1??__local_stdio_scanf_options@@9@4_KA 000000018005a570     LIBCMT:default_local_stdio_options.obj
 0003:00001578       ?__WinRTOutOfMemoryExceptionCallback@@3P6APEAXXZEA 000000018005a578     libvcruntime:ehhelpers.obj
 0003:00001610       __pPurecall                000000018005a610     libvcruntime:purevirt_data.obj
 0003:00001688       ?pArgList@UnDecorator@@0PEAVReplicator@@EA 000000018005a688     libvcruntime:undname.obj
 0003:00001690       ?pZNameList@UnDecorator@@0PEAVReplicator@@EA 000000018005a690     libvcruntime:undname.obj
 0003:00001698       ?pTemplateArgList@UnDecorator@@0PEAVReplicator@@EA 000000018005a698     libvcruntime:undname.obj
 0003:000016a0       ?gName@UnDecorator@@0PEBDEB 000000018005a6a0     libvcruntime:undname.obj
 0003:000016a8       ?name@UnDecorator@@0PEBDEB 000000018005a6a8     libvcruntime:undname.obj
 0003:000016b0       ?disableFlags@UnDecorator@@0KA 000000018005a6b0     libvcruntime:undname.obj
 0003:000016b4       ?fExplicitTemplateParams@UnDecorator@@0_NA 000000018005a6b4     libvcruntime:undname.obj
 0003:000016b5       ?fGetTemplateArgumentList@UnDecorator@@0_NA 000000018005a6b5     libvcruntime:undname.obj
 0003:000016b8       ?m_pGetParameter@UnDecorator@@0P6APEADJ@ZEA 000000018005a6b8     libvcruntime:undname.obj
 0003:000016c0       ?m_CHPENameOffset@UnDecorator@@0KA 000000018005a6c0     libvcruntime:undname.obj
 0003:000016c4       ?m_recursionLevel@UnDecorator@@0KA 000000018005a6c4     libvcruntime:undname.obj
 0003:000016f8       _nstream                   000000018005a6f8     libucrt:_file.obj
 0003:00001700       __piob                     000000018005a700     libucrt:_file.obj
 0003:00001708       _cflush                    000000018005a708     libucrt:_file.obj
 0003:00001728       ?c_exit_complete@?1???R<lambda_6e4b09c48022b2350581041d5f6b0c4c>@@QEBA@XZ@4_NA 000000018005a728     libucrt:exit.obj
 0003:00001838       _environ_table             000000018005a838     libucrt:environment_initialization.obj
 0003:00001840       _wenviron_table            000000018005a840     libucrt:environment_initialization.obj
 0003:00001848       __dcrt_initial_wide_environment 000000018005a848     libucrt:environment_initialization.obj
 0003:00001850       __dcrt_initial_narrow_environment 000000018005a850     libucrt:environment_initialization.obj
 0003:00001858       __acrt_atexit_table        000000018005a858     libucrt:onexit.obj
 0003:00001870       __acrt_at_quick_exit_table 000000018005a870     libucrt:onexit.obj
 0003:00001888       __acrt_locale_changed_data 000000018005a888     libucrt:wsetlocale.obj
 0003:00001890       __acrt_current_locale_data 000000018005a890     libucrt:nlsdata.obj
 0003:00001cb0       __pioinfo                  000000018005acb0     libucrt:ioinit.obj
 0003:000020b0       _nhandle                   000000018005b0b0     libucrt:ioinit.obj
 0003:000020c8       __acrt_stdout_buffer       000000018005b0c8     libucrt:_sftbuf.obj
 0003:000020d0       __acrt_stderr_buffer       000000018005b0d0     libucrt:_sftbuf.obj
 0003:000020e0       __acrt_current_multibyte_data 000000018005b0e0     libucrt:mbctype.obj
 0003:000020e8       _mbctype                   000000018005b0e8     libucrt:mbctype.obj
 0003:000020f0       _mbcasemap                 000000018005b0f0     libucrt:mbctype.obj
 0003:00002100       __argc                     000000018005b100     libucrt:argv_data.obj
 0003:00002108       __argv                     000000018005b108     libucrt:argv_data.obj
 0003:00002110       __wargv                    000000018005b110     libucrt:argv_data.obj
 0003:00002118       _acmdln                    000000018005b118     libucrt:argv_data.obj
 0003:00002120       _wcmdln                    000000018005b120     libucrt:argv_data.obj
 0003:00002128       _pgmptr                    000000018005b128     libucrt:argv_data.obj
 0003:00002130       __acrt_heap                000000018005b130     libucrt:heap_handle.obj
 0003:00002140       __acrt_lconv_static_null   000000018005b140     libucrt:localeconv.obj
 0003:00002144       __acrt_lconv_static_W_null 000000018005b144     libucrt:localeconv.obj
 0003:0000214c       _commode                   000000018005b14c     libucrt:ncommode.obj
 0003:00002150       _umaskval                  000000018005b150     libucrt:umask.obj
 0003:00002160       _fmode                     000000018005b160     libucrt:txtmode.obj
 0003:00002164       __fma3_is_available        000000018005b164     libucrt:fma3_available.obj
 0003:00002168       __use_fma3_lib             000000018005b168     libucrt:fma3_available.obj
 0003:00002178       ?DloadKernel32@@3PEAUHINSTANCE__@@EA 000000018005b178     DelayImp:delayhlp.obj
 0003:00002180       ?DloadAcquireSRWLockExclusive@@3P6AXPEA_K@ZEA 000000018005b180     DelayImp:delayhlp.obj
 0003:00002188       ?DloadReleaseSRWLockExclusive@@3P6AXPEA_K@ZEA 000000018005b188     DelayImp:delayhlp.obj
 0003:00002190       ?DloadSrwLock@@3_KA        000000018005b190     DelayImp:delayhlp.obj
 0003:00002198       ?DloadSectionLockCount@@3KA 000000018005b198     DelayImp:delayhlp.obj
 0003:0000219c       ?DloadSectionOldProtection@@3KA 000000018005b19c     DelayImp:delayhlp.obj
 0003:000021a0       ?DloadSectionCommitPermanent@@3KA 000000018005b1a0     DelayImp:delayhlp.obj
 0003:000021b0       __dyn_tls_init_callback    000000018005b1b0     <common>
 0003:000021b8       __scrt_ucrt_dll_is_in_use  000000018005b1b8     <common>
 0003:000021c0       ?_OptionsStorage@?1??__local_stdio_printf_options@@9@9 000000018005b1c0     <common>

 entry point at        0001:00023340

 Static symbols

 0001:00000000       ??__EpngImgAdapterConstructor@@YAXXZ 0000000180001000 f   PngImgAdapter.obj
 0001:00000020       ?FunctionCallbackWrapper@imp@Nan@@YAXAEBV?$FunctionCallbackInfo@VValue@v8@@@v8@@@Z 0000000180001020 f   init.obj
 0001:000003a0       _register_png_img          00000001800013a0 f   init.obj
 0001:000005c0       ?GetterCallbackWrapper@imp@Nan@@YAXV?$Local@VName@v8@@@v8@@AEBV?$PropertyCallbackInfo@VValue@v8@@@4@@Z 00000001800015c0 f   PngImgAdapter.obj
 0001:000022c0       ??R<lambda_c6484637a8e92c945a958729cd5afacb>@@QEBAHAEBV?$basic_string@DU?$char_traits@D@std@@V?$allocator@D@2@@std@@@Z 00000001800032c0 f   PngImgAdapter.obj
 0001:000040a0       ??1?$unique_ptr@U_iobuf@@V<lambda_f8a3c49a4f68452d1ace9d9a868a4178>@@@std@@QEAA@XZ 00000001800050a0 f   PngImg.obj
 0001:000045d0       ?_Delete_this@?$_Func_impl_no_alloc@V<lambda_b49605ea95fa7d5d6d7c78acb7625195>@@UPoint@@AEBU2@AEBUImgInfo@@@std@@EEAAX_N@Z 00000001800055d0 f   PngImg.obj
 0001:000045d0       ?_Delete_this@?$_Func_impl_no_alloc@V<lambda_2c6c8b47390943ff5f68d13b30202b25>@@UPoint@@AEBU2@AEBUImgInfo@@@std@@EEAAX_N@Z 00000001800055d0 f   PngImg.obj
 0001:000045e0       ?_Get@?$_Func_impl_no_alloc@V<lambda_2c6c8b47390943ff5f68d13b30202b25>@@UPoint@@AEBU2@AEBUImgInfo@@@std@@EEBAPEBXXZ 00000001800055e0 f   PngImg.obj
 0001:000045e0       ?_Get@?$_Func_impl_no_alloc@V<lambda_b49605ea95fa7d5d6d7c78acb7625195>@@UPoint@@AEBU2@AEBUImgInfo@@@std@@EEBAPEBXXZ 00000001800055e0 f   PngImg.obj
 0001:000045f0       ?_Target_type@?$_Func_impl_no_alloc@V<lambda_b49605ea95fa7d5d6d7c78acb7625195>@@UPoint@@AEBU2@AEBUImgInfo@@@std@@EEBAAEBVtype_info@@XZ 00000001800055f0 f   PngImg.obj
 0001:00004600       ?_Copy@?$_Func_impl_no_alloc@V<lambda_b49605ea95fa7d5d6d7c78acb7625195>@@UPoint@@AEBU2@AEBUImgInfo@@@std@@EEBAPEAV?$_Func_base@UPoint@@AEBU1@AEBUImgInfo@@@2@PEAX@Z 0000000180005600 f   PngImg.obj
 0001:00004600       ?_Move@?$_Func_impl_no_alloc@V<lambda_b49605ea95fa7d5d6d7c78acb7625195>@@UPoint@@AEBU2@AEBUImgInfo@@@std@@EEAAPEAV?$_Func_base@UPoint@@AEBU1@AEBUImgInfo@@@2@PEAX@Z 0000000180005600 f   PngImg.obj
 0001:00004610       ?_Target_type@?$_Func_impl_no_alloc@V<lambda_2c6c8b47390943ff5f68d13b30202b25>@@UPoint@@AEBU2@AEBUImgInfo@@@std@@EEBAAEBVtype_info@@XZ 0000000180005610 f   PngImg.obj
 0001:00004620       ?_Copy@?$_Func_impl_no_alloc@V<lambda_2c6c8b47390943ff5f68d13b30202b25>@@UPoint@@AEBU2@AEBUImgInfo@@@std@@EEBAPEAV?$_Func_base@UPoint@@AEBU1@AEBUImgInfo@@@2@PEAX@Z 0000000180005620 f   PngImg.obj
 0001:00004620       ?_Move@?$_Func_impl_no_alloc@V<lambda_2c6c8b47390943ff5f68d13b30202b25>@@UPoint@@AEBU2@AEBUImgInfo@@@std@@EEAAPEAV?$_Func_base@UPoint@@AEBU1@AEBUImgInfo@@@2@PEAX@Z 0000000180005620 f   PngImg.obj
 0001:000047a0       ?_Do_call@?$_Func_impl_no_alloc@V<lambda_2c6c8b47390943ff5f68d13b30202b25>@@UPoint@@AEBU2@AEBUImgInfo@@@std@@EEAA?AUPoint@@AEBU3@AEBUImgInfo@@@Z 00000001800057a0 f   PngImg.obj
 0001:000047d0       ?_Do_call@?$_Func_impl_no_alloc@V<lambda_b49605ea95fa7d5d6d7c78acb7625195>@@UPoint@@AEBU2@AEBUImgInfo@@@std@@EEAA?AUPoint@@AEBU3@AEBUImgInfo@@@Z 00000001800057d0 f   PngImg.obj
 0001:00004800       ?load_exe_hook@@YAP6A_JXZIPEAUDelayLoadInfo@@@Z 0000000180005800 f   win_delay_load_hook.obj
 0001:00005618       $LN16                      0000000180006618     libpng:png.obj
 0001:00005640       png_colorspace_check_gamma 0000000180006640 f   libpng:png.obj
 0001:00005910       png_xy_from_XYZ            0000000180006910 f   libpng:png.obj
 0001:00005b70       png_XYZ_from_xy            0000000180006b70 f   libpng:png.obj
 0001:00006050       png_colorspace_endpoints_match 0000000180007050 f   libpng:png.obj
 0001:00006140       png_colorspace_set_xy_and_XYZ 0000000180007140 f   libpng:png.obj
 0001:00006450       png_icc_profile_error      0000000180007450 f   libpng:png.obj
 0001:00006ed0       png_compare_ICC_profile_with_sRGB 0000000180007ed0 f   libpng:png.obj
 0001:00007724       $LN46                      0000000180008724     libpng:png.obj
 0001:00007740       $LN45                      0000000180008740     libpng:png.obj
 0001:0000777c       $LN44                      000000018000877c     libpng:png.obj
 0001:0000779c       $LN43                      000000018000879c     libpng:png.obj
 0001:00007a70       png_build_16bit_table      0000000180008a70 f   libpng:png.obj
 0001:00007c60       png_build_16to8_table      0000000180008c60 f   libpng:png.obj
 0001:00007e90       png_build_8bit_table       0000000180008e90 f   libpng:png.obj
 0001:00008530       write_unknown_chunks       0000000180009530 f   libpng:pngwrite.obj
 0001:00009320       png_do_write_intrapixel    000000018000a320 f   libpng:pngwrite.obj
 0001:000096ec       $LN145                     000000018000a6ec     libpng:pngwrite.obj
 0001:00009710       png_write_destroy          000000018000a710 f   libpng:pngwrite.obj
 0001:00009900       png_reset_filter_heuristics 000000018000a900 f   libpng:pngwrite.obj
 0001:00009d10       png_format_buffer          000000018000ad10 f   libpng:pngerror.obj
 0001:0000a0a0       png_default_error          000000018000b0a0 f   libpng:pngerror.obj
 0001:0000a580       png_do_read_intrapixel     000000018000b580 f   libpng:pngread.obj
 0001:0000aa18       $LN139                     000000018000ba18     libpng:pngread.obj
 0001:0000ab20       png_read_destroy           000000018000bb20 f   libpng:pngread.obj
 0001:0000bbd0       check_location             000000018000cbd0 f   libpng:pngset.obj
 0001:0000bf40       png_malloc_array_checked   000000018000cf40 f   libpng:pngmem.obj
 0001:0000c690       png_write_chunk_header     000000018000d690 f   libpng:pngwutil.obj
 0001:0000c8b0       png_write_complete_chunk   000000018000d8b0 f   libpng:pngwutil.obj
 0001:0000c940       png_image_size             000000018000d940 f   libpng:pngwutil.obj
 0001:0000cac0       optimize_cmf               000000018000dac0 f   libpng:pngwutil.obj
 0001:0000cb60       png_deflate_claim          000000018000db60 f   libpng:pngwutil.obj
 0001:0000cef0       png_text_compress          000000018000def0 f   libpng:pngwutil.obj
 0001:0000d0b0       png_write_compressed_data_out 000000018000e0b0 f   libpng:pngwutil.obj
 0001:0000d170       png_check_keyword          000000018000e170 f   libpng:pngwutil.obj
 0001:00010ca0       png_do_pack                0000000180011ca0 f   libpng:pngwtran.obj
 0001:00010e30       png_do_shift               0000000180011e30 f   libpng:pngwtran.obj
 0001:000110a0       png_do_write_swap_alpha    00000001800120a0 f   libpng:pngwtran.obj
 0001:00011870       png_read_buffer            0000000180012870 f   libpng:pngrutil.obj
 0001:00011950       png_inflate_claim          0000000180012950 f   libpng:pngrutil.obj
 0001:00011b00       png_inflate                0000000180012b00 f   libpng:pngrutil.obj
 0001:00011c50       png_decompress_chunk       0000000180012c50 f   libpng:pngrutil.obj
 0001:00011f20       png_inflate_read           0000000180012f20 f   libpng:pngrutil.obj
 0001:00015b00       png_cache_unknown_chunk    0000000180016b00 f   libpng:pngrutil.obj
 0001:00016800       png_read_filter_row_sub    0000000180017800 f   libpng:pngrutil.obj
 0001:00016840       png_read_filter_row_up     0000000180017840 f   libpng:pngrutil.obj
 0001:00016910       png_read_filter_row_avg    0000000180017910 f   libpng:pngrutil.obj
 0001:00016970       png_read_filter_row_paeth_1byte_pixel 0000000180017970 f   libpng:pngrutil.obj
 0001:00016a50       png_read_filter_row_paeth_multibyte_pixel 0000000180017a50 f   libpng:pngrutil.obj
 0001:000173f0       png_init_palette_transformations 00000001800183f0 f   libpng:pngrtran.obj
 0001:00018290       png_do_unpack              0000000180019290 f   libpng:pngrtran.obj
 0001:00018440       png_do_unshift             0000000180019440 f   libpng:pngrtran.obj
 0001:00018690       png_do_read_swap_alpha     0000000180019690 f   libpng:pngrtran.obj
 0001:000187e0       png_do_read_filler         00000001800197e0 f   libpng:pngrtran.obj
 0001:00018b00       png_do_gray_to_rgb         0000000180019b00 f   libpng:pngrtran.obj
 0001:00018ce0       png_do_rgb_to_gray         0000000180019ce0 f   libpng:pngrtran.obj
 0001:00019150       png_do_compose             000000018001a150 f   libpng:pngrtran.obj
 0001:0001a280       png_do_gamma               000000018001b280 f   libpng:pngrtran.obj
 0001:0001a720       png_do_expand_palette      000000018001b720 f   libpng:pngrtran.obj
 0001:0001aa00       png_do_expand              000000018001ba00 f   libpng:pngrtran.obj
 0001:0001ae60       png_do_quantize            000000018001be60 f   libpng:pngrtran.obj
 0001:0001bb40       updatewindow               000000018001cb40 f   zlib:inflate.obj
 0001:0001d2c0       $LN1304                    000000018001e2c0     zlib:inflate.obj
 0001:0001d350       crc32_little               000000018001e350 f   zlib:crc32.obj
 0001:0001da60       flush_pending              000000018001ea60 f   zlib:deflate.obj
 0001:0001e630       longest_match              000000018001f630 f   zlib:deflate.obj
 0001:0001e800       fill_window                000000018001f800 f   zlib:deflate.obj
 0001:0001eae0       deflate_stored             000000018001fae0 f   zlib:deflate.obj
 0001:0001edf0       deflate_fast               000000018001fdf0 f   zlib:deflate.obj
 0001:0001f2c0       deflate_slow               00000001800202c0 f   zlib:deflate.obj
 0001:0001f860       deflate_rle                0000000180020860 f   zlib:deflate.obj
 0001:0001fc30       deflate_huff               0000000180020c30 f   zlib:deflate.obj
 0001:00020900       init_block                 0000000180021900 f   zlib:trees.obj
 0001:00020ad0       pqdownheap                 0000000180021ad0 f   zlib:trees.obj
 0001:00020bc0       gen_bitlen                 0000000180021bc0 f   zlib:trees.obj
 0001:00020dd0       gen_codes                  0000000180021dd0 f   zlib:trees.obj
 0001:00020f40       build_tree                 0000000180021f40 f   zlib:trees.obj
 0001:000211a0       scan_tree                  00000001800221a0 f   zlib:trees.obj
 0001:000212b0       send_tree                  00000001800222b0 f   zlib:trees.obj
 0001:00021820       send_all_trees             0000000180022820 f   zlib:trees.obj
 0001:00021fb0       compress_block             0000000180022fb0 f   zlib:trees.obj
 0001:00022410       bi_flush                   0000000180023410 f   zlib:trees.obj
 0001:00022b80       $$000000                   0000000180023b80     LIBCMT:amdsecgs.obj
 0001:00023010       ?dllmain_crt_dispatch@@YAHQEAUHINSTANCE__@@KQEAX@Z 0000000180024010 f   LIBCMT:dll_dllmain.obj
 0001:00023060       ?dllmain_crt_process_attach@@YAHQEAUHINSTANCE__@@QEAX@Z 0000000180024060 f   LIBCMT:dll_dllmain.obj
 0001:0002317c       ?dllmain_crt_process_detach@@YAH_N@Z 000000018002417c f   LIBCMT:dll_dllmain.obj
 0001:0002320c       ?dllmain_dispatch@@YAHQEAUHINSTANCE__@@KQEAX@Z 000000018002420c f   LIBCMT:dll_dllmain.obj
 0001:00023538       capture_current_context    0000000180024538 f   LIBCMT:gs_report.obj
 0001:000235a8       capture_previous_context   00000001800245a8 f   LIBCMT:gs_report.obj
 0001:000246e0       $$000000                   00000001800256e0     libvcruntime:memset.obj
 0001:000247dc       MsetTab                    00000001800257dc     libvcruntime:memset.obj
 0001:00024bd0       ??$BuildCatchObjectHelperInternal@$$CBU_s_HandlerType@@@@YAHPEAUEHExceptionRecord@@PEAXPEBU_s_HandlerType@@PEBU_s_CatchableType@@@Z 0000000180025bd0 f   libvcruntime:frame.obj
 0001:00024dd0       ??$BuildCatchObjectInternal@$$CBU_s_HandlerType@@@@YAXPEAUEHExceptionRecord@@PEAXPEBU_s_HandlerType@@PEBU_s_CatchableType@@@Z 0000000180025dd0 f   libvcruntime:frame.obj
 0001:00024e90       ??$CatchIt@V__FrameHandler3@@@@YAXPEAUEHExceptionRecord@@PEA_KPEAU_CONTEXT@@PEAU_xDISPATCHER_CONTEXT@@PEBU_s_FuncInfo@@PEBU_s_HandlerType@@PEBU_s_CatchableType@@PEBU_s_TryBlockMapEntry@@H1EE@Z 0000000180025e90 f   libvcruntime:frame.obj
 0001:00024f60       ??$FindHandler@V__FrameHandler3@@@@YAXPEAUEHExceptionRecord@@PEA_KPEAU_CONTEXT@@PEAU_xDISPATCHER_CONTEXT@@PEBU_s_FuncInfo@@EH1@Z 0000000180025f60 f   libvcruntime:frame.obj
 0001:000253c4       ??$FindHandlerForForeignException@V__FrameHandler3@@@@YAXPEAUEHExceptionRecord@@PEA_KPEAU_CONTEXT@@PEAU_xDISPATCHER_CONTEXT@@PEBU_s_FuncInfo@@HH1@Z 00000001800263c4 f   libvcruntime:frame.obj
 0001:00025bcc       ?ExFilterRethrow@@YAHPEAU_EXCEPTION_POINTERS@@PEAUEHExceptionRecord@@PEAH@Z 0000000180026bcc f   libvcruntime:frame.obj
 0001:00025e80       ?IsInExceptionSpec@@YAEPEAUEHExceptionRecord@@PEBU_s_ESTypeList@@@Z 0000000180026e80 f   libvcruntime:frame.obj
 0001:00025f58       ?Is_bad_exception_allowed@@YAEPEBU_s_ESTypeList@@@Z 0000000180026f58 f   libvcruntime:frame.obj
 0001:00026118       ?try_get_function@@YAPEAXW4function_id@?A0x2eb21ddb@@QEBDQEBW4module_id@2@2@Z 0000000180027118 f   libvcruntime:winapi_downlevel.obj
 0001:000264f0       $$000000                   00000001800274f0     libvcruntime:notify.obj
 0001:00026540       $$000000                   0000000180027540     libvcruntime:handlers.obj
 0001:000265f0       $$000000                   00000001800275f0     libvcruntime:memcpy.obj
 0001:000266a7       MoveSmall                  00000001800276a7     libvcruntime:memcpy.obj
 0001:0002763c       ??$common_assert_to_message_box@_W@@YAXQEB_W0IQEAX@Z 000000018002863c f   libucrt:assert.obj
 0001:00027700       ??$common_assert_to_message_box_build_string@_W@@YAXQEA_W_KQEB_W2IQEAX@Z 0000000180028700 f   libucrt:assert.obj
 0001:00027ec4       ??$common_assert_to_stderr@_W@@YAXQEB_W0I@Z 0000000180028ec4 f   libucrt:assert.obj
 0001:00028034       ?get_assert_format@@YAPEB_W_W@Z 0000000180029034 f   libucrt:assert.obj
 0001:0002840c       ??$common_fsopen@D@@YAPEAU_iobuf@@QEBD0H@Z 000000018002940c f   libucrt:fopen.obj
 0001:000286f4       ??$?RV<lambda_842d9ff0dc9ef11c61343bbaebe7f885>@@AEAV<lambda_c5860995281e5c4ce005b3de8f5874ee>@@V<lambda_d90129c13df834fdcbf8d2b88dafcf2d>@@@?$__crt_seh_guarded_call@X@@QEAAX$$QEAV<lambda_842d9ff0dc9ef11c61343bbaebe7f885>@@AEAV<lambda_c5860995281e5c4ce005b3de8f5874ee>@@$$QEAV<lambda_d90129c13df834fdcbf8d2b88dafcf2d>@@@Z 00000001800296f4 f   libucrt:fflush.obj
 0001:00028790       ??$?RV<lambda_886d6c58226a84441f68b9f2b8217b83>@@AEAV<lambda_ab61a845afdef5b7c387490eaf3616ee>@@V<lambda_f7f22ab5edc0698d5f6905b0d3f44752>@@@?$__crt_seh_guarded_call@X@@QEAAX$$QEAV<lambda_886d6c58226a84441f68b9f2b8217b83>@@AEAV<lambda_ab61a845afdef5b7c387490eaf3616ee>@@$$QEAV<lambda_f7f22ab5edc0698d5f6905b0d3f44752>@@@Z 0000000180029790 f   libucrt:fflush.obj
 0001:00028870       ??$?RV<lambda_c376a267cfb53b6959b3b692ec76b120>@@AEAV<lambda_9a32fed5bf61b6b509b2d3f6003082a1>@@V<lambda_572fbb9fa0ab338edf41edfd4b5fcc8d>@@@?$__crt_seh_guarded_call@H@@QEAAH$$QEAV<lambda_c376a267cfb53b6959b3b692ec76b120>@@AEAV<lambda_9a32fed5bf61b6b509b2d3f6003082a1>@@$$QEAV<lambda_572fbb9fa0ab338edf41edfd4b5fcc8d>@@@Z 0000000180029870 f   libucrt:fflush.obj
 0001:000288b0       ?common_flush_all@@YAH_N@Z 00000001800298b0 f   libucrt:fflush.obj
 0001:00028fc0       memcpy_s                   0000000180029fc0 f   libucrt:cfout.obj
 0001:00028fc0       memcpy_s                   0000000180029fc0 f   libucrt:atof.obj
 0001:00029248       ??$?RV<lambda_0d412022a4b28cc8a401ea49574e8ae6>@@AEAV<lambda_a775ed57af18ba8e4d5dc780aa9068fe>@@V<lambda_975a71a6baa488a08f4e15f6b0339b9e>@@@?$__crt_seh_guarded_call@H@@QEAAH$$QEAV<lambda_0d412022a4b28cc8a401ea49574e8ae6>@@AEAV<lambda_a775ed57af18ba8e4d5dc780aa9068fe>@@$$QEAV<lambda_975a71a6baa488a08f4e15f6b0339b9e>@@@Z 000000018002a248 f   libucrt:output.obj
 0001:00029288       ??$?RV<lambda_a62c933ada0517137acf5807a1eeac1f>@@AEAV<lambda_a31071773b9a94e445cbd5d04ef99106>@@V<lambda_56065050dbf3ada7e59a83db45153de3>@@@?$__crt_seh_guarded_call@H@@QEAAH$$QEAV<lambda_a62c933ada0517137acf5807a1eeac1f>@@AEAV<lambda_a31071773b9a94e445cbd5d04ef99106>@@$$QEAV<lambda_56065050dbf3ada7e59a83db45153de3>@@@Z 000000018002a288 f   libucrt:output.obj
 0001:000292c8       ??$common_vsprintf@Vstandard_base@__crt_stdio_output@@_W@@YAH_KQEA_W0QEB_WQEAU__crt_locale_pointers@@QEAD@Z 000000018002a2c8 f   libucrt:output.obj
 0001:00029a34       ??R<lambda_a31071773b9a94e445cbd5d04ef99106>@@QEBAHXZ 000000018002aa34 f   libucrt:output.obj
 0001:00029b64       ??R<lambda_a775ed57af18ba8e4d5dc780aa9068fe>@@QEBAHXZ 000000018002ab64 f   libucrt:output.obj
 0001:0002ca14       ??$?RV<lambda_bdbcead8b570fa3d5ec6d9679862a6e5>@@AEAV<lambda_96f4279ff90247a4c5c5d9824f56f8c1>@@V<lambda_4606be27f17b5e5579e09050fab91818>@@@?$__crt_seh_guarded_call@_K@@QEAA_K$$QEAV<lambda_bdbcead8b570fa3d5ec6d9679862a6e5>@@AEAV<lambda_96f4279ff90247a4c5c5d9824f56f8c1>@@$$QEAV<lambda_4606be27f17b5e5579e09050fab91818>@@@Z 000000018002da14 f   libucrt:fwrite.obj
 0001:0002ca54       ??R<lambda_96f4279ff90247a4c5c5d9824f56f8c1>@@QEBA_KXZ 000000018002da54 f   libucrt:fwrite.obj
 0001:0002cedc       ??$?RV<lambda_d80eeec6fff315bfe5c115232f3240e3>@@AEAV<lambda_6e4b09c48022b2350581041d5f6b0c4c>@@V<lambda_2358e3775559c9db80273638284d5e45>@@@?$__crt_seh_guarded_call@X@@QEAAX$$QEAV<lambda_d80eeec6fff315bfe5c115232f3240e3>@@AEAV<lambda_6e4b09c48022b2350581041d5f6b0c4c>@@$$QEAV<lambda_2358e3775559c9db80273638284d5e45>@@@Z 000000018002dedc f   libucrt:exit.obj
 0001:0002cf14       ??R<lambda_6e4b09c48022b2350581041d5f6b0c4c>@@QEBA@XZ 000000018002df14 f   libucrt:exit.obj
 0001:0002cfec       ?atexit_exception_filter@@YAHK@Z 000000018002dfec f   libucrt:exit.obj
 0001:0002cff8       ?common_exit@@YAXHW4_crt_exit_cleanup_mode@@W4_crt_exit_return_mode@@@Z 000000018002dff8 f   libucrt:exit.obj
 0001:0002d0b4       ?exit_or_terminate_process@@YAXI@Z 000000018002e0b4 f   libucrt:exit.obj
 0001:0002d100       ?try_cor_exit_process@@YAXI@Z 000000018002e100 f   libucrt:exit.obj
 0001:0002d188       ??$parse_command_line@D@@YAXPEADPEAPEAD0PEA_K2@Z 000000018002e188 f   libucrt:argv_parsing.obj
 0001:0002d534       ??$common_initialize_environment_nolock@D@@YAHXZ 000000018002e534 f   libucrt:environment_initialization.obj
 0001:0002d5a0       ??$create_environment@D@@YAQEAPEADQEAD@Z 000000018002e5a0 f   libucrt:environment_initialization.obj
 0001:0002d6a8       ??$free_environment@_W@@YAXQEAPEA_W@Z 000000018002e6a8 f   libucrt:environment_initialization.obj
 0001:0002d6a8       ??$free_environment@D@@YAXQEAPEAD@Z 000000018002e6a8 f   libucrt:environment_initialization.obj
 0001:0002d6ec       ??$uninitialize_environment_internal@D@@YAXAEAPEAPEAD@Z 000000018002e6ec f   libucrt:environment_initialization.obj
 0001:0002d708       ??$uninitialize_environment_internal@_W@@YAXAEAPEAPEA_W@Z 000000018002e708 f   libucrt:environment_initialization.obj
 0001:0002d764       ??$?RV<lambda_7777bce6b2f8c936911f934f8298dc43>@@AEAV<lambda_f03950bc5685219e0bcd2087efbe011e>@@V<lambda_3883c3dff614d5e0c5f61bb1ac94921c>@@@?$__crt_seh_guarded_call@H@@QEAAH$$QEAV<lambda_7777bce6b2f8c936911f934f8298dc43>@@AEAV<lambda_f03950bc5685219e0bcd2087efbe011e>@@$$QEAV<lambda_3883c3dff614d5e0c5f61bb1ac94921c>@@@Z 000000018002e764 f   libucrt:onexit.obj
 0001:0002d7a0       ??$?RV<lambda_8369fcb7c4df1e85de37618bd2b85f07>@@AEAV<lambda_a10e4b102d4a2c3aac6f4f48bbdf488f>@@V<lambda_5b7707bd6d7a0c4713179f36c7fd995d>@@@?$__crt_seh_guarded_call@H@@QEAAH$$QEAV<lambda_8369fcb7c4df1e85de37618bd2b85f07>@@AEAV<lambda_a10e4b102d4a2c3aac6f4f48bbdf488f>@@$$QEAV<lambda_5b7707bd6d7a0c4713179f36c7fd995d>@@@Z 000000018002e7a0 f   libucrt:onexit.obj
 0001:0002d7dc       ??R<lambda_a10e4b102d4a2c3aac6f4f48bbdf488f>@@QEBAHXZ 000000018002e7dc f   libucrt:onexit.obj
 0001:0002d9a0       ??R<lambda_f03950bc5685219e0bcd2087efbe011e>@@QEBAHXZ 000000018002e9a0 f   libucrt:onexit.obj
 0001:0002dbc0       initialize_global_variables 000000018002ebc0 f   libucrt:initialization.obj
 0001:0002dbd4       initialize_c               000000018002ebd4 f   libucrt:initialization.obj
 0001:0002dbf8       uninitialize_c             000000018002ebf8 f   libucrt:initialization.obj
 0001:0002dbf8       initialize_environment     000000018002ebf8 f   libucrt:initialization.obj
 0001:0002dbf8       uninitialize_global_state_isolation 000000018002ebf8 f   libucrt:initialization.obj
 0001:0002dbf8       initialize_global_state_isolation 000000018002ebf8 f   libucrt:initialization.obj
 0001:0002dbf8       report_memory_leaks        000000018002ebf8 f   libucrt:initialization.obj
 0001:0002dbfc       uninitialize_environment   000000018002ebfc f   libucrt:initialization.obj
 0001:0002dc0c       initialize_pointers        000000018002ec0c f   libucrt:initialization.obj
 0001:0002dc60       uninitialize_vcruntime     000000018002ec60 f   libucrt:initialization.obj
 0001:0002dc68       uninitialize_allocated_memory 000000018002ec68 f   libucrt:initialization.obj
 0001:0002dca8       uninitialize_allocated_io_buffers 000000018002eca8 f   libucrt:initialization.obj
 0001:0002def0       $$000000                   000000018002eef0     libucrt:strncmp.obj
 0001:0002df80       ??$?RV<lambda_0ae27a3a962d80f24befdcbee591983d>@@AEAV<lambda_8d0ee55de4b1038c4002e0adecdf1839>@@V<lambda_dc504788e8f1664fe9b84e20bfb512f2>@@@?$__crt_seh_guarded_call@X@@QEAAX$$QEAV<lambda_0ae27a3a962d80f24befdcbee591983d>@@AEAV<lambda_8d0ee55de4b1038c4002e0adecdf1839>@@$$QEAV<lambda_dc504788e8f1664fe9b84e20bfb512f2>@@@Z 000000018002ef80 f   libucrt:per_thread_data.obj
 0001:0002dfc0       ??$?RV<lambda_2d41944a1d46af3157314b8a01080d33>@@AEAV<lambda_8f455de75cd7d7f24b4096f044d8b9e6>@@V<lambda_aa500f224e6afead328df44964fe2772>@@@?$__crt_seh_guarded_call@X@@QEAAX$$QEAV<lambda_2d41944a1d46af3157314b8a01080d33>@@AEAV<lambda_8f455de75cd7d7f24b4096f044d8b9e6>@@$$QEAV<lambda_aa500f224e6afead328df44964fe2772>@@@Z 000000018002efc0 f   libucrt:per_thread_data.obj
 0001:0002e000       ??$?RV<lambda_aa87e3671a710a21b5dc78c0bdf72e11>@@AEAV<lambda_92619d2358a28f41a33ba319515a20b9>@@V<lambda_6992ecaafeb10aed2b74cb1fae11a551>@@@?$__crt_seh_guarded_call@X@@QEAAX$$QEAV<lambda_aa87e3671a710a21b5dc78c0bdf72e11>@@AEAV<lambda_92619d2358a28f41a33ba319515a20b9>@@$$QEAV<lambda_6992ecaafeb10aed2b74cb1fae11a551>@@@Z 000000018002f000 f   libucrt:per_thread_data.obj
 0001:0002e048       ??$?RV<lambda_f2e299630e499de9f9a165e60fcd3db5>@@AEAV<lambda_2ae9d31cdba2644fcbeaf08da7c24588>@@V<lambda_40d01ff24d0e7b3814fdbdcee8eab3c7>@@@?$__crt_seh_guarded_call@X@@QEAAX$$QEAV<lambda_f2e299630e499de9f9a165e60fcd3db5>@@AEAV<lambda_2ae9d31cdba2644fcbeaf08da7c24588>@@$$QEAV<lambda_40d01ff24d0e7b3814fdbdcee8eab3c7>@@@Z 000000018002f048 f   libucrt:per_thread_data.obj
 0001:0002e0a8       ?construct_ptd_array@@YAXQEAU__acrt_ptd@@@Z 000000018002f0a8 f   libucrt:per_thread_data.obj
 0001:0002e178       ?destroy_fls@@YAXPEAX@Z    000000018002f178 f   libucrt:per_thread_data.obj
 0001:0002e198       ?destroy_ptd_array@@YAXQEAU__acrt_ptd@@@Z 000000018002f198 f   libucrt:per_thread_data.obj
 0001:0002e290       ?replace_current_thread_locale_nolock@@YAXQEAU__acrt_ptd@@QEAU__crt_locale_data@@@Z 000000018002f290 f   libucrt:per_thread_data.obj
 0001:0002e7dc       ??$?RV<lambda_410d79af7f07d98d83a3f525b3859a53>@@AEAV<lambda_3e16ef9562a7dcce91392c22ab16ea36>@@V<lambda_38119f0e861e05405d8a144b9b982f0a>@@@?$__crt_seh_guarded_call@X@@QEAAX$$QEAV<lambda_410d79af7f07d98d83a3f525b3859a53>@@AEAV<lambda_3e16ef9562a7dcce91392c22ab16ea36>@@$$QEAV<lambda_38119f0e861e05405d8a144b9b982f0a>@@@Z 000000018002f7dc f   libucrt:wsetlocale.obj
 0001:0002e8d0       ??$common_xtox@K_W@@YAHKQEA_W_KI_N@Z 000000018002f8d0 f   libucrt:xtoa.obj
 0001:0002e994       ??$common_xtox_s@K_W@@YAHKQEA_W_KI_N@Z 000000018002f994 f   libucrt:xtoa.obj
 0001:0002ed98       ??$?RV<lambda_84ec643ea9557e2f7dc01bb0e9624395>@@AEAV<lambda_ca71763b3c0644891230e4f79ea54fa6>@@V<lambda_439a761618c59b0600e24586724d733b>@@@?$__crt_seh_guarded_call@H@@QEAAH$$QEAV<lambda_84ec643ea9557e2f7dc01bb0e9624395>@@AEAV<lambda_ca71763b3c0644891230e4f79ea54fa6>@@$$QEAV<lambda_439a761618c59b0600e24586724d733b>@@@Z 000000018002fd98 f   libucrt:setvbuf.obj
 0001:0002edd8       ??R<lambda_ca71763b3c0644891230e4f79ea54fa6>@@QEBAHXZ 000000018002fdd8 f   libucrt:setvbuf.obj
 0001:0002ef64       ??$?RV<lambda_450d765d439847d4c735a33c368b5fc0>@@AEAV<lambda_44731a7d0e6d81c3e6aa82d741081786>@@V<lambda_601a2a7da3b7a96e9554ac7215c4b07c>@@@?$__crt_seh_guarded_call@P6AXH@Z@@QEAAP6AXH@Z$$QEAV<lambda_450d765d439847d4c735a33c368b5fc0>@@AEAV<lambda_44731a7d0e6d81c3e6aa82d741081786>@@$$QEAV<lambda_601a2a7da3b7a96e9554ac7215c4b07c>@@@Z 000000018002ff64 f   libucrt:signal.obj
 0001:0002f350       ?find_or_allocate_unused_stream_nolock@@YA?AV__crt_stdio_stream@@XZ 0000000180030350 f   libucrt:stream.obj
 0001:0002f79c       ??$?RV<lambda_751a882b2c74d4b022dec766aa51a29a>@@AEAV<lambda_628dfdc04ba53c8bfc02c9951375f3f5>@@V<lambda_f6c7be5f7998530c34de24c7437d6b54>@@@?$__crt_seh_guarded_call@H@@QEAAH$$QEAV<lambda_751a882b2c74d4b022dec766aa51a29a>@@AEAV<lambda_628dfdc04ba53c8bfc02c9951375f3f5>@@$$QEAV<lambda_f6c7be5f7998530c34de24c7437d6b54>@@@Z 000000018003079c f   libucrt:close.obj
 0001:0002f9d8       ?internal_isupper_l@@YA_NHQEAU__crt_locale_pointers@@@Z 00000001800309d8 f   libucrt:tolower_toupper.obj
 0001:00030084       ??$?RV<lambda_a37b2b86f63e897a80ea819b0eb08c01>@@AEAV<lambda_38ce7e780aa69e748d6df282ebc68efe>@@V<lambda_99fb1378e971ab6e7edea83e3a7a83a2>@@@?$__crt_seh_guarded_call@H@@QEAAH$$QEAV<lambda_a37b2b86f63e897a80ea819b0eb08c01>@@AEAV<lambda_38ce7e780aa69e748d6df282ebc68efe>@@$$QEAV<lambda_99fb1378e971ab6e7edea83e3a7a83a2>@@@Z 0000000180031084 f   libucrt:commit.obj
 0001:000301a4       ?write_double_translated_ansi_nolock@@YA?AUwrite_result@?A0x17268360@@HQEBDI@Z 00000001800311a4 f   libucrt:write.obj
 0001:000303bc       ?write_text_ansi_nolock@@YA?AUwrite_result@?A0x17268360@@HQEBDI@Z 00000001800313bc f   libucrt:write.obj
 0001:000304c0       ?write_text_utf16le_nolock@@YA?AUwrite_result@?A0x17268360@@HQEBDI@Z 00000001800314c0 f   libucrt:write.obj
 0001:000305dc       ?write_text_utf8_nolock@@YA?AUwrite_result@?A0x17268360@@HQEBDI@Z 00000001800315dc f   libucrt:write.obj
 0001:00030b74       ?try_get_function@@YAPEAXW4function_id@?A0x391cf84c@@QEBDQEBW4module_id@2@2@Z 0000000180031b74 f   libucrt:winapi_thunks.obj
 0001:00031460       ?_mbstowcs_l_helper@@YA_KPEA_WPEBD_KPEAU__crt_locale_pointers@@@Z 0000000180032460 f   libucrt:mbstowcs.obj
 0001:00031824       ?initialize_inherited_file_handles_nolock@@YAXXZ 0000000180032824 f   libucrt:ioinit.obj
 0001:00031910       ?initialize_stdio_handles_nolock@@YAXXZ 0000000180032910 f   libucrt:ioinit.obj
 0001:00032144       ?fp_format_a@@YAHQEBNPEAD_KQEAD2H_NIQEAU__crt_locale_pointers@@@Z 0000000180033144 f   libucrt:cvt.obj
 0001:000324ac       ?fp_format_e@@YAHQEBNQEAD_K12H_NIQEAU__crt_locale_pointers@@@Z 00000001800334ac f   libucrt:cvt.obj
 0001:00032588       ?fp_format_e_internal@@YAHQEAD_KH_NIQEAU_strflt@@2QEAU__crt_locale_pointers@@@Z 0000000180033588 f   libucrt:cvt.obj
 0001:0003275c       ?fp_format_f_internal@@YAHQEAD_KHQEAU_strflt@@_NQEAU__crt_locale_pointers@@@Z 000000018003375c f   libucrt:cvt.obj
 0001:000328a0       ?fp_format_g@@YAHQEBNQEAD_K12H_NIQEAU__crt_locale_pointers@@@Z 00000001800338a0 f   libucrt:cvt.obj
 0001:000329d4       ?fp_format_nan_or_infinity@@YAHW4__acrt_fp_class@@_NPEAD_K1@Z 00000001800339d4 f   libucrt:cvt.obj
 0001:00033050       ??$translate_text_mode_nolock@D@@YAHHQEAD_K@Z 0000000180034050 f   libucrt:read.obj
 0001:00033210       ??$translate_text_mode_nolock@_W@@YAHHQEA_W_K@Z 0000000180034210 f   libucrt:read.obj
 0001:00033494       ?translate_ansi_or_utf8_nolock@@YAHHQEAD_KQEA_W1@Z 0000000180034494 f   libucrt:read.obj
 0001:00033d14       ??$write_buffer_nolock@D@@YA_NDV__crt_stdio_stream@@@Z 0000000180034d14 f   libucrt:_flsbuf.obj
 0001:00033df4       ??$write_buffer_nolock@_W@@YA_N_WV__crt_stdio_stream@@@Z 0000000180034df4 f   libucrt:_flsbuf.obj
 0001:000341a8       ?<lambda_invoker_cdecl>@<lambda_c2303d2482d7c3675ea2e24c4cfb6115>@@CAHPEBX0@Z 00000001800351a8 f   libucrt:argv_wildcards.obj
 0001:000341bc       ??$common_expand_argv_wildcards@D@@YAHQEAPEADQEAPEAPEAD@Z 00000001800351bc f   libucrt:argv_wildcards.obj
 0001:000343c8       ??$copy_and_add_argument_to_buffer@D@@YAHQEBD0_KAEAV?$argument_list@D@?A0x5f5c8891@@@Z 00000001800353c8 f   libucrt:argv_wildcards.obj
 0001:00034564       ??$expand_argument_wildcards@D@@YAHQEAD0AEAV?$argument_list@D@?A0x5f5c8891@@@Z 0000000180035564 f   libucrt:argv_wildcards.obj
 0001:00034718       ??$?RV<lambda_efdfa57d1f175319df784efa44bb7b81>@@AEAV<lambda_5f0a4c1567f8adc6734073e5d1e1b35c>@@V<lambda_2e8a7d3640ea6ccb4c2413664c2db6fd>@@@?$__crt_seh_guarded_call@X@@QEAAX$$QEAV<lambda_efdfa57d1f175319df784efa44bb7b81>@@AEAV<lambda_5f0a4c1567f8adc6734073e5d1e1b35c>@@$$QEAV<lambda_2e8a7d3640ea6ccb4c2413664c2db6fd>@@@Z 0000000180035718 f   libucrt:mbctype.obj
 0001:000348d4       ?getSystemCP@@YAHH@Z       00000001800358d4 f   libucrt:mbctype.obj
 0001:00034954       ?setSBCS@@YAXPEAU__crt_multibyte_data@@@Z 0000000180035954 f   libucrt:mbctype.obj
 0001:000349e4       ?setSBUpLow@@YAXPEAU__crt_multibyte_data@@@Z 00000001800359e4 f   libucrt:mbctype.obj
 0001:00034bc8       ?setmbcp_internal@@YAHH_NQEAU__acrt_ptd@@QEAPEAU__crt_multibyte_data@@@Z 0000000180035bc8 f   libucrt:mbctype.obj
 0001:00034d8c       ?update_thread_multibyte_data_internal@@YAPEAU__crt_multibyte_data@@QEAU__acrt_ptd@@QEAPEAU1@@Z 0000000180035d8c f   libucrt:mbctype.obj
 0001:00035178       ?x_ismbbtype_l@@YAHPEAU__crt_locale_pointers@@IHH@Z 0000000180036178 f   libucrt:ismbbyte.obj
 0001:00035d00       ?free_crt_array_internal@@YAXQEAPEBX_K@Z 0000000180036d00 f   libucrt:inittime.obj
 0001:00035fec       ??$common_sopen_dispatch@D@@YAHQEBDHHHQEAHH@Z 0000000180036fec f   libucrt:open.obj
 0001:000360b0       ?configure_text_mode@@YAHHUfile_options@?A0xa9d50aae@@HAEAW4__crt_lowio_text_mode@@@Z 00000001800370b0 f   libucrt:open.obj
 0001:00036344       ?decode_options@@YA?AUfile_options@?A0xa9d50aae@@HHH@Z 0000000180037344 f   libucrt:open.obj
 0001:00036550       ?truncate_ctrl_z_if_present@@YAHH@Z 0000000180037550 f   libucrt:open.obj
 0001:00037038       ?__acrt_LCMapStringA_stat@@YAHPEAU__crt_locale_pointers@@PEB_WKPEBDHPEADHHH@Z 0000000180038038 f   libucrt:lcmapstringa.obj
 0001:000373f0       $$000000                   00000001800383f0     libucrt:fpsr.obj
 0001:000374b0       ??$common_lseek@_J@@YA_JH_JH@Z 00000001800384b0 f   libucrt:lseek.obj
 0001:000375a0       ??$common_lseek_nolock@_J@@YA_JH_JH@Z 00000001800385a0 f   libucrt:lseek.obj
 0001:00037688       ?GetTableIndexFromLocaleName@@YAHPEB_W@Z 0000000180038688 f   libucrt:lcidtoname_downlevel.obj
 0001:00039450       fallbackMethod             000000018003a450 f   libucrt:strpbrk.obj
 0001:00039814       $LN78                      000000018003a814     libucrt:strpbrk.obj
 0001:00039850       $LN77                      000000018003a850     libucrt:strpbrk.obj
 0001:00039890       $LN76                      000000018003a890     libucrt:strpbrk.obj
 0001:00039d18       ?initialize_multibyte@@YAHXZ 000000018003ad18 f   libucrt:multibyte_initializer.obj
 0001:0003a530       $$000000                   000000018003b530     libucrt:log10.obj
 0001:0003aadc       ?_wcstombs_l_helper@@YA_KPEADPEB_W_KPEAU__crt_locale_pointers@@@Z 000000018003badc f   libucrt:wcstombs.obj
 0001:0003aebc       _call_matherr              000000018003bebc f   libucrt:libm_error.obj
 0001:0003af24       _exception_enabled         000000018003bf24 f   libucrt:libm_error.obj
 0001:0003b1c0       _log_special_common        000000018003c1c0 f   libucrt:log_special.obj
 0001:0003bca0       $$000000                   000000018003cca0     LIBCMT:chkstk.obj
 0001:0003bd90       $$000000                   000000018003cd90     libvcruntime:memcmp.obj
 0001:0003c070       $$000000                   000000018003d070     libucrt:pow.obj
 0001:0003d840       $$000000                   000000018003e840     LIBCMT:guard_dispatch.obj
 0001:0003d860       $$000000                   000000018003e860     libvcruntime:longjmp.obj
 0001:0003d960       $$000000                   000000018003e960     libvcruntime:setjmp.obj
 0001:0003da20       ?dtor$0@?0??New@?$Factory@VFunctionTemplate@v8@@@imp@Nan@@SA?AV?$Local@VFunctionTemplate@v8@@@v8@@P6AXAEBV?$FunctionCallbackInfo@VValue@v8@@@3@@ZV?$Local@VValue@v8@@@5@V?$Local@VSignature@v8@@@5@@Z@4HA 000000018003ea20 f   init.obj
 0001:0003da30       ?dtor$1@?0??New@?$Factory@VFunctionTemplate@v8@@@imp@Nan@@SA?AV?$Local@VFunctionTemplate@v8@@@v8@@P6AXAEBV?$FunctionCallbackInfo@VValue@v8@@@3@@ZV?$Local@VValue@v8@@@5@V?$Local@VSignature@v8@@@5@@Z@4HA 000000018003ea30 f   init.obj
 0001:0003da40       ?dtor$0@?0??InitAll@@YAXV?$Local@VObject@v8@@@v8@@@Z@4HA 000000018003ea40 f   init.obj
 0001:0003da50       ?dtor$0@?0???0Utf8String@Nan@@QEAA@V?$Local@VValue@v8@@@v8@@@Z@4HA 000000018003ea50 f   PngImgAdapter.obj
 0001:0003da50       ?dtor$2@?0??AsyncExecuteComplete@Nan@@YAXPEAUuv_work_s@@@Z@4HA 000000018003ea50 f   PngImgAdapter.obj
 0001:0003da50       ?dtor$2@?0??WorkComplete@AsyncWorker@Nan@@UEAAXXZ@4HA 000000018003ea50 f   PngImgAdapter.obj
 0001:0003da50       ?dtor$0@?0??SetPrototypeMethod@Nan@@YAXV?$Local@VFunctionTemplate@v8@@@v8@@PEBDP6AXAEBV?$FunctionCallbackInfo@VValue@v8@@@1@@Z@Z@4HA 000000018003ea50 f   PngImgAdapter.obj
 0001:0003da50       ?dtor$1@?0??Call@Callback@Nan@@QEBA?AV?$MaybeLocal@VValue@v8@@@v8@@HQEAV?$Local@VValue@v8@@@4@PEAVAsyncResource@2@@Z@4HA 000000018003ea50 f   PngImgAdapter.obj
 0001:0003da50       ?dtor$0@?0??ThrowError@Nan@@YAXPEBD@Z@4HA 000000018003ea50 f   PngImgAdapter.obj
 0001:0003da50       ?dtor$5@?0??AsyncExecuteComplete@Nan@@YAXPEAUuv_work_s@@@Z@4HA 000000018003ea50 f   PngImgAdapter.obj
 0001:0003da50       ?dtor$0@?0??HandleErrorCallback@AsyncWorker@Nan@@MEAAXXZ@4HA 000000018003ea50 f   PngImgAdapter.obj
 0001:0003da50       ?dtor$5@?0??WorkComplete@AsyncWorker@Nan@@UEAAXXZ@4HA 000000018003ea50 f   PngImgAdapter.obj
 0001:0003da50       ?dtor$0@?0??HandleOKCallback@AsyncWorker@Nan@@MEAAXXZ@4HA 000000018003ea50 f   PngImgAdapter.obj
 0001:0003da60       ?dtor$0@?0??Call@Callback@Nan@@QEBA?AV?$MaybeLocal@VValue@v8@@@v8@@HQEAV?$Local@VValue@v8@@@4@PEAVAsyncResource@2@@Z@4HA 000000018003ea60 f   PngImgAdapter.obj
 0001:0003da70       ?dtor$0@?0??AsyncExecuteComplete@Nan@@YAXPEAUuv_work_s@@@Z@4HA 000000018003ea70 f   PngImgAdapter.obj
 0001:0003da70       ?dtor$0@?0??SetAccessor@Nan@@YAXV?$Local@VObjectTemplate@v8@@@v8@@V?$Local@VString@v8@@@3@P6AX1AEBV?$PropertyCallbackInfo@VValue@v8@@@1@@ZP6AX1V?$Local@VValue@v8@@@3@AEBV?$PropertyCallbackInfo@X@1@@Z4W4AccessControl@3@W4PropertyAttribute@3@V?$Local@VAccessorSignature@v8@@@3@@Z@4HA 000000018003ea70 f   PngImgAdapter.obj
 0001:0003da70       ?dtor$0@?0??WorkComplete@AsyncWorker@Nan@@UEAAXXZ@4HA 000000018003ea70 f   PngImgAdapter.obj
 0001:0003da80       ?dtor$0@?0??AsyncExecute@Nan@@YAXPEAUuv_work_s@@@Z@4HA 000000018003ea80 f   PngImgAdapter.obj
 0001:0003da80       ?dtor$0@?0??Crop@PngImgAdapter@@CAXAEBV?$FunctionCallbackInfo@VValue@v8@@@Nan@@@Z@4HA 000000018003ea80 f   PngImgAdapter.obj
 0001:0003da80       ?dtor$0@?0??Execute@SaveWorker@@UEAAXXZ@4HA 000000018003ea80 f   PngImgAdapter.obj
 0001:0003da90       ?dtor$2@?0??SetAccessor@Nan@@YAXV?$Local@VObjectTemplate@v8@@@v8@@V?$Local@VString@v8@@@3@P6AX1AEBV?$PropertyCallbackInfo@VValue@v8@@@1@@ZP6AX1V?$Local@VValue@v8@@@3@AEBV?$PropertyCallbackInfo@X@1@@Z4W4AccessControl@3@W4PropertyAttribute@3@V?$Local@VAccessorSignature@v8@@@3@@Z@4HA 000000018003ea90 f   PngImgAdapter.obj
 0001:0003daa0       ?dtor$0@?0???0SaveWorker@@QEAA@PEAVCallback@Nan@@AEAVPngImg@@V?$basic_string@DU?$char_traits@D@std@@V?$allocator@D@2@@std@@AEBV?$Local@VObject@v8@@@v8@@@Z@4HA 000000018003eaa0 f   PngImgAdapter.obj
 0001:0003dab0       ?dtor$1@?0???0SaveWorker@@QEAA@PEAVCallback@Nan@@AEAVPngImg@@V?$basic_string@DU?$char_traits@D@std@@V?$allocator@D@2@@std@@AEBV?$Local@VObject@v8@@@v8@@@Z@4HA 000000018003eab0 f   PngImgAdapter.obj
 0001:0003dac0       ?dtor$2@?0???0SaveWorker@@QEAA@PEAVCallback@Nan@@AEAVPngImg@@V?$basic_string@DU?$char_traits@D@std@@V?$allocator@D@2@@std@@AEBV?$Local@VObject@v8@@@v8@@@Z@4HA 000000018003eac0 f   PngImgAdapter.obj
 0001:0003dae0       ?dtor$3@?0???0SaveWorker@@QEAA@PEAVCallback@Nan@@AEAVPngImg@@V?$basic_string@DU?$char_traits@D@std@@V?$allocator@D@2@@std@@AEBV?$Local@VObject@v8@@@v8@@@Z@4HA 000000018003eae0 f   PngImgAdapter.obj
 0001:0003db00       ?dtor$4@?0???0SaveWorker@@QEAA@PEAVCallback@Nan@@AEAVPngImg@@V?$basic_string@DU?$char_traits@D@std@@V?$allocator@D@2@@std@@AEBV?$Local@VObject@v8@@@v8@@@Z@4HA 000000018003eb00 f   PngImgAdapter.obj
 0001:0003db00       ?dtor$8@?0???0SaveWorker@@QEAA@PEAVCallback@Nan@@AEAVPngImg@@V?$basic_string@DU?$char_traits@D@std@@V?$allocator@D@2@@std@@AEBV?$Local@VObject@v8@@@v8@@@Z@4HA 000000018003eb00 f   PngImgAdapter.obj
 0001:0003db10       ?dtor$0@?0??NewInstance@PngImgAdapter@@SAXAEBV?$FunctionCallbackInfo@VValue@v8@@@Nan@@@Z@4HA 000000018003eb10 f   PngImgAdapter.obj
 0001:0003db20       ?dtor$0@?0??New@PngImgAdapter@@CAXAEBV?$FunctionCallbackInfo@VValue@v8@@@Nan@@@Z@4HA 000000018003eb20 f   PngImgAdapter.obj
 0001:0003db40       ?dtor$1@?0??New@PngImgAdapter@@CAXAEBV?$FunctionCallbackInfo@VValue@v8@@@Nan@@@Z@4HA 000000018003eb40 f   PngImgAdapter.obj
 0001:0003db50       ?dtor$2@?0??New@PngImgAdapter@@CAXAEBV?$FunctionCallbackInfo@VValue@v8@@@Nan@@@Z@4HA 000000018003eb50 f   PngImgAdapter.obj
 0001:0003db60       ?dtor$0@?0??Get@PngImgAdapter@@CAXAEBV?$FunctionCallbackInfo@VValue@v8@@@Nan@@@Z@4HA 000000018003eb60 f   PngImgAdapter.obj
 0001:0003db70       ?dtor$1@?0??Get@PngImgAdapter@@CAXAEBV?$FunctionCallbackInfo@VValue@v8@@@Nan@@@Z@4HA 000000018003eb70 f   PngImgAdapter.obj
 0001:0003db80       ?dtor$0@?0??RGBObjToPxl@@YA?AUPxl@@AEBV?$Local@VObject@v8@@@v8@@@Z@4HA 000000018003eb80 f   PngImgAdapter.obj
 0001:0003db80       ?dtor$1@?0??RGBObjToPxl@@YA?AUPxl@@AEBV?$Local@VObject@v8@@@v8@@@Z@4HA 000000018003eb80 f   PngImgAdapter.obj
 0001:0003db80       ?dtor$0@?0??Fill@PngImgAdapter@@CAXAEBV?$FunctionCallbackInfo@VValue@v8@@@Nan@@@Z@4HA 000000018003eb80 f   PngImgAdapter.obj
 0001:0003db80       ?dtor$3@?0??RGBObjToPxl@@YA?AUPxl@@AEBV?$Local@VObject@v8@@@v8@@@Z@4HA 000000018003eb80 f   PngImgAdapter.obj
 0001:0003db80       ?dtor$2@?0??RGBObjToPxl@@YA?AUPxl@@AEBV?$Local@VObject@v8@@@v8@@@Z@4HA 000000018003eb80 f   PngImgAdapter.obj
 0001:0003db90       ?dtor$0@?0???R<lambda_c6484637a8e92c945a958729cd5afacb>@@QEBAHAEBV?$basic_string@DU?$char_traits@D@std@@V?$allocator@D@2@@std@@@Z@4HA 000000018003eb90 f   PngImgAdapter.obj
 0001:0003dba0       ?dtor$1@?0???R<lambda_c6484637a8e92c945a958729cd5afacb>@@QEBAHAEBV?$basic_string@DU?$char_traits@D@std@@V?$allocator@D@2@@std@@@Z@4HA 000000018003eba0 f   PngImgAdapter.obj
 0001:0003dbb0       ?dtor$0@?0??SetSize@PngImgAdapter@@CAXAEBV?$FunctionCallbackInfo@VValue@v8@@@Nan@@@Z@4HA 000000018003ebb0 f   PngImgAdapter.obj
 0001:0003dbc0       ?dtor$1@?0??SetSize@PngImgAdapter@@CAXAEBV?$FunctionCallbackInfo@VValue@v8@@@Nan@@@Z@4HA 000000018003ebc0 f   PngImgAdapter.obj
 0001:0003dbd0       ?dtor$0@?0??Write@PngImgAdapter@@CAXAEBV?$FunctionCallbackInfo@VValue@v8@@@Nan@@@Z@4HA 000000018003ebd0 f   PngImgAdapter.obj
 0001:0003dbf0       ?dtor$1@?0??Write@PngImgAdapter@@CAXAEBV?$FunctionCallbackInfo@VValue@v8@@@Nan@@@Z@4HA 000000018003ebf0 f   PngImgAdapter.obj
 0001:0003dc10       ?dtor$2@?0??Write@PngImgAdapter@@CAXAEBV?$FunctionCallbackInfo@VValue@v8@@@Nan@@@Z@4HA 000000018003ec10 f   PngImgAdapter.obj
 0001:0003dc40       ?dtor$0@?0???0PngStruct@@IEAA@V?$function@$$A6APEAUpng_struct_def@@PEBDPEAXP6AXPEAU1@0@Z3@Z@std@@V?$function@$$A6AXPEAPEAUpng_struct_def@@PEAPEAUpng_info_def@@@Z@2@@Z@4HA 000000018003ec40 f   PngImg.obj
 0001:0003dc50       ?dtor$1@?0???0PngStruct@@IEAA@V?$function@$$A6APEAUpng_struct_def@@PEBDPEAXP6AXPEAU1@0@Z3@Z@std@@V?$function@$$A6AXPEAPEAUpng_struct_def@@PEAPEAUpng_info_def@@@Z@2@@Z@4HA 000000018003ec50 f   PngImg.obj
 0001:0003dc60       ?dtor$2@?0???0PngStruct@@IEAA@V?$function@$$A6APEAUpng_struct_def@@PEBDPEAXP6AXPEAU1@0@Z3@Z@std@@V?$function@$$A6AXPEAPEAUpng_struct_def@@PEAPEAUpng_info_def@@@Z@2@@Z@4HA 000000018003ec60 f   PngImg.obj
 0001:0003dc70       ?dtor$0@?0???0PngImg@@QEAA@PEBD_K@Z@4HA 000000018003ec70 f   PngImg.obj
 0001:0003dc80       ?dtor$1@?0???0PngImg@@QEAA@PEBD_K@Z@4HA 000000018003ec80 f   PngImg.obj
 0001:0003dc90       ?dtor$2@?0???0PngImg@@QEAA@PEBD_K@Z@4HA 000000018003ec90 f   PngImg.obj
 0001:0003dca0       ?dtor$4@?0???0PngImg@@QEAA@PEBD_K@Z@4HA 000000018003eca0 f   PngImg.obj
 0001:0003dca0       ?dtor$0@?0??Rotate_@PngImg@@AEAAXV?$function@$$A6A?AUPoint@@AEBU1@AEBUImgInfo@@@Z@std@@@Z@4HA 000000018003eca0 f   PngImg.obj
 0001:0003dcb0       ?dtor$5@?0???0PngImg@@QEAA@PEBD_K@Z@4HA 000000018003ecb0 f   PngImg.obj
 0001:0003dcc0       ?dtor$6@?0???0PngImg@@QEAA@PEBD_K@Z@4HA 000000018003ecc0 f   PngImg.obj
 0001:0003dcd0       ?dtor$1@?0??Rotate_@PngImg@@AEAAXV?$function@$$A6A?AUPoint@@AEBU1@AEBUImgInfo@@@Z@std@@@Z@4HA 000000018003ecd0 f   PngImg.obj
 0001:0003dce0       ?dtor$2@?0??Rotate_@PngImg@@AEAAXV?$function@$$A6A?AUPoint@@AEBU1@AEBUImgInfo@@@Z@std@@@Z@4HA 000000018003ece0 f   PngImg.obj
 0001:0003dcf0       ?dtor$0@?0??Write@PngImg@@QEAA_NAEBV?$basic_string@DU?$char_traits@D@std@@V?$allocator@D@2@@std@@@Z@4HA 000000018003ecf0 f   PngImg.obj
 0001:0003dd00       ?dtor$1@?0??Write@PngImg@@QEAA_NAEBV?$basic_string@DU?$char_traits@D@std@@V?$allocator@D@2@@std@@@Z@4HA 000000018003ed00 f   PngImg.obj
 0001:0003dd10       ?dtor$2@?0??Write@PngImg@@QEAA_NAEBV?$basic_string@DU?$char_traits@D@std@@V?$allocator@D@2@@std@@@Z@4HA 000000018003ed10 f   PngImg.obj
 0001:0003dd20       ?dtor$3@?0??Write@PngImg@@QEAA_NAEBV?$basic_string@DU?$char_traits@D@std@@V?$allocator@D@2@@std@@@Z@4HA 000000018003ed20 f   PngImg.obj
 0001:0003dd30       ?dtor$4@?0??Write@PngImg@@QEAA_NAEBV?$basic_string@DU?$char_traits@D@std@@V?$allocator@D@2@@std@@@Z@4HA 000000018003ed30 f   PngImg.obj
 0001:0003dd3c       __scrt_is_nonwritable_in_current_image$filt$0 000000018003ed3c f   LIBCMT:utility.obj
 0001:0003dd54       ?fin$0@?0??dllmain_crt_process_attach@@YAHQEAUHINSTANCE__@@QEAX@Z@4HA 000000018003ed54 f   LIBCMT:dll_dllmain.obj
 0001:0003dd6b       ?fin$0@?0??dllmain_crt_process_detach@@YAH_N@Z@4HA 000000018003ed6b f   LIBCMT:dll_dllmain.obj
 0001:0003dd87       ?filt$0@?0??dllmain_dispatch@@YAHQEAUHINSTANCE__@@KQEAX@Z@4HA 000000018003ed87 f   LIBCMT:dll_dllmain.obj
 0001:0003ddbd       ?filt$0@?0???$_CallSETranslator@V__FrameHandler3@@@@YAHPEAUEHExceptionRecord@@PEA_KPEAU_CONTEXT@@PEAU_xDISPATCHER_CONTEXT@@PEBU_s_FuncInfo@@K1@Z@4HA 000000018003edbd f   libvcruntime:risctrnsctrl.obj
 0001:0003de4e       __DestructExceptionObject$filt$0 000000018003ee4e f   libvcruntime:ehhelpers.obj
 0001:0003de66       ?filt$0@?0??CxxCallCatchBlock@__FrameHandler3@@SAPEAXPEAU_EXCEPTION_RECORD@@@Z@4HA 000000018003ee66 f   libvcruntime:frame.obj
 0001:0003de8b       ?fin$1@?0??CxxCallCatchBlock@__FrameHandler3@@SAPEAXPEAU_EXCEPTION_RECORD@@@Z@4HA 000000018003ee8b f   libvcruntime:frame.obj
 0001:0003df03       ?filt$0@?0??FrameUnwindToState@__FrameHandler3@@SAXPEA_KPEAU_xDISPATCHER_CONTEXT@@PEBU_s_FuncInfo@@H@Z@4HA 000000018003ef03 f   libvcruntime:frame.obj
 0001:0003df19       ?fin$1@?0??FrameUnwindToState@__FrameHandler3@@SAXPEA_KPEAU_xDISPATCHER_CONTEXT@@PEBU_s_FuncInfo@@H@Z@4HA 000000018003ef19 f   libvcruntime:frame.obj
 0001:0003df3c       ?fin$0@?0???$common_fsopen@D@@YAPEAU_iobuf@@QEBD0H@Z@4HA 000000018003ef3c f   libucrt:fopen.obj
 0001:0003df67       fclose$fin$0               000000018003ef67 f   libucrt:fclose.obj
 0001:0003df7f       ?fin$0@?0???$?RV<lambda_c376a267cfb53b6959b3b692ec76b120>@@AEAV<lambda_9a32fed5bf61b6b509b2d3f6003082a1>@@V<lambda_572fbb9fa0ab338edf41edfd4b5fcc8d>@@@?$__crt_seh_guarded_call@H@@QEAAH$$QEAV<lambda_c376a267cfb53b6959b3b692ec76b120>@@AEAV<lambda_9a32fed5bf61b6b509b2d3f6003082a1>@@$$QEAV<lambda_572fbb9fa0ab338edf41edfd4b5fcc8d>@@@Z@4HA 000000018003ef7f f   libucrt:fflush.obj
 0001:0003df7f       ?fin$0@?0???$?RV<lambda_842d9ff0dc9ef11c61343bbaebe7f885>@@AEAV<lambda_c5860995281e5c4ce005b3de8f5874ee>@@V<lambda_d90129c13df834fdcbf8d2b88dafcf2d>@@@?$__crt_seh_guarded_call@X@@QEAAX$$QEAV<lambda_842d9ff0dc9ef11c61343bbaebe7f885>@@AEAV<lambda_c5860995281e5c4ce005b3de8f5874ee>@@$$QEAV<lambda_d90129c13df834fdcbf8d2b88dafcf2d>@@@Z@4HA 000000018003ef7f f   libucrt:fflush.obj
 0001:0003df7f       ?fin$0@?0???$?RV<lambda_0d412022a4b28cc8a401ea49574e8ae6>@@AEAV<lambda_a775ed57af18ba8e4d5dc780aa9068fe>@@V<lambda_975a71a6baa488a08f4e15f6b0339b9e>@@@?$__crt_seh_guarded_call@H@@QEAAH$$QEAV<lambda_0d412022a4b28cc8a401ea49574e8ae6>@@AEAV<lambda_a775ed57af18ba8e4d5dc780aa9068fe>@@$$QEAV<lambda_975a71a6baa488a08f4e15f6b0339b9e>@@@Z@4HA 000000018003ef7f f   libucrt:output.obj
 0001:0003df7f       ?fin$0@?0???$?RV<lambda_a62c933ada0517137acf5807a1eeac1f>@@AEAV<lambda_a31071773b9a94e445cbd5d04ef99106>@@V<lambda_56065050dbf3ada7e59a83db45153de3>@@@?$__crt_seh_guarded_call@H@@QEAAH$$QEAV<lambda_a62c933ada0517137acf5807a1eeac1f>@@AEAV<lambda_a31071773b9a94e445cbd5d04ef99106>@@$$QEAV<lambda_56065050dbf3ada7e59a83db45153de3>@@@Z@4HA 000000018003ef7f f   libucrt:output.obj
 0001:0003df7f       ?fin$0@?0???$?RV<lambda_84ec643ea9557e2f7dc01bb0e9624395>@@AEAV<lambda_ca71763b3c0644891230e4f79ea54fa6>@@V<lambda_439a761618c59b0600e24586724d733b>@@@?$__crt_seh_guarded_call@H@@QEAAH$$QEAV<lambda_84ec643ea9557e2f7dc01bb0e9624395>@@AEAV<lambda_ca71763b3c0644891230e4f79ea54fa6>@@$$QEAV<lambda_439a761618c59b0600e24586724d733b>@@@Z@4HA 000000018003ef7f f   libucrt:setvbuf.obj
 0001:0003df7f       ?fin$0@?0???$?RV<lambda_bdbcead8b570fa3d5ec6d9679862a6e5>@@AEAV<lambda_96f4279ff90247a4c5c5d9824f56f8c1>@@V<lambda_4606be27f17b5e5579e09050fab91818>@@@?$__crt_seh_guarded_call@_K@@QEAA_K$$QEAV<lambda_bdbcead8b570fa3d5ec6d9679862a6e5>@@AEAV<lambda_96f4279ff90247a4c5c5d9824f56f8c1>@@$$QEAV<lambda_4606be27f17b5e5579e09050fab91818>@@@Z@4HA 000000018003ef7f f   libucrt:fwrite.obj
 0001:0003df9a       ?fin$0@?0???$?RV<lambda_886d6c58226a84441f68b9f2b8217b83>@@AEAV<lambda_ab61a845afdef5b7c387490eaf3616ee>@@V<lambda_f7f22ab5edc0698d5f6905b0d3f44752>@@@?$__crt_seh_guarded_call@X@@QEAAX$$QEAV<lambda_886d6c58226a84441f68b9f2b8217b83>@@AEAV<lambda_ab61a845afdef5b7c387490eaf3616ee>@@$$QEAV<lambda_f7f22ab5edc0698d5f6905b0d3f44752>@@@Z@4HA 000000018003ef9a f   libucrt:fflush.obj
 0001:0003dfb7       fread_s$fin$0              000000018003efb7 f   libucrt:fread.obj
 0001:0003dfcf       _query_new_handler$fin$0   000000018003efcf f   libucrt:new_handler.obj
 0001:0003dfe5       ?fin$0@?0???$?RV<lambda_efdfa57d1f175319df784efa44bb7b81>@@AEAV<lambda_5f0a4c1567f8adc6734073e5d1e1b35c>@@V<lambda_2e8a7d3640ea6ccb4c2413664c2db6fd>@@@?$__crt_seh_guarded_call@X@@QEAAX$$QEAV<lambda_efdfa57d1f175319df784efa44bb7b81>@@AEAV<lambda_5f0a4c1567f8adc6734073e5d1e1b35c>@@$$QEAV<lambda_2e8a7d3640ea6ccb4c2413664c2db6fd>@@@Z@4HA 000000018003efe5 f   libucrt:mbctype.obj
 0001:0003dfe5       ?fin$0@?0???$?RV<lambda_7777bce6b2f8c936911f934f8298dc43>@@AEAV<lambda_f03950bc5685219e0bcd2087efbe011e>@@V<lambda_3883c3dff614d5e0c5f61bb1ac94921c>@@@?$__crt_seh_guarded_call@H@@QEAAH$$QEAV<lambda_7777bce6b2f8c936911f934f8298dc43>@@AEAV<lambda_f03950bc5685219e0bcd2087efbe011e>@@$$QEAV<lambda_3883c3dff614d5e0c5f61bb1ac94921c>@@@Z@4HA 000000018003efe5 f   libucrt:onexit.obj
 0001:0003dfe5       ?fin$0@?0???$?RV<lambda_aa87e3671a710a21b5dc78c0bdf72e11>@@AEAV<lambda_92619d2358a28f41a33ba319515a20b9>@@V<lambda_6992ecaafeb10aed2b74cb1fae11a551>@@@?$__crt_seh_guarded_call@X@@QEAAX$$QEAV<lambda_aa87e3671a710a21b5dc78c0bdf72e11>@@AEAV<lambda_92619d2358a28f41a33ba319515a20b9>@@$$QEAV<lambda_6992ecaafeb10aed2b74cb1fae11a551>@@@Z@4HA 000000018003efe5 f   libucrt:per_thread_data.obj
 0001:0003dfe5       ?fin$0@?0???$?RV<lambda_d80eeec6fff315bfe5c115232f3240e3>@@AEAV<lambda_6e4b09c48022b2350581041d5f6b0c4c>@@V<lambda_2358e3775559c9db80273638284d5e45>@@@?$__crt_seh_guarded_call@X@@QEAAX$$QEAV<lambda_d80eeec6fff315bfe5c115232f3240e3>@@AEAV<lambda_6e4b09c48022b2350581041d5f6b0c4c>@@$$QEAV<lambda_2358e3775559c9db80273638284d5e45>@@@Z@4HA 000000018003efe5 f   libucrt:exit.obj
 0001:0003dfe5       ?fin$0@?0???$?RV<lambda_2d41944a1d46af3157314b8a01080d33>@@AEAV<lambda_8f455de75cd7d7f24b4096f044d8b9e6>@@V<lambda_aa500f224e6afead328df44964fe2772>@@@?$__crt_seh_guarded_call@X@@QEAAX$$QEAV<lambda_2d41944a1d46af3157314b8a01080d33>@@AEAV<lambda_8f455de75cd7d7f24b4096f044d8b9e6>@@$$QEAV<lambda_aa500f224e6afead328df44964fe2772>@@@Z@4HA 000000018003efe5 f   libucrt:per_thread_data.obj
 0001:0003dfe5       ?fin$0@?0???$?RV<lambda_f2e299630e499de9f9a165e60fcd3db5>@@AEAV<lambda_2ae9d31cdba2644fcbeaf08da7c24588>@@V<lambda_40d01ff24d0e7b3814fdbdcee8eab3c7>@@@?$__crt_seh_guarded_call@X@@QEAAX$$QEAV<lambda_f2e299630e499de9f9a165e60fcd3db5>@@AEAV<lambda_2ae9d31cdba2644fcbeaf08da7c24588>@@$$QEAV<lambda_40d01ff24d0e7b3814fdbdcee8eab3c7>@@@Z@4HA 000000018003efe5 f   libucrt:per_thread_data.obj
 0001:0003dfe5       ?fin$0@?0???$?RV<lambda_8369fcb7c4df1e85de37618bd2b85f07>@@AEAV<lambda_a10e4b102d4a2c3aac6f4f48bbdf488f>@@V<lambda_5b7707bd6d7a0c4713179f36c7fd995d>@@@?$__crt_seh_guarded_call@H@@QEAAH$$QEAV<lambda_8369fcb7c4df1e85de37618bd2b85f07>@@AEAV<lambda_a10e4b102d4a2c3aac6f4f48bbdf488f>@@$$QEAV<lambda_5b7707bd6d7a0c4713179f36c7fd995d>@@@Z@4HA 000000018003efe5 f   libucrt:onexit.obj
 0001:0003dfe5       ?fin$0@?0???$?RV<lambda_450d765d439847d4c735a33c368b5fc0>@@AEAV<lambda_44731a7d0e6d81c3e6aa82d741081786>@@V<lambda_601a2a7da3b7a96e9554ac7215c4b07c>@@@?$__crt_seh_guarded_call@P6AXH@Z@@QEAAP6AXH@Z$$QEAV<lambda_450d765d439847d4c735a33c368b5fc0>@@AEAV<lambda_44731a7d0e6d81c3e6aa82d741081786>@@$$QEAV<lambda_601a2a7da3b7a96e9554ac7215c4b07c>@@@Z@4HA 000000018003efe5 f   libucrt:signal.obj
 0001:0003dfe5       ?fin$0@?0???$?RV<lambda_0ae27a3a962d80f24befdcbee591983d>@@AEAV<lambda_8d0ee55de4b1038c4002e0adecdf1839>@@V<lambda_dc504788e8f1664fe9b84e20bfb512f2>@@@?$__crt_seh_guarded_call@X@@QEAAX$$QEAV<lambda_0ae27a3a962d80f24befdcbee591983d>@@AEAV<lambda_8d0ee55de4b1038c4002e0adecdf1839>@@$$QEAV<lambda_dc504788e8f1664fe9b84e20bfb512f2>@@@Z@4HA 000000018003efe5 f   libucrt:per_thread_data.obj
 0001:0003dfff       ?filt$0@?0???R<lambda_6e4b09c48022b2350581041d5f6b0c4c>@@QEBA@XZ@4HA 000000018003efff f   libucrt:exit.obj
 0001:0003e01a       ?fin$0@?0???$?RV<lambda_410d79af7f07d98d83a3f525b3859a53>@@AEAV<lambda_3e16ef9562a7dcce91392c22ab16ea36>@@V<lambda_38119f0e861e05405d8a144b9b982f0a>@@@?$__crt_seh_guarded_call@X@@QEAAX$$QEAV<lambda_410d79af7f07d98d83a3f525b3859a53>@@AEAV<lambda_3e16ef9562a7dcce91392c22ab16ea36>@@$$QEAV<lambda_38119f0e861e05405d8a144b9b982f0a>@@@Z@4HA 000000018003f01a f   libucrt:wsetlocale.obj
 0001:0003e034       raise$fin$0                000000018003f034 f   libucrt:signal.obj
 0001:0003e055       _fcloseall$fin$0           000000018003f055 f   libucrt:closeall.obj
 0001:0003e055       ?fin$0@?0??__acrt_stdio_allocate_stream@@YA?AV__crt_stdio_stream@@XZ@4HA 000000018003f055 f   libucrt:stream.obj
 0001:0003e06e       ?fin$0@?0???$?RV<lambda_a37b2b86f63e897a80ea819b0eb08c01>@@AEAV<lambda_38ce7e780aa69e748d6df282ebc68efe>@@V<lambda_99fb1378e971ab6e7edea83e3a7a83a2>@@@?$__crt_seh_guarded_call@H@@QEAAH$$QEAV<lambda_a37b2b86f63e897a80ea819b0eb08c01>@@AEAV<lambda_38ce7e780aa69e748d6df282ebc68efe>@@$$QEAV<lambda_99fb1378e971ab6e7edea83e3a7a83a2>@@@Z@4HA 000000018003f06e f   libucrt:commit.obj
 0001:0003e06e       ?fin$0@?0???$?RV<lambda_751a882b2c74d4b022dec766aa51a29a>@@AEAV<lambda_628dfdc04ba53c8bfc02c9951375f3f5>@@V<lambda_f6c7be5f7998530c34de24c7437d6b54>@@@?$__crt_seh_guarded_call@H@@QEAAH$$QEAV<lambda_751a882b2c74d4b022dec766aa51a29a>@@AEAV<lambda_628dfdc04ba53c8bfc02c9951375f3f5>@@$$QEAV<lambda_f6c7be5f7998530c34de24c7437d6b54>@@@Z@4HA 000000018003f06e f   libucrt:close.obj
 0001:0003e088       _ctrlfp$filt$0             000000018003f088 f   libucrt:fpctrl.obj
 0001:0003e0b4       _write$fin$0               000000018003f0b4 f   libucrt:write.obj
 0001:0003e0b4       ?fin$0@?0???$common_lseek@_J@@YA_JH_JH@Z@4HA 000000018003f0b4 f   libucrt:lseek.obj
 0001:0003e0cb       __acrt_lowio_ensure_fh_exists$fin$0 000000018003f0cb f   libucrt:osfinfo.obj
 0001:0003e0cb       __acrt_initialize_lowio$fin$0 000000018003f0cb f   libucrt:ioinit.obj
 0001:0003e0cb       _alloc_osfhnd$fin$0        000000018003f0cb f   libucrt:osfinfo.obj
 0001:0003e0e4       _read$fin$0                000000018003f0e4 f   libucrt:read.obj
 0001:0003e0fb       ?fin$0@?0??update_thread_multibyte_data_internal@@YAPEAU__crt_multibyte_data@@QEAU__acrt_ptd@@QEAPEAU1@@Z@4HA 000000018003f0fb f   libucrt:mbctype.obj
 0001:0003e114       __acrt_update_thread_locale_data$fin$0 000000018003f114 f   libucrt:locale_refcounting.obj
 0001:0003e12d       ?fin$0@?0???$common_sopen_dispatch@D@@YAHQEBDHHHQEAHH@Z@4HA 000000018003f12d f   libucrt:open.obj
 0001:0003e180       ?dtor$0@?0??_wcstombs_l_helper@@YA_KPEADPEB_W_KPEAU__crt_locale_pointers@@@Z@4HA 000000018003f180 f   libucrt:wcstombs.obj
 0001:0003e190       _IsNonwritableInCurrentImage$filt$0 000000018003f190 f   LIBCMT:pesect.obj
 0001:0003e1b0       ??__FpngImgAdapterConstructor@@YAXXZ 000000018003f1b0 f   PngImgAdapter.obj
 0002:00000288       ?pngImgAdapterConstructor$initializer$@@3P6AXXZEA 0000000180040288     PngImgAdapter.obj
 0002:00000410       GS_ExceptionPointers       0000000180040410     LIBCMT:gs_report.obj
 0002:00000450       ?ExceptionTemplate@?1??UnwindNestedFrames@__FrameHandler3@@SAXPEA_KPEAUEHExceptionRecord@@PEAU_CONTEXT@@0PEAXPEBU_s_FuncInfo@@HHPEBU_s_HandlerType@@PEAU_xDISPATCHER_CONTEXT@@E@Z@4U_EXCEPTION_RECORD@@B 0000000180040450     libvcruntime:risctrnsctrl.obj
 0002:000004f0       ?ExceptionTemplate@?1??_CxxThrowException@@9@4UEHExceptionRecord@@B 00000001800404f0     libvcruntime:throw.obj
 0002:00000558       ?module_names@?A0x2eb21ddb@@3QBQEB_WB 0000000180040558     libvcruntime:winapi_downlevel.obj
 0002:00000628       ?candidate_modules@?1??try_get_FlsAlloc@@YAP6AKP6AXPEAX@Z@ZXZ@4QBW4module_id@?A0x2eb21ddb@@B 0000000180040628     libvcruntime:winapi_downlevel.obj
 0002:00000640       ?candidate_modules@?1??try_get_FlsFree@@YAP6AHK@ZXZ@4QBW4module_id@?A0x2eb21ddb@@B 0000000180040640     libvcruntime:winapi_downlevel.obj
 0002:00000650       ?candidate_modules@?1??try_get_FlsGetValue@@YAP6APEAXK@ZXZ@4QBW4module_id@?A0x2eb21ddb@@B 0000000180040650     libvcruntime:winapi_downlevel.obj
 0002:00000668       ?candidate_modules@?1??try_get_FlsSetValue@@YAP6AHKPEAX@ZXZ@4QBW4module_id@?A0x2eb21ddb@@B 0000000180040668     libvcruntime:winapi_downlevel.obj
 0002:00000680       ?candidate_modules@?1??try_get_InitializeCriticalSectionEx@@YAP6AHPEAU_RTL_CRITICAL_SECTION@@KK@ZXZ@4QBW4module_id@?A0x2eb21ddb@@B 0000000180040680     libvcruntime:winapi_downlevel.obj
 0002:000006b0       ?tokenTable@@3QBQEBDB      00000001800406b0     libvcruntime:undname.obj
 0002:00000730       ?nameTable@@3QBQEBDB       0000000180040730     libvcruntime:undname.obj
 0002:000009c0       ?rttiTable@@3QBQEBDB       00000001800409c0     libvcruntime:undname.obj
 0002:00001080       ?errtable@@3QBUerrentry@?A0x31fdb9ec@@B 0000000180041080     libucrt:errno.obj
 0002:00002010       __acrt_initializers        0000000180042010     libucrt:initialization.obj
 0002:00002fd0       ?module_names@?A0x391cf84c@@3QBQEB_WB 0000000180042fd0     libucrt:winapi_thunks.obj
 0002:00003578       ?candidate_modules@?1??try_get_AreFileApisANSI@@YAP6AHXZXZ@4QBW4module_id@?A0x391cf84c@@B 0000000180043578     libucrt:winapi_thunks.obj
 0002:00003590       ?candidate_modules@?1??try_get_FlsAlloc@@YAP6AKP6AXPEAX@Z@ZXZ@4QBW4module_id@?A0x391cf84c@@B 0000000180043590     libucrt:winapi_thunks.obj
 0002:000035a8       ?candidate_modules@?1??try_get_FlsFree@@YAP6AHK@ZXZ@4QBW4module_id@?A0x391cf84c@@B 00000001800435a8     libucrt:winapi_thunks.obj
 0002:000035b8       ?candidate_modules@?1??try_get_FlsGetValue@@YAP6APEAXK@ZXZ@4QBW4module_id@?A0x391cf84c@@B 00000001800435b8     libucrt:winapi_thunks.obj
 0002:000035d0       ?candidate_modules@?1??try_get_FlsSetValue@@YAP6AHKPEAX@ZXZ@4QBW4module_id@?A0x391cf84c@@B 00000001800435d0     libucrt:winapi_thunks.obj
 0002:000035e8       ?candidate_modules@?1??try_get_GetActiveWindow@@YAP6APEAUHWND__@@XZXZ@4QBW4module_id@?A0x391cf84c@@B 00000001800435e8     libucrt:winapi_thunks.obj
 0002:00003600       ?candidate_modules@?1??try_get_GetLastActivePopup@@YAP6APEAUHWND__@@PEAU2@@ZXZ@4QBW4module_id@?A0x391cf84c@@B 0000000180043600     libucrt:winapi_thunks.obj
 0002:00003620       ?candidate_modules@?1??try_get_GetProcessWindowStation@@YAP6APEAUHWINSTA__@@XZXZ@4QBW4module_id@?A0x391cf84c@@B 0000000180043620     libucrt:winapi_thunks.obj
 0002:00003640       ?candidate_modules@?1??try_get_GetUserObjectInformationW@@YAP6AHPEAXH0KPEAK@ZXZ@4QBW4module_id@?A0x391cf84c@@B 0000000180043640     libucrt:winapi_thunks.obj
 0002:00003668       ?candidate_modules@?1??try_get_InitializeCriticalSectionEx@@YAP6AHPEAU_RTL_CRITICAL_SECTION@@KK@ZXZ@4QBW4module_id@?A0x391cf84c@@B 0000000180043668     libucrt:winapi_thunks.obj
 0002:00003690       ?candidate_modules@?1??try_get_LCMapStringEx@@YAP6AHPEB_WK0HPEA_WHPEAU_nlsversioninfo@@PEAX_J@ZXZ@4QBW4module_id@?A0x391cf84c@@B 0000000180043690     libucrt:winapi_thunks.obj
 0002:000036a8       ?candidate_modules@?1??try_get_LocaleNameToLCID@@YAP6AKPEB_WK@ZXZ@4QBW4module_id@?A0x391cf84c@@B 00000001800436a8     libucrt:winapi_thunks.obj
 0002:000036c8       ?candidate_modules@?1??try_get_MessageBoxA@@YAP6AHPEAUHWND__@@PEBD1I@ZXZ@4QBW4module_id@?A0x391cf84c@@B 00000001800436c8     libucrt:winapi_thunks.obj
 0002:000036e0       ?candidate_modules@?1??try_get_MessageBoxW@@YAP6AHPEAUHWND__@@PEB_W1I@ZXZ@4QBW4module_id@?A0x391cf84c@@B 00000001800436e0     libucrt:winapi_thunks.obj
 0002:000036f4       ?candidate_modules@?1??try_get_AppPolicyGetProcessTerminationMethod@@YAP6AJPEAXPEAW4AppPolicyProcessTerminationMethod@@@ZXZ@4QBW4module_id@?A0x391cf84c@@B 00000001800436f4     libucrt:winapi_thunks.obj
 0002:00003720       ?candidate_modules@?1??try_get_AppPolicyGetShowDeveloperDiagnostic@@YAP6AJPEAXPEAW4AppPolicyShowDeveloperDiagnostic@@@ZXZ@4QBW4module_id@?A0x391cf84c@@B 0000000180043720     libucrt:winapi_thunks.obj
 0002:0000374c       ?candidate_modules@?1??try_get_AppPolicyGetWindowingModel@@YAP6AJPEAXPEAW4AppPolicyWindowingModel@@@ZXZ@4QBW4module_id@?A0x391cf84c@@B 000000018004374c     libucrt:winapi_thunks.obj
 0002:000037c8       ?_mb_locale_names@@3QBQEB_WB 00000001800437c8     libucrt:mbctype.obj
 0002:00003830       __real@433fffffffffffff    0000000180043830     libucrt:fpsr.obj
 0002:00003838       __real@c33fffffffffffff    0000000180043838     libucrt:fpsr.obj
 0002:00003840       ?LcidToLocaleNameTable@?A0x881e4c05@@3QBULcidToLocaleName@1@B 0000000180043840     libucrt:lcidtoname_downlevel.obj
 0002:000052a0       ?LocaleNameToIndexTable@?A0x881e4c05@@3QBULocaleNameIndex@1@B 00000001800452a0     libucrt:lcidtoname_downlevel.obj
 0002:00006b70       __real_ninf                0000000180046b70     libucrt:log10.obj
 0002:00006b80       __real_inf                 0000000180046b80     libucrt:log10.obj
 0002:00006b90       __real_neg_qnan            0000000180046b90     libucrt:log10.obj
 0002:00006ba0       __real_qnanbit             0000000180046ba0     libucrt:log10.obj
 0002:00006bb0       __int_1023                 0000000180046bb0     libucrt:log10.obj
 0002:00006bc0       __mask_001                 0000000180046bc0     libucrt:log10.obj
 0002:00006bd0       __mask_mant                0000000180046bd0     libucrt:log10.obj
 0002:00006be0       __mask_mant_top8           0000000180046be0     libucrt:log10.obj
 0002:00006bf0       __mask_mant9               0000000180046bf0     libucrt:log10.obj
 0002:00006c00       __real_log10_e             0000000180046c00     libucrt:log10.obj
 0002:00006c10       __real_log10_e_lead        0000000180046c10     libucrt:log10.obj
 0002:00006c20       __real_log10_e_tail        0000000180046c20     libucrt:log10.obj
 0002:00006c30       __real_log10_2_lead        0000000180046c30     libucrt:log10.obj
 0002:00006c40       __real_log10_2_tail        0000000180046c40     libucrt:log10.obj
 0002:00006c50       __real_two                 0000000180046c50     libucrt:log10.obj
 0002:00006c60       __real_one                 0000000180046c60     libucrt:log10.obj
 0002:00006c70       __real_half                0000000180046c70     libucrt:log10.obj
 0002:00006c80       __mask_100                 0000000180046c80     libucrt:log10.obj
 0002:00006c90       __real_1_over_512          0000000180046c90     libucrt:log10.obj
 0002:00006ca0       __real_1_over_2            0000000180046ca0     libucrt:log10.obj
 0002:00006cb0       __real_1_over_3            0000000180046cb0     libucrt:log10.obj
 0002:00006cc0       __real_1_over_4            0000000180046cc0     libucrt:log10.obj
 0002:00006cd0       __real_1_over_5            0000000180046cd0     libucrt:log10.obj
 0002:00006ce0       __real_1_over_6            0000000180046ce0     libucrt:log10.obj
 0002:00006cf0       __real_neg_1023            0000000180046cf0     libucrt:log10.obj
 0002:00006d00       __mask_2045                0000000180046d00     libucrt:log10.obj
 0002:00006d10       __real_threshold           0000000180046d10     libucrt:log10.obj
 0002:00006d20       __real_near_one_lt         0000000180046d20     libucrt:log10.obj
 0002:00006d30       __real_near_one_gt         0000000180046d30     libucrt:log10.obj
 0002:00006d40       __real_min_norm            0000000180046d40     libucrt:log10.obj
 0002:00006d50       __real_notsign             0000000180046d50     libucrt:log10.obj
 0002:00006d60       __real_ca1                 0000000180046d60     libucrt:log10.obj
 0002:00006d70       __real_ca2                 0000000180046d70     libucrt:log10.obj
 0002:00006d80       __real_ca3                 0000000180046d80     libucrt:log10.obj
 0002:00006d90       __real_ca4                 0000000180046d90     libucrt:log10.obj
 0002:00006da0       __mask_lower               0000000180046da0     libucrt:log10.obj
 0002:00006db0       __flag_x_zero              0000000180046db0     libucrt:log10.obj
 0002:00006db4       __flag_x_neg               0000000180046db4     libucrt:log10.obj
 0002:00006db8       __flag_x_nan               0000000180046db8     libucrt:log10.obj
 0002:00006dc0       $cppxdata$?_wcstombs_l_helper@@YA_KPEADPEB_W_KPEAU__crt_locale_pointers@@@Z 0000000180046dc0     libucrt:wcstombs.obj
 0002:00008cd8       ??_7?$_Func_impl_no_alloc@V<lambda_b49605ea95fa7d5d6d7c78acb7625195>@@UPoint@@AEBU2@AEBUImgInfo@@@std@@6B@ 0000000180048cd8     PngImg.obj
 0002:00008d68       ??_7?$_Func_impl_no_alloc@V<lambda_2c6c8b47390943ff5f68d13b30202b25>@@UPoint@@AEBU2@AEBUImgInfo@@@std@@6B@ 0000000180048d68     PngImg.obj
 0002:00008dc8       ?sRGB_XYZ@?1??png_colorspace_set_sRGB@@9@9 0000000180048dc8     libpng:png.obj
 0002:000093f0       sRGB_xy                    00000001800493f0     libpng:png.obj
 0002:00009410       ?short_months@?1??png_convert_to_rfc1123_buffer@@9@9 0000000180049410     libpng:png.obj
 0002:00009640       png_sRGB_checks            0000000180049640     libpng:png.obj
 0002:00009720       D50_nCIEXYZ                0000000180049720     libpng:png.obj
 0002:00009730       ?valid_parameters@?3??png_formatted_warning@@9@9 0000000180049730     libpng:pngerror.obj
 0002:00009740       ?digits@?2??png_format_number@@9@9 0000000180049740     libpng:pngerror.obj
 0002:00009758       ?chunks_to_process@?2??png_image_skip_unused_chunks@@9@9 0000000180049758     libpng:pngread.obj
 0002:00009778       ?png_pass_inc@?1??png_write_finish_row@@9@9 0000000180049778     libpng:pngwutil.obj
 0002:00009780       png_digit                  0000000180049780     libpng:pngerror.obj
 0002:00009790       ?chunks_to_ignore@?4??png_set_keep_unknown_chunks@@9@9 0000000180049790     libpng:pngset.obj
 0002:000097e8       ?png_pass_inc@?1??png_do_write_interlace@@9@9 00000001800497e8     libpng:pngwutil.obj
 0002:000097f0       twobppswaptable            00000001800497f0     libpng:pngtrans.obj
 0002:000098f0       fourbppswaptable           00000001800498f0     libpng:pngtrans.obj
 0002:000099f0       onebppswaptable            00000001800499f0     libpng:pngtrans.obj
 0002:00009af0       ?png_pass_yinc@?1??png_write_start_row@@9@9 0000000180049af0     libpng:pngwutil.obj
 0002:00009af8       ?png_pass_start@?1??png_write_start_row@@9@9 0000000180049af8     libpng:pngwutil.obj
 0002:00009b00       ?png_pass_yinc@?1??png_write_finish_row@@9@9 0000000180049b00     libpng:pngwutil.obj
 0002:00009b08       ?png_pass_inc@?1??png_write_start_row@@9@9 0000000180049b08     libpng:pngwutil.obj
 0002:00009b10       ?png_pass_ystart@?1??png_write_start_row@@9@9 0000000180049b10     libpng:pngwutil.obj
 0002:00009b18       ?png_pass_start@?1??png_do_write_interlace@@9@9 0000000180049b18     libpng:pngwutil.obj
 0002:00009b20       ?png_pass_ystart@?1??png_write_finish_row@@9@9 0000000180049b20     libpng:pngwutil.obj
 0002:00009b28       ?png_pass_start@?1??png_write_finish_row@@9@9 0000000180049b28     libpng:pngwutil.obj
 0002:00009b30       ?row_mask@?4??png_combine_row@@9@9 0000000180049b30     libpng:pngrutil.obj
 0002:00009bc0       ?png_pass_ystart@?1??png_read_finish_row@@9@9 0000000180049bc0     libpng:pngrutil.obj
 0002:00009bc8       ?png_pass_yinc@?1??png_read_start_row@@9@9 0000000180049bc8     libpng:pngrutil.obj
 0002:00009bd0       ?display_mask@?4??png_combine_row@@9@9 0000000180049bd0     libpng:pngrutil.obj
 0002:00009c18       ?png_pass_inc@?1??png_read_finish_row@@9@9 0000000180049c18     libpng:pngrutil.obj
 0002:00009c20       ?png_pass_start@?1??png_read_start_row@@9@9 0000000180049c20     libpng:pngrutil.obj
 0002:00009c28       ?png_pass_start@?1??png_read_finish_row@@9@9 0000000180049c28     libpng:pngrutil.obj
 0002:00009c30       ?png_pass_ystart@?1??png_read_start_row@@9@9 0000000180049c30     libpng:pngrutil.obj
 0002:00009c38       ?png_pass_yinc@?1??png_read_finish_row@@9@9 0000000180049c38     libpng:pngrutil.obj
 0002:00009c40       ?png_pass_inc@?1??png_read_start_row@@9@9 0000000180049c40     libpng:pngrutil.obj
 0002:00009c48       ?png_pass_inc@?1??png_do_read_interlace@@9@9 0000000180049c48     libpng:pngrutil.obj
 0002:00009c64       ?my_version@?1??deflateInit2_@@9@9 0000000180049c64     zlib:deflate.obj
 0002:00009c70       ?lenfix@?1??fixedtables@@9@9 0000000180049c70     zlib:inflate.obj
 0002:0000a470       ?distfix@?1??fixedtables@@9@9 000000018004a470     zlib:inflate.obj
 0002:0000a4f0       ?order@?1??inflate@@9@9    000000018004a4f0     zlib:inflate.obj
 0002:0000a520       crc_table                  000000018004a520     zlib:crc32.obj
 0002:0000c520       configuration_table        000000018004c520     zlib:deflate.obj
 0002:0000c610       ?dext@?1??inflate_table@@9@9 000000018004c610     zlib:inftrees.obj
 0002:0000c650       ?lext@?1??inflate_table@@9@9 000000018004c650     zlib:inftrees.obj
 0002:0000c690       ?lbase@?1??inflate_table@@9@9 000000018004c690     zlib:inftrees.obj
 0002:0000c6d0       ?dbase@?1??inflate_table@@9@9 000000018004c6d0     zlib:inftrees.obj
 0002:0000ca10       static_dtree               000000018004ca10     zlib:trees.obj
 0002:0000ca90       extra_blbits               000000018004ca90     zlib:trees.obj
 0002:0000cae0       extra_lbits                000000018004cae0     zlib:trees.obj
 0002:0000cb60       base_dist                  000000018004cb60     zlib:trees.obj
 0002:0000cbe0       base_length                000000018004cbe0     zlib:trees.obj
 0002:0000cc60       extra_dbits                000000018004cc60     zlib:trees.obj
 0002:0000cce0       static_ltree               000000018004cce0     zlib:trees.obj
 0002:0000d160       bl_order                   000000018004d160     zlib:trees.obj
 0002:0000f378       $cppxdata$?InitAll@@YAXV?$Local@VObject@v8@@@v8@@@Z 000000018004f378     init.obj
 0002:0000f3a0       $cppxdata$?New@?$Factory@VFunctionTemplate@v8@@@imp@Nan@@SA?AV?$Local@VFunctionTemplate@v8@@@v8@@P6AXAEBV?$FunctionCallbackInfo@VValue@v8@@@3@@ZV?$Local@VValue@v8@@@5@V?$Local@VSignature@v8@@@5@@Z 000000018004f3a0     init.obj
 0002:0000f480       $cppxdata$?Write@PngImgAdapter@@CAXAEBV?$FunctionCallbackInfo@VValue@v8@@@Nan@@@Z 000000018004f480     PngImgAdapter.obj
 0002:0000f4a8       $cppxdata$?SetSize@PngImgAdapter@@CAXAEBV?$FunctionCallbackInfo@VValue@v8@@@Nan@@@Z 000000018004f4a8     PngImgAdapter.obj
 0002:0000f4d0       $cppxdata$?Crop@PngImgAdapter@@CAXAEBV?$FunctionCallbackInfo@VValue@v8@@@Nan@@@Z 000000018004f4d0     PngImgAdapter.obj
 0002:0000f4f8       $cppxdata$?Fill@PngImgAdapter@@CAXAEBV?$FunctionCallbackInfo@VValue@v8@@@Nan@@@Z 000000018004f4f8     PngImgAdapter.obj
 0002:0000f520       $cppxdata$??R<lambda_c6484637a8e92c945a958729cd5afacb>@@QEBAHAEBV?$basic_string@DU?$char_traits@D@std@@V?$allocator@D@2@@std@@@Z 000000018004f520     PngImgAdapter.obj
 0002:0000f548       $cppxdata$?RGBObjToPxl@@YA?AUPxl@@AEBV?$Local@VObject@v8@@@v8@@@Z 000000018004f548     PngImgAdapter.obj
 0002:0000f570       $cppxdata$?Get@PngImgAdapter@@CAXAEBV?$FunctionCallbackInfo@VValue@v8@@@Nan@@@Z 000000018004f570     PngImgAdapter.obj
 0002:0000f598       $cppxdata$?New@PngImgAdapter@@CAXAEBV?$FunctionCallbackInfo@VValue@v8@@@Nan@@@Z 000000018004f598     PngImgAdapter.obj
 0002:0000f5c0       $cppxdata$??__FpngImgAdapterConstructor@@YAXXZ 000000018004f5c0     PngImgAdapter.obj
 0002:0000f5e8       $cppxdata$?Execute@SaveWorker@@UEAAXXZ 000000018004f5e8     PngImgAdapter.obj
 0002:0000f610       $cppxdata$??0SaveWorker@@QEAA@PEAVCallback@Nan@@AEAVPngImg@@V?$basic_string@DU?$char_traits@D@std@@V?$allocator@D@2@@std@@AEBV?$Local@VObject@v8@@@v8@@@Z 000000018004f610     PngImgAdapter.obj
 0002:0000f638       $cppxdata$?SetAccessor@Nan@@YAXV?$Local@VObjectTemplate@v8@@@v8@@V?$Local@VString@v8@@@3@P6AX1AEBV?$PropertyCallbackInfo@VValue@v8@@@1@@ZP6AX1V?$Local@VValue@v8@@@3@AEBV?$PropertyCallbackInfo@X@1@@Z4W4AccessControl@3@W4PropertyAttribute@3@V?$Local@VAccessorSignature@v8@@@3@@Z 000000018004f638     PngImgAdapter.obj
 0002:0000f660       $cppxdata$?SetPrototypeMethod@Nan@@YAXV?$Local@VFunctionTemplate@v8@@@v8@@PEBDP6AXAEBV?$FunctionCallbackInfo@VValue@v8@@@1@@Z@Z 000000018004f660     PngImgAdapter.obj
 0002:0000f688       $cppxdata$?AsyncExecuteComplete@Nan@@YAXPEAUuv_work_s@@@Z 000000018004f688     PngImgAdapter.obj
 0002:0000f6b0       $cppxdata$?AsyncExecute@Nan@@YAXPEAUuv_work_s@@@Z 000000018004f6b0     PngImgAdapter.obj
 0002:0000f6d8       $cppxdata$??1?$Persistent@VObject@v8@@V?$NonCopyablePersistentTraits@VObject@v8@@@2@@Nan@@QEAA@XZ 000000018004f6d8     PngImgAdapter.obj
 0002:0000f700       $cppxdata$?HandleErrorCallback@AsyncWorker@Nan@@MEAAXXZ 000000018004f700     PngImgAdapter.obj
 0002:0000f728       $cppxdata$?HandleOKCallback@AsyncWorker@Nan@@MEAAXXZ 000000018004f728     PngImgAdapter.obj
 0002:0000f750       $cppxdata$?WorkComplete@AsyncWorker@Nan@@UEAAXXZ 000000018004f750     PngImgAdapter.obj
 0002:0000f778       $cppxdata$??1AsyncWorker@Nan@@UEAA@XZ 000000018004f778     PngImgAdapter.obj
 0002:0000f7a0       $cppxdata$?Call@Callback@Nan@@QEBA?AV?$MaybeLocal@VValue@v8@@@v8@@HQEAV?$Local@VValue@v8@@@4@PEAVAsyncResource@2@@Z 000000018004f7a0     PngImgAdapter.obj
 0002:0000f7c8       $cppxdata$??0Utf8String@Nan@@QEAA@V?$Local@VValue@v8@@@v8@@@Z 000000018004f7c8     PngImgAdapter.obj
 0002:0000f7f0       $cppxdata$?ThrowError@Nan@@YAXPEBD@Z 000000018004f7f0     PngImgAdapter.obj
 0002:0000f818       $cppxdata$??1ObjectWrap@node@@UEAA@XZ 000000018004f818     PngImgAdapter.obj
 0002:0000f840       $cppxdata$?NewInstance@PngImgAdapter@@SAXAEBV?$FunctionCallbackInfo@VValue@v8@@@Nan@@@Z 000000018004f840     PngImgAdapter.obj
 0002:0000f868       $cppxdata$?_Do_call@?$_Func_impl_no_alloc@V<lambda_b270b1f630724084d5f3bb877471ea65>@@XPEAPEAUpng_struct_def@@PEAPEAUpng_info_def@@@std@@EEAAX$$QEAPEAPEAUpng_struct_def@@$$QEAPEAPEAUpng_info_def@@@Z 000000018004f868     PngImg.obj
 0002:0000f890       $cppxdata$?_Do_call@?$_Func_impl_no_alloc@V<lambda_2a721ab91676828147c5c332544348da>@@XPEAPEAUpng_struct_def@@PEAPEAUpng_info_def@@@std@@EEAAX$$QEAPEAPEAUpng_struct_def@@$$QEAPEAPEAUpng_info_def@@@Z 000000018004f890     PngImg.obj
 0002:0000f8b8       $cppxdata$?_Do_call@?$_Func_impl_no_alloc@P6APEAUpng_struct_def@@PEBDPEAXP6AXPEAU1@0@Z3@ZPEAU1@PEBDPEAXP6AX20@ZP6AX20@Z@std@@EEAAPEAUpng_struct_def@@$$QEAPEBD$$QEAPEAX$$QEAP6AXPEAU3@PEBD@Z4@Z 000000018004f8b8     PngImg.obj
 0002:0000f8e0       $cppxdata$?Rotate_@PngImg@@AEAAXV?$function@$$A6A?AUPoint@@AEBU1@AEBUImgInfo@@@Z@std@@@Z 000000018004f8e0     PngImg.obj
 0002:0000f908       $cppxdata$??1PngStruct@@IEAA@XZ 000000018004f908     PngImg.obj
 0002:0000f930       $cppxdata$??0PngStruct@@IEAA@V?$function@$$A6APEAUpng_struct_def@@PEBDPEAXP6AXPEAU1@0@Z3@Z@std@@V?$function@$$A6AXPEAPEAUpng_struct_def@@PEAPEAUpng_info_def@@@Z@2@@Z 000000018004f930     PngImg.obj
 0002:0000f958       $cppxdata$?Write@PngImg@@QEAA_NAEBV?$basic_string@DU?$char_traits@D@std@@V?$allocator@D@2@@std@@@Z 000000018004f958     PngImg.obj
 0002:0000f980       $cppxdata$??0PngImg@@QEAA@PEBD_K@Z 000000018004f980     PngImg.obj
 0002:0000f9c0       __flag_x_one_y_snan        000000018004f9c0     libucrt:pow.obj
 0002:0000f9c4       __flag_x_zero_z_inf        000000018004f9c4     libucrt:pow.obj
 0002:0000f9c8       __flag_x_nan               000000018004f9c8     libucrt:pow.obj
 0002:0000f9cc       __flag_y_nan               000000018004f9cc     libucrt:pow.obj
 0002:0000f9d0       __flag_x_nan_y_nan         000000018004f9d0     libucrt:pow.obj
 0002:0000f9d4       __flag_x_neg_y_notint      000000018004f9d4     libucrt:pow.obj
 0002:0000f9d8       __flag_z_zero              000000018004f9d8     libucrt:pow.obj
 0002:0000f9dc       __flag_z_denormal          000000018004f9dc     libucrt:pow.obj
 0002:0000f9e0       __flag_z_inf               000000018004f9e0     libucrt:pow.obj
 0002:0000f9f0       __ay_max_bound             000000018004f9f0     libucrt:pow.obj
 0002:0000f9f8       __ay_min_bound             000000018004f9f8     libucrt:pow.obj
 0002:0000fa00       __sign_mask                000000018004fa00     libucrt:pow.obj
 0002:0000fa08       __sign_and_exp_mask        000000018004fa08     libucrt:pow.obj
 0002:0000fa10       __exp_mask                 000000018004fa10     libucrt:pow.obj
 0002:0000fa18       __neg_inf                  000000018004fa18     libucrt:pow.obj
 0002:0000fa20       __pos_inf                  000000018004fa20     libucrt:pow.obj
 0002:0000fa28       __pos_one                  000000018004fa28     libucrt:pow.obj
 0002:0000fa30       __pos_zero                 000000018004fa30     libucrt:pow.obj
 0002:0000fa38       __exp_mant_mask            000000018004fa38     libucrt:pow.obj
 0002:0000fa40       __mant_mask                000000018004fa40     libucrt:pow.obj
 0002:0000fa48       __ind_pattern              000000018004fa48     libucrt:pow.obj
 0002:0000fa50       __neg_qnan                 000000018004fa50     libucrt:pow.obj
 0002:0000fa58       __qnan                     000000018004fa58     libucrt:pow.obj
 0002:0000fa60       __qnan_set                 000000018004fa60     libucrt:pow.obj
 0002:0000fa68       __neg_one                  000000018004fa68     libucrt:pow.obj
 0002:0000fa70       __neg_zero                 000000018004fa70     libucrt:pow.obj
 0002:0000fa78       __exp_shift                000000018004fa78     libucrt:pow.obj
 0002:0000fa80       __exp_bias                 000000018004fa80     libucrt:pow.obj
 0002:0000fa88       __exp_bias_m1              000000018004fa88     libucrt:pow.obj
 0002:0000fa90       __yexp_53                  000000018004fa90     libucrt:pow.obj
 0002:0000fa98       __mant_full                000000018004fa98     libucrt:pow.obj
 0002:0000faa0       __1_before_mant            000000018004faa0     libucrt:pow.obj
 0002:0000faa8       __mask_mant_all8           000000018004faa8     libucrt:pow.obj
 0002:0000fab0       __mask_mant9               000000018004fab0     libucrt:pow.obj
 0002:0000fac0       __real_fffffffff8000000    000000018004fac0     libucrt:pow.obj
 0002:0000fad0       __mask_8000000000000000    000000018004fad0     libucrt:pow.obj
 0002:0000fae0       __real_4090040000000000    000000018004fae0     libucrt:pow.obj
 0002:0000faf0       __real_C090C80000000000    000000018004faf0     libucrt:pow.obj
 0002:0000fb00       __real_ninf                000000018004fb00     libucrt:pow.obj
 0002:0000fb10       __real_inf                 000000018004fb10     libucrt:pow.obj
 0002:0000fb20       __real_nan                 000000018004fb20     libucrt:pow.obj
 0002:0000fb30       __real_mant                000000018004fb30     libucrt:pow.obj
 0002:0000fb40       __mask_1023                000000018004fb40     libucrt:pow.obj
 0002:0000fb50       __mask_001                 000000018004fb50     libucrt:pow.obj
 0002:0000fb60       __real_log2_lead           000000018004fb60     libucrt:pow.obj
 0002:0000fb70       __real_log2_tail           000000018004fb70     libucrt:pow.obj
 0002:0000fb80       __real_two                 000000018004fb80     libucrt:pow.obj
 0002:0000fb90       __real_one                 000000018004fb90     libucrt:pow.obj
 0002:0000fba0       __real_half                000000018004fba0     libucrt:pow.obj
 0002:0000fbb0       __mask_100                 000000018004fbb0     libucrt:pow.obj
 0002:0000fbc0       __real_1_over_2            000000018004fbc0     libucrt:pow.obj
 0002:0000fbd0       __real_1_over_3            000000018004fbd0     libucrt:pow.obj
 0002:0000fbe0       __real_1_over_4            000000018004fbe0     libucrt:pow.obj
 0002:0000fbf0       __real_1_over_5            000000018004fbf0     libucrt:pow.obj
 0002:0000fc00       __real_1_over_6            000000018004fc00     libucrt:pow.obj
 0002:0000fc10       __real_1_over_7            000000018004fc10     libucrt:pow.obj
 0002:0000fc20       __mask_1023_f              000000018004fc20     libucrt:pow.obj
 0002:0000fc30       __mask_2045                000000018004fc30     libucrt:pow.obj
 0002:0000fc40       __real_threshold           000000018004fc40     libucrt:pow.obj
 0002:0000fc50       __real_notsign             000000018004fc50     libucrt:pow.obj
 0002:0000fc60       __log_F_inv_head           000000018004fc60     libucrt:pow.obj
 0002:00010470       __log_F_inv_tail           0000000180050470     libucrt:pow.obj
 0002:00010c80       __denormal_threshold       0000000180050c80     libucrt:pow.obj
 0002:00010c90       __enable_almost_inf        0000000180050c90     libucrt:pow.obj
 0002:00010ca0       __real_zero                0000000180050ca0     libucrt:pow.obj
 0002:00010cb0       __real_smallest_denormal   0000000180050cb0     libucrt:pow.obj
 0002:00010cc0       __denormal_tiny_threshold  0000000180050cc0     libucrt:pow.obj
 0002:00010cd0       __real_p65536              0000000180050cd0     libucrt:pow.obj
 0002:00010ce0       __real_m68800              0000000180050ce0     libucrt:pow.obj
 0002:00010cf0       __real_64_by_log2          0000000180050cf0     libucrt:pow.obj
 0002:00010d00       __real_log2_by_64_head     0000000180050d00     libucrt:pow.obj
 0002:00010d10       __real_log2_by_64_tail     0000000180050d10     libucrt:pow.obj
 0002:00010d20       __real_1_by_720            0000000180050d20     libucrt:pow.obj
 0002:00010d30       __real_1_by_120            0000000180050d30     libucrt:pow.obj
 0002:00010d40       __real_1_by_24             0000000180050d40     libucrt:pow.obj
 0002:00010d50       __real_1_by_6              0000000180050d50     libucrt:pow.obj
 0002:00010d60       __real_1_by_2              0000000180050d60     libucrt:pow.obj
 0002:00012a50       $unwind$?FunctionCallbackWrapper@imp@Nan@@YAXAEBV?$FunctionCallbackInfo@VValue@v8@@@v8@@@Z 0000000180052a50     init.obj
 0002:00012a60       $unwind$?New@?$Factory@VFunctionTemplate@v8@@@imp@Nan@@SA?AV?$Local@VFunctionTemplate@v8@@@v8@@P6AXAEBV?$FunctionCallbackInfo@VValue@v8@@@3@@ZV?$Local@VValue@v8@@@5@V?$Local@VSignature@v8@@@5@@Z 0000000180052a60     init.obj
 0002:00012a84       $stateUnwindMap$?New@?$Factory@VFunctionTemplate@v8@@@imp@Nan@@SA?AV?$Local@VFunctionTemplate@v8@@@v8@@P6AXAEBV?$FunctionCallbackInfo@VValue@v8@@@3@@ZV?$Local@VValue@v8@@@5@V?$Local@VSignature@v8@@@5@@Z 0000000180052a84     init.obj
 0002:00012a98       $ip2state$?New@?$Factory@VFunctionTemplate@v8@@@imp@Nan@@SA?AV?$Local@VFunctionTemplate@v8@@@v8@@P6AXAEBV?$FunctionCallbackInfo@VValue@v8@@@3@@ZV?$Local@VValue@v8@@@5@V?$Local@VSignature@v8@@@5@@Z 0000000180052a98     init.obj
 0002:00012ac0       $unwind$?InitAll@@YAXV?$Local@VObject@v8@@@v8@@@Z 0000000180052ac0     init.obj
 0002:00012ad8       $stateUnwindMap$?InitAll@@YAXV?$Local@VObject@v8@@@v8@@@Z 0000000180052ad8     init.obj
 0002:00012ae0       $ip2state$?InitAll@@YAXV?$Local@VObject@v8@@@v8@@@Z 0000000180052ae0     init.obj
 0002:00012af8       $unwind$??1ObjectWrap@node@@UEAA@XZ 0000000180052af8     PngImgAdapter.obj
 0002:00012b08       $stateUnwindMap$??__FpngImgAdapterConstructor@@YAXXZ 0000000180052b08     PngImgAdapter.obj
 0002:00012b08       $stateUnwindMap$??1ObjectWrap@node@@UEAA@XZ 0000000180052b08     PngImgAdapter.obj
 0002:00012b08       $stateUnwindMap$??1?$Persistent@VObject@v8@@V?$NonCopyablePersistentTraits@VObject@v8@@@2@@Nan@@QEAA@XZ 0000000180052b08     PngImgAdapter.obj
 0002:00012b08       $stateUnwindMap$?_Do_call@?$_Func_impl_no_alloc@P6APEAUpng_struct_def@@PEBDPEAXP6AXPEAU1@0@Z3@ZPEAU1@PEBDPEAXP6AX20@ZP6AX20@Z@std@@EEAAPEAUpng_struct_def@@$$QEAPEBD$$QEAPEAX$$QEAP6AXPEAU3@PEBD@Z4@Z 0000000180052b08     PngImg.obj
 0002:00012b08       $stateUnwindMap$?_Do_call@?$_Func_impl_no_alloc@V<lambda_b270b1f630724084d5f3bb877471ea65>@@XPEAPEAUpng_struct_def@@PEAPEAUpng_info_def@@@std@@EEAAX$$QEAPEAPEAUpng_struct_def@@$$QEAPEAPEAUpng_info_def@@@Z 0000000180052b08     PngImg.obj
 0002:00012b08       $stateUnwindMap$?_Do_call@?$_Func_impl_no_alloc@V<lambda_2a721ab91676828147c5c332544348da>@@XPEAPEAUpng_struct_def@@PEAPEAUpng_info_def@@@std@@EEAAX$$QEAPEAPEAUpng_struct_def@@$$QEAPEAPEAUpng_info_def@@@Z 0000000180052b08     PngImg.obj
 0002:00012b10       $ip2state$??1ObjectWrap@node@@UEAA@XZ 0000000180052b10     PngImgAdapter.obj
 0002:00012b18       $unwind$__acrt_AppPolicyGetShowDeveloperDiagnosticInternal 0000000180052b18     libucrt:winapi_thunks.obj
 0002:00012b18       $unwind$?ExFilterRethrow@@YAHPEAU_EXCEPTION_POINTERS@@PEAUEHExceptionRecord@@PEAH@Z 0000000180052b18     libvcruntime:frame.obj
 0002:00012b18       $unwind$??0invalid_argument@std@@QEAA@AEBV01@@Z 0000000180052b18     libcpmt:xthrow.obj
 0002:00012b18       $unwind$__std_exception_destroy 0000000180052b18     libvcruntime:std_exception.obj
 0002:00012b18       $unwind$??0logic_error@std@@QEAA@AEBV01@@Z 0000000180052b18     libcpmt:xthrow.obj
 0002:00012b18       $unwind$__acrt_uninitialize_winapi_thunks 0000000180052b18     libucrt:winapi_thunks.obj
 0002:00012b18       $unwind$__acrt_FlsAlloc    0000000180052b18     libucrt:winapi_thunks.obj
 0002:00012b18       $unwind$_calloc_base       0000000180052b18     libucrt:calloc_base.obj
 0002:00012b18       $unwind$??0bad_function_call@std@@QEAA@AEBV01@@Z 0000000180052b18     libcpmt:xthrow.obj
 0002:00012b18       $unwind$??0bad_exception@std@@QEAA@AEBV01@@Z 0000000180052b18     libvcruntime:frame.obj
 0002:00012b18       $unwind$__acrt_FlsFree     0000000180052b18     libucrt:winapi_thunks.obj
 0002:00012b18       $unwind$_IsExceptionObjectToBeDestroyed 0000000180052b18     libvcruntime:ehhelpers.obj
 0002:00012b18       $unwind$__vcrt_initialize_locks 0000000180052b18     libvcruntime:locks.obj
 0002:00012b18       $unwind$__acrt_AppPolicyGetProcessTerminationMethodInternal 0000000180052b18     libucrt:winapi_thunks.obj
 0002:00012b18       $unwind$__vcrt_uninitialize_locks 0000000180052b18     libvcruntime:locks.obj
 0002:00012b18       $unwind$__vcrt_FlsAlloc    0000000180052b18     libvcruntime:winapi_downlevel.obj
 0002:00012b18       $unwind$__vcrt_FlsFree     0000000180052b18     libvcruntime:winapi_downlevel.obj
 0002:00012b18       $unwind$__vcrt_FlsGetValue 0000000180052b18     libvcruntime:winapi_downlevel.obj
 0002:00012b18       $unwind$??0bad_alloc@std@@QEAA@AEBV01@@Z 0000000180052b18     libcpmt:xthrow.obj
 0002:00012b18       $unwind$_CreateFrameInfo   0000000180052b18     libvcruntime:risctrnsctrl.obj
 0002:00012b18       $unwind$__acrt_update_multibyte_info 0000000180052b18     libucrt:locale_update.obj
 0002:00012b18       $unwind$??0exception@std@@QEAA@AEBV01@@Z 0000000180052b18     libcpmt:xthrow.obj
 0002:00012b18       $unwind$__acrt_FlsGetValue 0000000180052b18     libucrt:winapi_thunks.obj
 0002:00012b18       $unwind$__vcrt_freeptd     0000000180052b18     libvcruntime:per_thread_data.obj
 0002:00012b18       $unwind$?state_case_normal@?$output_processor@DV?$stream_output_adapter@D@__crt_stdio_output@@V?$standard_base@DV?$stream_output_adapter@D@__crt_stdio_output@@@2@@__crt_stdio_output@@AEAA_NXZ 0000000180052b18     libucrt:output.obj
 0002:00012b18       $unwind$_SetThrowImageBase 0000000180052b18     libvcruntime:risctrnsctrl.obj
 0002:00012b18       $unwind$_SetImageBase      0000000180052b18     libvcruntime:risctrnsctrl.obj
 0002:00012b18       $unwind$_malloc_base       0000000180052b18     libucrt:malloc_base.obj
 0002:00012b18       $unwind$__acrt_AppPolicyGetWindowingModelInternal 0000000180052b18     libucrt:winapi_thunks.obj
 0002:00012b18       $unwind$??2@YAPEAX_K@Z     0000000180052b18     LIBCMT:new_scalar.obj
 0002:00012b18       $unwind$compress_block     0000000180052b18     zlib:trees.obj
 0002:00012b18       $unwind$wcscpy_s           0000000180052b18     libucrt:wcscpy_s.obj
 0002:00012b18       $unwind$_onexit            0000000180052b18     LIBCMT:utility.obj
 0002:00012b18       $unwind$?ExecutionInCatch@__FrameHandler3@@SA_NPEAU_xDISPATCHER_CONTEXT@@PEBU_s_FuncInfo@@@Z 0000000180052b18     libvcruntime:risctrnsctrl.obj
 0002:00012b18       $unwind$?DloadAcquireSectionWriteAccess@@YAXXZ 0000000180052b18     DelayImp:delayhlp.obj
 0002:00012b18       $unwind$png_muldiv         0000000180052b18     libpng:png.obj
 0002:00012b18       $unwind$?type_case_s@?$output_processor@DV?$stream_output_adapter@D@__crt_stdio_output@@V?$standard_base@DV?$stream_output_adapter@D@__crt_stdio_output@@@2@@__crt_stdio_output@@AEAA_NXZ 0000000180052b18     libucrt:output.obj
 0002:00012b18       $unwind$__acrt_stdio_free_buffer_nolock 0000000180052b18     libucrt:_freebuf.obj
 0002:00012b18       $unwind$??1?$function@$$A6AXPEAPEAUpng_struct_def@@PEAPEAUpng_info_def@@@Z@std@@QEAA@XZ 0000000180052b18     PngImg.obj
 0002:00012b18       $unwind$fegetenv           0000000180052b18     libucrt:fegetenv.obj
 0002:00012b18       $unwind$__acrt_get_windowing_model_policy 0000000180052b18     libucrt:win_policies.obj
 0002:00012b18       $unwind$__acrt_uninitialize_stdio 0000000180052b18     libucrt:_file.obj
 0002:00012b18       $unwind$??1?$function@$$A6APEAUpng_struct_def@@PEBDPEAXP6AXPEAU1@0@Z3@Z@std@@QEAA@XZ 0000000180052b18     PngImg.obj
 0002:00012b18       $unwind$feholdexcept       0000000180052b18     libucrt:feholdexcept.obj
 0002:00012b18       $unwind$__scrt_initialize_crt 0000000180052b18     LIBCMT:utility.obj
 0002:00012b18       $unwind$png_write_finish_row 0000000180052b18     libpng:pngwutil.obj
 0002:00012b18       $unwind$__acrt_get_developer_information_policy 0000000180052b18     libucrt:win_policies.obj
 0002:00012b18       $unwind$?__c16rtomb_utf8@__crt_mbstring@@YA_KPEAD_SPEAU_Mbstatet@@@Z 0000000180052b18     libucrt:c16rtomb.obj
 0002:00012b18       $unwind$?internal_isupper_l@@YA_NHQEAU__crt_locale_pointers@@@Z 0000000180052b18     libucrt:tolower_toupper.obj
 0002:00012b18       $unwind$_clearfp           0000000180052b18     libucrt:ieee.obj
 0002:00012b18       $unwind$__acrt_update_locale_info 0000000180052b18     libucrt:locale_update.obj
 0002:00012b18       $unwind$__acrt_allocate_buffer_for_argv 0000000180052b18     libucrt:argv_parsing.obj
 0002:00012b18       $unwind$??0out_of_range@std@@QEAA@AEBV01@@Z 0000000180052b18     libcpmt:xthrow.obj
 0002:00012b18       $unwind$__acrt_get_process_end_policy 0000000180052b18     libucrt:win_policies.obj
 0002:00012b18       $unwind$__scrt_uninitialize_crt 0000000180052b18     LIBCMT:utility.obj
 0002:00012b18       $unwind$__acrt_uninitialize_locks 0000000180052b18     libucrt:locks.obj
 0002:00012b18       $unwind$??1?$function@$$A6A?AUPoint@@AEBU1@AEBUImgInfo@@@Z@std@@QEAA@XZ 0000000180052b18     PngImg.obj
 0002:00012b18       $unwind$?load_exe_hook@@YAP6A_JXZIPEAUDelayLoadInfo@@@Z 0000000180052b18     win_delay_load_hook.obj
 0002:00012b18       $unwind$_fflush_nolock     0000000180052b18     libucrt:fflush.obj
 0002:00012b18       $unwind$__acrt_initialize_locks 0000000180052b18     libucrt:locks.obj
 0002:00012b18       $unwind$_set_statfp        0000000180052b18     libucrt:fpctrl.obj
 0002:00012b18       $unwind$??1?$vector@PEAEV?$allocator@PEAE@std@@@std@@QEAA@XZ 0000000180052b18     PngImg.obj
 0002:00012b18       $unwind$png_zalloc         0000000180052b18     libpng:png.obj
 0002:00012b18       $unwind$wcscat_s           0000000180052b18     libucrt:wcscat_s.obj
 0002:00012b18       $unwind$?StateFromIp@__FrameHandler3@@SAHPEBU_s_FuncInfo@@PEAU_xDISPATCHER_CONTEXT@@_K@Z 0000000180052b18     libvcruntime:ehstate.obj
 0002:00012b18       $unwind$??_Gtype_info@@UEAAPEAXI@Z 0000000180052b18     LIBCMT:std_type_info_static.obj
 0002:00012b18       $unwind$png_malloc_warn    0000000180052b18     libpng:pngmem.obj
 0002:00012b18       $unwind$deflateReset       0000000180052b18     zlib:deflate.obj
 0002:00012b18       $unwind$??0bad_array_new_length@std@@QEAA@AEBV01@@Z 0000000180052b18     LIBCMT:throw_bad_alloc.obj
 0002:00012b18       $unwind$initialize_pointers 0000000180052b18     libucrt:initialization.obj
 0002:00012b18       $unwind$__scrt_release_startup_lock 0000000180052b18     LIBCMT:utility.obj
 0002:00012b18       $unwind$??$Unwrap@VPngImgAdapter@@@ObjectWrap@node@@SAPEAVPngImgAdapter@@V?$Local@VObject@v8@@@v8@@@Z 0000000180052b18     PngImgAdapter.obj
 0002:00012b18       $unwind$strcpy_s           0000000180052b18     libucrt:strcpy_s.obj
 0002:00012b18       $unwind$_callnewh          0000000180052b18     libucrt:new_handler.obj
 0002:00012b18       $unwind$__std_type_info_destroy_list 0000000180052b18     libvcruntime:std_type_info.obj
 0002:00012b18       $unwind$?exit_or_terminate_process@@YAXI@Z 0000000180052b18     libucrt:exit.obj
 0002:00012b18       $unwind$?try_cor_exit_process@@YAXI@Z 0000000180052b18     libucrt:exit.obj
 0002:00012b18       $unwind$check_location     0000000180052b18     libpng:pngset.obj
 0002:00012b18       $unwind$png_read_finish_row 0000000180052b18     libpng:pngrutil.obj
 0002:00012b18       $unwind$png_reset_filter_heuristics 0000000180052b18     libpng:pngwrite.obj
 0002:00012b18       $unwind$?WeakCallback@ObjectWrap@node@@CAXAEBV?$WeakCallbackInfo@VObjectWrap@node@@@v8@@@Z 0000000180052b18     PngImgAdapter.obj
 0002:00012b18       $unwind$png_write_destroy  0000000180052b18     libpng:pngwrite.obj
 0002:00012b18       $unwind$?Unref@ObjectWrap@node@@MEAAXXZ 0000000180052b18     PngImgAdapter.obj
 0002:00012b18       $unwind$_clrfp             0000000180052b18     libucrt:fpctrl.obj
 0002:00012b18       $unwind$??1?$basic_string@DU?$char_traits@D@std@@V?$allocator@D@2@@std@@QEAA@XZ 0000000180052b18     PngImgAdapter.obj
 0002:00012b18       $unwind$?GetUnwindTryBlock@__FrameHandler3@@SAHPEA_KPEAU_xDISPATCHER_CONTEXT@@PEBU_s_FuncInfo@@@Z 0000000180052b18     libvcruntime:ehstate.obj
 0002:00012b18       $unwind$__raise_securityfailure 0000000180052b18     LIBCMT:gs_report.obj
 0002:00012b18       $unwind$??0length_error@std@@QEAA@AEBV01@@Z 0000000180052b18     libcpmt:xthrow.obj
 0002:00012b18       $unwind$?Ref@ObjectWrap@node@@MEAAXXZ 0000000180052b18     PngImgAdapter.obj
 0002:00012b18       $unwind$__acrt_getptd_head 0000000180052b18     libucrt:per_thread_data.obj
 0002:00012b18       $unwind$fesetenv           0000000180052b18     libucrt:fesetenv.obj
 0002:00012b18       $unwind$uninitialize_allocated_memory 0000000180052b18     libucrt:initialization.obj
 0002:00012b18       $unwind$__acrt_freeptd     0000000180052b18     libucrt:per_thread_data.obj
 0002:00012b18       $unwind$__acrt_get_parent_window 0000000180052b18     libucrt:winapi_thunks.obj
 0002:00012b20       $unwind$?replace_current_thread_locale_nolock@@YAXQEAU__acrt_ptd@@QEAU__crt_locale_data@@@Z 0000000180052b20     libucrt:per_thread_data.obj
 0002:00012b20       $unwind$__acrt_getptd_noexit 0000000180052b20     libucrt:per_thread_data.obj
 0002:00012b20       $unwind$png_write_start_row 0000000180052b20     libpng:pngwutil.obj
 0002:00012b20       $unwind$__acrt_getptd      0000000180052b20     libucrt:per_thread_data.obj
 0002:00012b20       $unwind$?SetUnwindTryBlock@__FrameHandler3@@SAXPEA_KPEAU_xDISPATCHER_CONTEXT@@PEBU_s_FuncInfo@@H@Z 0000000180052b20     libvcruntime:ehstate.obj
 0002:00012b20       $unwind$??_GObjectWrap@node@@UEAAPEAXI@Z 0000000180052b20     PngImgAdapter.obj
 0002:00012b20       $unwind$png_do_write_transformations 0000000180052b20     libpng:pngwtran.obj
 0002:00012b20       $unwind$__acrt_errno_map_os_error 0000000180052b20     libucrt:errno.obj
 0002:00012b20       $unwind$png_read_destroy   0000000180052b20     libpng:pngread.obj
 0002:00012b20       $unwind$__acrt_stdio_begin_temporary_buffering_nolock 0000000180052b20     libucrt:_sftbuf.obj
 0002:00012b20       $unwind$_initterm_e        0000000180052b20     libucrt:initterm.obj
 0002:00012b20       $unwind$_fclose_nolock     0000000180052b20     libucrt:fclose.obj
 0002:00012b20       $unwind$__acrt_execute_uninitializers 0000000180052b20     libucrt:shared_initialization.obj
 0002:00012b20       $unwind$??_GSaveWorker@@UEAAPEAXI@Z 0000000180052b20     PngImgAdapter.obj
 0002:00012b20       $unwind$??_Gbad_array_new_length@std@@UEAAPEAXI@Z 0000000180052b20     LIBCMT:throw_bad_alloc.obj
 0002:00012b20       $unwind$?readFromBuf@@YAXPEAUpng_struct_def@@PEAE_K@Z 0000000180052b20     PngImg.obj
 0002:00012b20       $unwind$png_read_start_row 0000000180052b20     libpng:pngrutil.obj
 0002:00012b20       $unwind$deflateEnd         0000000180052b20     zlib:deflate.obj
 0002:00012b20       $unwind$_RTC_Initialize    0000000180052b20     LIBCMT:initsect.obj
 0002:00012b20       $unwind$__acrt_can_show_message_box 0000000180052b20     libucrt:winapi_thunks.obj
 0002:00012b20       $unwind$_RTC_Terminate     0000000180052b20     LIBCMT:initsect.obj
 0002:00012b20       $unwind$?DloadGetSRWLockFunctionPointers@@YAEXZ 0000000180052b20     DelayImp:delayhlp.obj
 0002:00012b20       $unwind$?type_case_c_tchar@?$output_processor@DV?$stream_output_adapter@D@__crt_stdio_output@@V?$standard_base@DV?$stream_output_adapter@D@__crt_stdio_output@@@2@@__crt_stdio_output@@AEAA_ND@Z 0000000180052b20     libucrt:output.obj
 0002:00012b20       $unwind$_close_nolock      0000000180052b20     libucrt:close.obj
 0002:00012b20       $unwind$png_handle_IEND    0000000180052b20     libpng:pngrutil.obj
 0002:00012b20       $unwind$__acrt_uninitialize_lowio 0000000180052b20     libucrt:ioinit.obj
 0002:00012b20       $unwind$??$common_initialize_environment_nolock@D@@YAHXZ 0000000180052b20     libucrt:environment_initialization.obj
 0002:00012b20       $unwind$wcsncat_s          0000000180052b20     libucrt:wcsncat_s.obj
 0002:00012b20       $unwind$png_check_fp_string 0000000180052b20     libpng:png.obj
 0002:00012b20       $unwind$?state_case_normal_tchar@?$output_processor@DV?$stream_output_adapter@D@__crt_stdio_output@@V?$standard_base@DV?$stream_output_adapter@D@__crt_stdio_output@@@2@@__crt_stdio_output@@AEAA_ND@Z 0000000180052b20     libucrt:output.obj
 0002:00012b20       $unwind$_updatetlocinfoEx_nolock 0000000180052b20     libucrt:locale_refcounting.obj
 0002:00012b20       $unwind$_realloc_base      0000000180052b20     libucrt:realloc_base.obj
 0002:00012b20       $unwind$??_Gbad_function_call@std@@UEAAPEAXI@Z 0000000180052b20     libcpmt:xthrow.obj
 0002:00012b20       $unwind$??_Gexception@std@@UEAAPEAXI@Z 0000000180052b20     libcpmt:xthrow.obj
 0002:00012b20       $unwind$__vcrt_FlsSetValue 0000000180052b20     libvcruntime:winapi_downlevel.obj
 0002:00012b20       $unwind$_FindAndUnlinkFrame 0000000180052b20     libvcruntime:risctrnsctrl.obj
 0002:00012b20       $unwind$??_Gbad_alloc@std@@UEAAPEAXI@Z 0000000180052b20     libcpmt:xthrow.obj
 0002:00012b20       $unwind$?force_decimal_point@__crt_stdio_output@@YAXPEADQEAU__crt_locale_pointers@@@Z 0000000180052b20     libucrt:output.obj
 0002:00012b20       $unwind$??_GAsyncWorker@Nan@@UEAAPEAXI@Z 0000000180052b20     PngImgAdapter.obj
 0002:00012b20       $unwind$png_error          0000000180052b20     libpng:pngerror.obj
 0002:00012b20       $unwind$??_GPngImgAdapter@@UEAAPEAXI@Z 0000000180052b20     PngImgAdapter.obj
 0002:00012b20       $unwind$png_colorspace_set_gamma 0000000180052b20     libpng:png.obj
 0002:00012b20       $unwind$__acrt_stdio_allocate_buffer_nolock 0000000180052b20     libucrt:_getbuf.obj
 0002:00012b20       $unwind$png_default_error  0000000180052b20     libpng:pngerror.obj
 0002:00012b20       $unwind$longjmp            0000000180052b20     libvcruntime:longjmpc.obj
 0002:00012b20       $unwind$??_Glogic_error@std@@UEAAPEAXI@Z 0000000180052b20     libcpmt:xthrow.obj
 0002:00012b20       $unwind$strncpy_s          0000000180052b20     libucrt:strncpy_s.obj
 0002:00012b20       $unwind$png_read_finish_IDAT 0000000180052b20     libpng:pngrutil.obj
 0002:00012b20       $unwind$__acrt_FlsSetValue 0000000180052b20     libucrt:winapi_thunks.obj
 0002:00012b20       $unwind$__acrt_fp_strflt_to_string 0000000180052b20     libucrt:_fptostr.obj
 0002:00012b20       $unwind$??_Gbad_exception@std@@UEAAPEAXI@Z 0000000180052b20     libvcruntime:frame.obj
 0002:00012b20       $unwind$??_Ginvalid_argument@std@@UEAAPEAXI@Z 0000000180052b20     libcpmt:xthrow.obj
 0002:00012b20       $unwind$??_Gout_of_range@std@@UEAAPEAXI@Z 0000000180052b20     libcpmt:xthrow.obj
 0002:00012b20       $unwind$??_Glength_error@std@@UEAAPEAXI@Z 0000000180052b20     libcpmt:xthrow.obj
 0002:00012b20       $unwind$__acrt_LocaleNameToLCID 0000000180052b20     libucrt:winapi_thunks.obj
 0002:00012b2c       $unwind$?GetterCallbackWrapper@imp@Nan@@YAXV?$Local@VName@v8@@@v8@@AEBV?$PropertyCallbackInfo@VValue@v8@@@4@@Z 0000000180052b2c     PngImgAdapter.obj
 0002:00012b3c       $unwind$?ThrowError@Nan@@YAXPEBD@Z 0000000180052b3c     PngImgAdapter.obj
 0002:00012b4c       $stateUnwindMap$?HandleErrorCallback@AsyncWorker@Nan@@MEAAXXZ 0000000180052b4c     PngImgAdapter.obj
 0002:00012b4c       $stateUnwindMap$?ThrowError@Nan@@YAXPEBD@Z 0000000180052b4c     PngImgAdapter.obj
 0002:00012b4c       $stateUnwindMap$?HandleOKCallback@AsyncWorker@Nan@@MEAAXXZ 0000000180052b4c     PngImgAdapter.obj
 0002:00012b4c       $stateUnwindMap$?SetPrototypeMethod@Nan@@YAXV?$Local@VFunctionTemplate@v8@@@v8@@PEBDP6AXAEBV?$FunctionCallbackInfo@VValue@v8@@@1@@Z@Z 0000000180052b4c     PngImgAdapter.obj
 0002:00012b4c       $stateUnwindMap$??0Utf8String@Nan@@QEAA@V?$Local@VValue@v8@@@v8@@@Z 0000000180052b4c     PngImgAdapter.obj
 0002:00012b58       $ip2state$?ThrowError@Nan@@YAXPEBD@Z 0000000180052b58     PngImgAdapter.obj
 0002:00012b70       $unwind$??0Utf8String@Nan@@QEAA@V?$Local@VValue@v8@@@v8@@@Z 0000000180052b70     PngImgAdapter.obj
 0002:00012b88       $ip2state$??0Utf8String@Nan@@QEAA@V?$Local@VValue@v8@@@v8@@@Z 0000000180052b88     PngImgAdapter.obj
 0002:00012ba0       $unwind$?Call@Callback@Nan@@QEBA?AV?$MaybeLocal@VValue@v8@@@v8@@HQEAV?$Local@VValue@v8@@@4@PEAVAsyncResource@2@@Z 0000000180052ba0     PngImgAdapter.obj
 0002:00012bbc       $stateUnwindMap$?Call@Callback@Nan@@QEBA?AV?$MaybeLocal@VValue@v8@@@v8@@HQEAV?$Local@VValue@v8@@@4@PEAVAsyncResource@2@@Z 0000000180052bbc     PngImgAdapter.obj
 0002:00012bd0       $ip2state$?Call@Callback@Nan@@QEBA?AV?$MaybeLocal@VValue@v8@@@v8@@HQEAV?$Local@VValue@v8@@@4@PEAVAsyncResource@2@@Z 0000000180052bd0     PngImgAdapter.obj
 0002:00012bf8       $unwind$??1AsyncWorker@Nan@@UEAA@XZ 0000000180052bf8     PngImgAdapter.obj
 0002:00012c0c       $stateUnwindMap$??1AsyncWorker@Nan@@UEAA@XZ 0000000180052c0c     PngImgAdapter.obj
 0002:00012c20       $ip2state$??1AsyncWorker@Nan@@UEAA@XZ 0000000180052c20     PngImgAdapter.obj
 0002:00012c38       $unwind$?WorkComplete@AsyncWorker@Nan@@UEAAXXZ 0000000180052c38     PngImgAdapter.obj
 0002:00012c4c       $stateUnwindMap$?AsyncExecuteComplete@Nan@@YAXPEAUuv_work_s@@@Z 0000000180052c4c     PngImgAdapter.obj
 0002:00012c4c       $stateUnwindMap$?WorkComplete@AsyncWorker@Nan@@UEAAXXZ 0000000180052c4c     PngImgAdapter.obj
 0002:00012c80       $ip2state$?WorkComplete@AsyncWorker@Nan@@UEAAXXZ 0000000180052c80     PngImgAdapter.obj
 0002:00012cc0       $unwind$?HandleOKCallback@AsyncWorker@Nan@@MEAAXXZ 0000000180052cc0     PngImgAdapter.obj
 0002:00012cd0       $ip2state$?HandleOKCallback@AsyncWorker@Nan@@MEAAXXZ 0000000180052cd0     PngImgAdapter.obj
 0002:00012ce8       $unwind$?HandleErrorCallback@AsyncWorker@Nan@@MEAAXXZ 0000000180052ce8     PngImgAdapter.obj
 0002:00012d00       $ip2state$?HandleErrorCallback@AsyncWorker@Nan@@MEAAXXZ 0000000180052d00     PngImgAdapter.obj
 0002:00012d18       $unwind$??1?$Persistent@VObject@v8@@V?$NonCopyablePersistentTraits@VObject@v8@@@2@@Nan@@QEAA@XZ 0000000180052d18     PngImgAdapter.obj
 0002:00012d28       $unwind$?AsyncExecute@Nan@@YAXPEAUuv_work_s@@@Z 0000000180052d28     PngImgAdapter.obj
 0002:00012d48       $stateUnwindMap$?AsyncExecute@Nan@@YAXPEAUuv_work_s@@@Z 0000000180052d48     PngImgAdapter.obj
 0002:00012d48       $stateUnwindMap$?Execute@SaveWorker@@UEAAXXZ 0000000180052d48     PngImgAdapter.obj
 0002:00012d48       $stateUnwindMap$?Crop@PngImgAdapter@@CAXAEBV?$FunctionCallbackInfo@VValue@v8@@@Nan@@@Z 0000000180052d48     PngImgAdapter.obj
 0002:00012d50       $ip2state$?AsyncExecute@Nan@@YAXPEAUuv_work_s@@@Z 0000000180052d50     PngImgAdapter.obj
 0002:00012d68       $unwind$?AsyncExecuteComplete@Nan@@YAXPEAUuv_work_s@@@Z 0000000180052d68     PngImgAdapter.obj
 0002:00012d80       $ip2state$?AsyncExecuteComplete@Nan@@YAXPEAUuv_work_s@@@Z 0000000180052d80     PngImgAdapter.obj
 0002:00012dd0       $unwind$?SetPrototypeMethod@Nan@@YAXV?$Local@VFunctionTemplate@v8@@@v8@@PEBDP6AXAEBV?$FunctionCallbackInfo@VValue@v8@@@1@@Z@Z 0000000180052dd0     PngImgAdapter.obj
 0002:00012de8       $ip2state$?SetPrototypeMethod@Nan@@YAXV?$Local@VFunctionTemplate@v8@@@v8@@PEBDP6AXAEBV?$FunctionCallbackInfo@VValue@v8@@@1@@Z@Z 0000000180052de8     PngImgAdapter.obj
 0002:00012e00       $unwind$?SetAccessor@Nan@@YAXV?$Local@VObjectTemplate@v8@@@v8@@V?$Local@VString@v8@@@3@P6AX1AEBV?$PropertyCallbackInfo@VValue@v8@@@1@@ZP6AX1V?$Local@VValue@v8@@@3@AEBV?$PropertyCallbackInfo@X@1@@Z4W4AccessControl@3@W4PropertyAttribute@3@V?$Local@VAccessorSignature@v8@@@3@@Z 0000000180052e00     PngImgAdapter.obj
 0002:00012e1c       $stateUnwindMap$?SetAccessor@Nan@@YAXV?$Local@VObjectTemplate@v8@@@v8@@V?$Local@VString@v8@@@3@P6AX1AEBV?$PropertyCallbackInfo@VValue@v8@@@1@@ZP6AX1V?$Local@VValue@v8@@@3@AEBV?$PropertyCallbackInfo@X@1@@Z4W4AccessControl@3@W4PropertyAttribute@3@V?$Local@VAccessorSignature@v8@@@3@@Z 0000000180052e1c     PngImgAdapter.obj
 0002:00012e30       $ip2state$?SetAccessor@Nan@@YAXV?$Local@VObjectTemplate@v8@@@v8@@V?$Local@VString@v8@@@3@P6AX1AEBV?$PropertyCallbackInfo@VValue@v8@@@1@@ZP6AX1V?$Local@VValue@v8@@@3@AEBV?$PropertyCallbackInfo@X@1@@Z4W4AccessControl@3@W4PropertyAttribute@3@V?$Local@VAccessorSignature@v8@@@3@@Z 0000000180052e30     PngImgAdapter.obj
 0002:00012e58       $unwind$??0SaveWorker@@QEAA@PEAVCallback@Nan@@AEAVPngImg@@V?$basic_string@DU?$char_traits@D@std@@V?$allocator@D@2@@std@@AEBV?$Local@VObject@v8@@@v8@@@Z 0000000180052e58     PngImgAdapter.obj
 0002:00012e78       $stateUnwindMap$??0SaveWorker@@QEAA@PEAVCallback@Nan@@AEAVPngImg@@V?$basic_string@DU?$char_traits@D@std@@V?$allocator@D@2@@std@@AEBV?$Local@VObject@v8@@@v8@@@Z 0000000180052e78     PngImgAdapter.obj
 0002:00012eb0       $ip2state$??0SaveWorker@@QEAA@PEAVCallback@Nan@@AEAVPngImg@@V?$basic_string@DU?$char_traits@D@std@@V?$allocator@D@2@@std@@AEBV?$Local@VObject@v8@@@v8@@@Z 0000000180052eb0     PngImgAdapter.obj
 0002:00012ef0       $unwind$?Execute@SaveWorker@@UEAAXXZ 0000000180052ef0     PngImgAdapter.obj
 0002:00012f10       $ip2state$?Execute@SaveWorker@@UEAAXXZ 0000000180052f10     PngImgAdapter.obj
 0002:00012f28       $unwind$??__FpngImgAdapterConstructor@@YAXXZ 0000000180052f28     PngImgAdapter.obj
 0002:00012f38       $unwind$?Init@PngImgAdapter@@SAXXZ 0000000180052f38     PngImgAdapter.obj
 0002:00012f44       $unwind$?NewInstance@PngImgAdapter@@SAXAEBV?$FunctionCallbackInfo@VValue@v8@@@Nan@@@Z 0000000180052f44     PngImgAdapter.obj
 0002:00012f58       $stateUnwindMap$?NewInstance@PngImgAdapter@@SAXAEBV?$FunctionCallbackInfo@VValue@v8@@@Nan@@@Z 0000000180052f58     PngImgAdapter.obj
 0002:00012f60       $ip2state$?NewInstance@PngImgAdapter@@SAXAEBV?$FunctionCallbackInfo@VValue@v8@@@Nan@@@Z 0000000180052f60     PngImgAdapter.obj
 0002:00012f78       $unwind$?New@PngImgAdapter@@CAXAEBV?$FunctionCallbackInfo@VValue@v8@@@Nan@@@Z 0000000180052f78     PngImgAdapter.obj
 0002:00012f98       $stateUnwindMap$?New@PngImgAdapter@@CAXAEBV?$FunctionCallbackInfo@VValue@v8@@@Nan@@@Z 0000000180052f98     PngImgAdapter.obj
 0002:00012fb0       $ip2state$?New@PngImgAdapter@@CAXAEBV?$FunctionCallbackInfo@VValue@v8@@@Nan@@@Z 0000000180052fb0     PngImgAdapter.obj
 0002:00012fd0       $unwind$?fin$0@?0???$?RV<lambda_efdfa57d1f175319df784efa44bb7b81>@@AEAV<lambda_5f0a4c1567f8adc6734073e5d1e1b35c>@@V<lambda_2e8a7d3640ea6ccb4c2413664c2db6fd>@@@?$__crt_seh_guarded_call@X@@QEAAX$$QEAV<lambda_efdfa57d1f175319df784efa44bb7b81>@@AEAV<lambda_5f0a4c1567f8adc6734073e5d1e1b35c>@@$$QEAV<lambda_2e8a7d3640ea6ccb4c2413664c2db6fd>@@@Z@4HA 0000000180052fd0     libucrt:mbctype.obj
 0002:00012fd0       $unwind$?dtor$2@?0??Write@PngImgAdapter@@CAXAEBV?$FunctionCallbackInfo@VValue@v8@@@Nan@@@Z@4HA 0000000180052fd0     PngImgAdapter.obj
 0002:00012fd0       $unwind$?fin$0@?0???$?RV<lambda_450d765d439847d4c735a33c368b5fc0>@@AEAV<lambda_44731a7d0e6d81c3e6aa82d741081786>@@V<lambda_601a2a7da3b7a96e9554ac7215c4b07c>@@@?$__crt_seh_guarded_call@P6AXH@Z@@QEAAP6AXH@Z$$QEAV<lambda_450d765d439847d4c735a33c368b5fc0>@@AEAV<lambda_44731a7d0e6d81c3e6aa82d741081786>@@$$QEAV<lambda_601a2a7da3b7a96e9554ac7215c4b07c>@@@Z@4HA 0000000180052fd0     libucrt:signal.obj
 0002:00012fd0       $unwind$?filt$0@?0???R<lambda_6e4b09c48022b2350581041d5f6b0c4c>@@QEBA@XZ@4HA 0000000180052fd0     libucrt:exit.obj
 0002:00012fd0       $unwind$_IsNonwritableInCurrentImage$filt$0 0000000180052fd0     LIBCMT:pesect.obj
 0002:00012fd0       $unwind$raise$fin$0        0000000180052fd0     libucrt:signal.obj
 0002:00012fd0       $unwind$?dtor$1@?0??Write@PngImgAdapter@@CAXAEBV?$FunctionCallbackInfo@VValue@v8@@@Nan@@@Z@4HA 0000000180052fd0     PngImgAdapter.obj
 0002:00012fd0       $unwind$?fin$0@?0???$?RV<lambda_bdbcead8b570fa3d5ec6d9679862a6e5>@@AEAV<lambda_96f4279ff90247a4c5c5d9824f56f8c1>@@V<lambda_4606be27f17b5e5579e09050fab91818>@@@?$__crt_seh_guarded_call@_K@@QEAA_K$$QEAV<lambda_bdbcead8b570fa3d5ec6d9679862a6e5>@@AEAV<lambda_96f4279ff90247a4c5c5d9824f56f8c1>@@$$QEAV<lambda_4606be27f17b5e5579e09050fab91818>@@@Z@4HA 0000000180052fd0     libucrt:fwrite.obj
 0002:00012fd0       $unwind$?fin$0@?0??__acrt_stdio_allocate_stream@@YA?AV__crt_stdio_stream@@XZ@4HA 0000000180052fd0     libucrt:stream.obj
 0002:00012fd0       $unwind$?dtor$0@?0??Write@PngImgAdapter@@CAXAEBV?$FunctionCallbackInfo@VValue@v8@@@Nan@@@Z@4HA 0000000180052fd0     PngImgAdapter.obj
 0002:00012fd0       $unwind$?fin$0@?0???$?RV<lambda_7777bce6b2f8c936911f934f8298dc43>@@AEAV<lambda_f03950bc5685219e0bcd2087efbe011e>@@V<lambda_3883c3dff614d5e0c5f61bb1ac94921c>@@@?$__crt_seh_guarded_call@H@@QEAAH$$QEAV<lambda_7777bce6b2f8c936911f934f8298dc43>@@AEAV<lambda_f03950bc5685219e0bcd2087efbe011e>@@$$QEAV<lambda_3883c3dff614d5e0c5f61bb1ac94921c>@@@Z@4HA 0000000180052fd0     libucrt:onexit.obj
 0002:00012fd0       $unwind$?fin$0@?0???$?RV<lambda_0ae27a3a962d80f24befdcbee591983d>@@AEAV<lambda_8d0ee55de4b1038c4002e0adecdf1839>@@V<lambda_dc504788e8f1664fe9b84e20bfb512f2>@@@?$__crt_seh_guarded_call@X@@QEAAX$$QEAV<lambda_0ae27a3a962d80f24befdcbee591983d>@@AEAV<lambda_8d0ee55de4b1038c4002e0adecdf1839>@@$$QEAV<lambda_dc504788e8f1664fe9b84e20bfb512f2>@@@Z@4HA 0000000180052fd0     libucrt:per_thread_data.obj
 0002:00012fd0       $unwind$?fin$0@?0???$common_fsopen@D@@YAPEAU_iobuf@@QEBD0H@Z@4HA 0000000180052fd0     libucrt:fopen.obj
 0002:00012fd0       $unwind$__acrt_update_thread_locale_data$fin$0 0000000180052fd0     libucrt:locale_refcounting.obj
 0002:00012fd0       $unwind$?fin$0@?0???$?RV<lambda_aa87e3671a710a21b5dc78c0bdf72e11>@@AEAV<lambda_92619d2358a28f41a33ba319515a20b9>@@V<lambda_6992ecaafeb10aed2b74cb1fae11a551>@@@?$__crt_seh_guarded_call@X@@QEAAX$$QEAV<lambda_aa87e3671a710a21b5dc78c0bdf72e11>@@AEAV<lambda_92619d2358a28f41a33ba319515a20b9>@@$$QEAV<lambda_6992ecaafeb10aed2b74cb1fae11a551>@@@Z@4HA 0000000180052fd0     libucrt:per_thread_data.obj
 0002:00012fd0       $unwind$?fin$0@?0???$?RV<lambda_8369fcb7c4df1e85de37618bd2b85f07>@@AEAV<lambda_a10e4b102d4a2c3aac6f4f48bbdf488f>@@V<lambda_5b7707bd6d7a0c4713179f36c7fd995d>@@@?$__crt_seh_guarded_call@H@@QEAAH$$QEAV<lambda_8369fcb7c4df1e85de37618bd2b85f07>@@AEAV<lambda_a10e4b102d4a2c3aac6f4f48bbdf488f>@@$$QEAV<lambda_5b7707bd6d7a0c4713179f36c7fd995d>@@@Z@4HA 0000000180052fd0     libucrt:onexit.obj
 0002:00012fd0       $unwind$?fin$0@?0???$?RV<lambda_f2e299630e499de9f9a165e60fcd3db5>@@AEAV<lambda_2ae9d31cdba2644fcbeaf08da7c24588>@@V<lambda_40d01ff24d0e7b3814fdbdcee8eab3c7>@@@?$__crt_seh_guarded_call@X@@QEAAX$$QEAV<lambda_f2e299630e499de9f9a165e60fcd3db5>@@AEAV<lambda_2ae9d31cdba2644fcbeaf08da7c24588>@@$$QEAV<lambda_40d01ff24d0e7b3814fdbdcee8eab3c7>@@@Z@4HA 0000000180052fd0     libucrt:per_thread_data.obj
 0002:00012fd0       $unwind$?fin$0@?0??dllmain_crt_process_detach@@YAH_N@Z@4HA 0000000180052fd0     LIBCMT:dll_dllmain.obj
 0002:00012fd0       $unwind$fclose$fin$0       0000000180052fd0     libucrt:fclose.obj
 0002:00012fd0       $unwind$?fin$0@?0??dllmain_crt_process_attach@@YAHQEAUHINSTANCE__@@QEAX@Z@4HA 0000000180052fd0     LIBCMT:dll_dllmain.obj
 0002:00012fd0       $unwind$?fin$0@?0???$?RV<lambda_a62c933ada0517137acf5807a1eeac1f>@@AEAV<lambda_a31071773b9a94e445cbd5d04ef99106>@@V<lambda_56065050dbf3ada7e59a83db45153de3>@@@?$__crt_seh_guarded_call@H@@QEAAH$$QEAV<lambda_a62c933ada0517137acf5807a1eeac1f>@@AEAV<lambda_a31071773b9a94e445cbd5d04ef99106>@@$$QEAV<lambda_56065050dbf3ada7e59a83db45153de3>@@@Z@4HA 0000000180052fd0     libucrt:output.obj
 0002:00012fd0       $unwind$_ctrlfp$filt$0     0000000180052fd0     libucrt:fpctrl.obj
 0002:00012fd0       $unwind$_alloc_osfhnd$fin$0 0000000180052fd0     libucrt:osfinfo.obj
 0002:00012fd0       $unwind$?fin$0@?0???$?RV<lambda_0d412022a4b28cc8a401ea49574e8ae6>@@AEAV<lambda_a775ed57af18ba8e4d5dc780aa9068fe>@@V<lambda_975a71a6baa488a08f4e15f6b0339b9e>@@@?$__crt_seh_guarded_call@H@@QEAAH$$QEAV<lambda_0d412022a4b28cc8a401ea49574e8ae6>@@AEAV<lambda_a775ed57af18ba8e4d5dc780aa9068fe>@@$$QEAV<lambda_975a71a6baa488a08f4e15f6b0339b9e>@@@Z@4HA 0000000180052fd0     libucrt:output.obj
 0002:00012fd0       $unwind$?fin$0@?0???$?RV<lambda_2d41944a1d46af3157314b8a01080d33>@@AEAV<lambda_8f455de75cd7d7f24b4096f044d8b9e6>@@V<lambda_aa500f224e6afead328df44964fe2772>@@@?$__crt_seh_guarded_call@X@@QEAAX$$QEAV<lambda_2d41944a1d46af3157314b8a01080d33>@@AEAV<lambda_8f455de75cd7d7f24b4096f044d8b9e6>@@$$QEAV<lambda_aa500f224e6afead328df44964fe2772>@@@Z@4HA 0000000180052fd0     libucrt:per_thread_data.obj
 0002:00012fd0       $unwind$_read$fin$0        0000000180052fd0     libucrt:read.obj
 0002:00012fd0       $unwind$?fin$0@?0???$?RV<lambda_a37b2b86f63e897a80ea819b0eb08c01>@@AEAV<lambda_38ce7e780aa69e748d6df282ebc68efe>@@V<lambda_99fb1378e971ab6e7edea83e3a7a83a2>@@@?$__crt_seh_guarded_call@H@@QEAAH$$QEAV<lambda_a37b2b86f63e897a80ea819b0eb08c01>@@AEAV<lambda_38ce7e780aa69e748d6df282ebc68efe>@@$$QEAV<lambda_99fb1378e971ab6e7edea83e3a7a83a2>@@@Z@4HA 0000000180052fd0     libucrt:commit.obj
 0002:00012fd0       $unwind$__acrt_lowio_ensure_fh_exists$fin$0 0000000180052fd0     libucrt:osfinfo.obj
 0002:00012fd0       $unwind$?fin$0@?0???$?RV<lambda_410d79af7f07d98d83a3f525b3859a53>@@AEAV<lambda_3e16ef9562a7dcce91392c22ab16ea36>@@V<lambda_38119f0e861e05405d8a144b9b982f0a>@@@?$__crt_seh_guarded_call@X@@QEAAX$$QEAV<lambda_410d79af7f07d98d83a3f525b3859a53>@@AEAV<lambda_3e16ef9562a7dcce91392c22ab16ea36>@@$$QEAV<lambda_38119f0e861e05405d8a144b9b982f0a>@@@Z@4HA 0000000180052fd0     libucrt:wsetlocale.obj
 0002:00012fd0       $unwind$_query_new_handler$fin$0 0000000180052fd0     libucrt:new_handler.obj
 0002:00012fd0       $unwind$?fin$0@?0???$?RV<lambda_84ec643ea9557e2f7dc01bb0e9624395>@@AEAV<lambda_ca71763b3c0644891230e4f79ea54fa6>@@V<lambda_439a761618c59b0600e24586724d733b>@@@?$__crt_seh_guarded_call@H@@QEAAH$$QEAV<lambda_84ec643ea9557e2f7dc01bb0e9624395>@@AEAV<lambda_ca71763b3c0644891230e4f79ea54fa6>@@$$QEAV<lambda_439a761618c59b0600e24586724d733b>@@@Z@4HA 0000000180052fd0     libucrt:setvbuf.obj
 0002:00012fd0       $unwind$_write$fin$0       0000000180052fd0     libucrt:write.obj
 0002:00012fd0       $unwind$__acrt_initialize_lowio$fin$0 0000000180052fd0     libucrt:ioinit.obj
 0002:00012fd0       $unwind$?fin$0@?0??update_thread_multibyte_data_internal@@YAPEAU__crt_multibyte_data@@QEAU__acrt_ptd@@QEAPEAU1@@Z@4HA 0000000180052fd0     libucrt:mbctype.obj
 0002:00012fd0       $unwind$?fin$0@?0???$?RV<lambda_751a882b2c74d4b022dec766aa51a29a>@@AEAV<lambda_628dfdc04ba53c8bfc02c9951375f3f5>@@V<lambda_f6c7be5f7998530c34de24c7437d6b54>@@@?$__crt_seh_guarded_call@H@@QEAAH$$QEAV<lambda_751a882b2c74d4b022dec766aa51a29a>@@AEAV<lambda_628dfdc04ba53c8bfc02c9951375f3f5>@@$$QEAV<lambda_f6c7be5f7998530c34de24c7437d6b54>@@@Z@4HA 0000000180052fd0     libucrt:close.obj
 0002:00012fd0       $unwind$?dtor$0@?0??New@PngImgAdapter@@CAXAEBV?$FunctionCallbackInfo@VValue@v8@@@Nan@@@Z@4HA 0000000180052fd0     PngImgAdapter.obj
 0002:00012fd0       $unwind$_fcloseall$fin$0   0000000180052fd0     libucrt:closeall.obj
 0002:00012fd0       $unwind$?fin$0@?0???$?RV<lambda_842d9ff0dc9ef11c61343bbaebe7f885>@@AEAV<lambda_c5860995281e5c4ce005b3de8f5874ee>@@V<lambda_d90129c13df834fdcbf8d2b88dafcf2d>@@@?$__crt_seh_guarded_call@X@@QEAAX$$QEAV<lambda_842d9ff0dc9ef11c61343bbaebe7f885>@@AEAV<lambda_c5860995281e5c4ce005b3de8f5874ee>@@$$QEAV<lambda_d90129c13df834fdcbf8d2b88dafcf2d>@@@Z@4HA 0000000180052fd0     libucrt:fflush.obj
 0002:00012fd0       $unwind$?filt$0@?0??CxxCallCatchBlock@__FrameHandler3@@SAPEAXPEAU_EXCEPTION_RECORD@@@Z@4HA 0000000180052fd0     libvcruntime:frame.obj
 0002:00012fd0       $unwind$?fin$0@?0???$?RV<lambda_886d6c58226a84441f68b9f2b8217b83>@@AEAV<lambda_ab61a845afdef5b7c387490eaf3616ee>@@V<lambda_f7f22ab5edc0698d5f6905b0d3f44752>@@@?$__crt_seh_guarded_call@X@@QEAAX$$QEAV<lambda_886d6c58226a84441f68b9f2b8217b83>@@AEAV<lambda_ab61a845afdef5b7c387490eaf3616ee>@@$$QEAV<lambda_f7f22ab5edc0698d5f6905b0d3f44752>@@@Z@4HA 0000000180052fd0     libucrt:fflush.obj
 0002:00012fd0       $unwind$?fin$1@?0??FrameUnwindToState@__FrameHandler3@@SAXPEA_KPEAU_xDISPATCHER_CONTEXT@@PEBU_s_FuncInfo@@H@Z@4HA 0000000180052fd0     libvcruntime:frame.obj
 0002:00012fd0       $unwind$?filt$0@?0??FrameUnwindToState@__FrameHandler3@@SAXPEA_KPEAU_xDISPATCHER_CONTEXT@@PEBU_s_FuncInfo@@H@Z@4HA 0000000180052fd0     libvcruntime:frame.obj
 0002:00012fd0       $unwind$?fin$0@?0???$?RV<lambda_d80eeec6fff315bfe5c115232f3240e3>@@AEAV<lambda_6e4b09c48022b2350581041d5f6b0c4c>@@V<lambda_2358e3775559c9db80273638284d5e45>@@@?$__crt_seh_guarded_call@X@@QEAAX$$QEAV<lambda_d80eeec6fff315bfe5c115232f3240e3>@@AEAV<lambda_6e4b09c48022b2350581041d5f6b0c4c>@@$$QEAV<lambda_2358e3775559c9db80273638284d5e45>@@@Z@4HA 0000000180052fd0     libucrt:exit.obj
 0002:00012fd0       $unwind$?fin$0@?0???$common_lseek@_J@@YA_JH_JH@Z@4HA 0000000180052fd0     libucrt:lseek.obj
 0002:00012fd0       $unwind$?fin$0@?0???$?RV<lambda_c376a267cfb53b6959b3b692ec76b120>@@AEAV<lambda_9a32fed5bf61b6b509b2d3f6003082a1>@@V<lambda_572fbb9fa0ab338edf41edfd4b5fcc8d>@@@?$__crt_seh_guarded_call@H@@QEAAH$$QEAV<lambda_c376a267cfb53b6959b3b692ec76b120>@@AEAV<lambda_9a32fed5bf61b6b509b2d3f6003082a1>@@$$QEAV<lambda_572fbb9fa0ab338edf41edfd4b5fcc8d>@@@Z@4HA 0000000180052fd0     libucrt:fflush.obj
 0002:00012fd0       $unwind$__DestructExceptionObject$filt$0 0000000180052fd0     libvcruntime:ehhelpers.obj
 0002:00012fd8       $unwind$?Height@PngImgAdapter@@CAXV?$Local@VString@v8@@@v8@@AEBV?$PropertyCallbackInfo@VValue@v8@@@Nan@@@Z 0000000180052fd8     PngImgAdapter.obj
 0002:00012fd8       $unwind$?Width@PngImgAdapter@@CAXV?$Local@VString@v8@@@v8@@AEBV?$PropertyCallbackInfo@VValue@v8@@@Nan@@@Z 0000000180052fd8     PngImgAdapter.obj
 0002:00012fe4       $unwind$?Get@PngImgAdapter@@CAXAEBV?$FunctionCallbackInfo@VValue@v8@@@Nan@@@Z 0000000180052fe4     PngImgAdapter.obj
 0002:00013010       $stateUnwindMap$?Get@PngImgAdapter@@CAXAEBV?$FunctionCallbackInfo@VValue@v8@@@Nan@@@Z 0000000180053010     PngImgAdapter.obj
 0002:00013020       $ip2state$?Get@PngImgAdapter@@CAXAEBV?$FunctionCallbackInfo@VValue@v8@@@Nan@@@Z 0000000180053020     PngImgAdapter.obj
 0002:00013050       $unwind$?RGBObjToPxl@@YA?AUPxl@@AEBV?$Local@VObject@v8@@@v8@@@Z 0000000180053050     PngImgAdapter.obj
 0002:00013064       $stateUnwindMap$?RGBObjToPxl@@YA?AUPxl@@AEBV?$Local@VObject@v8@@@v8@@@Z 0000000180053064     PngImgAdapter.obj
 0002:00013090       $ip2state$?RGBObjToPxl@@YA?AUPxl@@AEBV?$Local@VObject@v8@@@v8@@@Z 0000000180053090     PngImgAdapter.obj
 0002:000130d8       $unwind$??R<lambda_c6484637a8e92c945a958729cd5afacb>@@QEBAHAEBV?$basic_string@DU?$char_traits@D@std@@V?$allocator@D@2@@std@@@Z 00000001800530d8     PngImgAdapter.obj
 0002:000130f8       $stateUnwindMap$??R<lambda_c6484637a8e92c945a958729cd5afacb>@@QEBAHAEBV?$basic_string@DU?$char_traits@D@std@@V?$allocator@D@2@@std@@@Z 00000001800530f8     PngImgAdapter.obj
 0002:00013108       $ip2state$??R<lambda_c6484637a8e92c945a958729cd5afacb>@@QEBAHAEBV?$basic_string@DU?$char_traits@D@std@@V?$allocator@D@2@@std@@@Z 0000000180053108     PngImgAdapter.obj
 0002:00013130       $unwind$?Fill@PngImgAdapter@@CAXAEBV?$FunctionCallbackInfo@VValue@v8@@@Nan@@@Z 0000000180053130     PngImgAdapter.obj
 0002:00013158       $stateUnwindMap$?Fill@PngImgAdapter@@CAXAEBV?$FunctionCallbackInfo@VValue@v8@@@Nan@@@Z 0000000180053158     PngImgAdapter.obj
 0002:00013160       $ip2state$?Fill@PngImgAdapter@@CAXAEBV?$FunctionCallbackInfo@VValue@v8@@@Nan@@@Z 0000000180053160     PngImgAdapter.obj
 0002:00013178       $unwind$?Crop@PngImgAdapter@@CAXAEBV?$FunctionCallbackInfo@VValue@v8@@@Nan@@@Z 0000000180053178     PngImgAdapter.obj
 0002:000131a0       $ip2state$?Crop@PngImgAdapter@@CAXAEBV?$FunctionCallbackInfo@VValue@v8@@@Nan@@@Z 00000001800531a0     PngImgAdapter.obj
 0002:000131b8       $unwind$?SetSize@PngImgAdapter@@CAXAEBV?$FunctionCallbackInfo@VValue@v8@@@Nan@@@Z 00000001800531b8     PngImgAdapter.obj
 0002:000131e4       $stateUnwindMap$?SetSize@PngImgAdapter@@CAXAEBV?$FunctionCallbackInfo@VValue@v8@@@Nan@@@Z 00000001800531e4     PngImgAdapter.obj
 0002:000131f8       $ip2state$?SetSize@PngImgAdapter@@CAXAEBV?$FunctionCallbackInfo@VValue@v8@@@Nan@@@Z 00000001800531f8     PngImgAdapter.obj
 0002:00013220       $unwind$?Insert@PngImgAdapter@@CAXAEBV?$FunctionCallbackInfo@VValue@v8@@@Nan@@@Z 0000000180053220     PngImgAdapter.obj
 0002:00013238       $unwind$?RotateLeft@PngImgAdapter@@CAXAEBV?$FunctionCallbackInfo@VValue@v8@@@Nan@@@Z 0000000180053238     PngImgAdapter.obj
 0002:00013238       $unwind$?RotateRight@PngImgAdapter@@CAXAEBV?$FunctionCallbackInfo@VValue@v8@@@Nan@@@Z 0000000180053238     PngImgAdapter.obj
 0002:00013240       $unwind$?Write@PngImgAdapter@@CAXAEBV?$FunctionCallbackInfo@VValue@v8@@@Nan@@@Z 0000000180053240     PngImgAdapter.obj
 0002:00013268       $stateUnwindMap$?Write@PngImgAdapter@@CAXAEBV?$FunctionCallbackInfo@VValue@v8@@@Nan@@@Z 0000000180053268     PngImgAdapter.obj
 0002:00013288       $ip2state$?Write@PngImgAdapter@@CAXAEBV?$FunctionCallbackInfo@VValue@v8@@@Nan@@@Z 0000000180053288     PngImgAdapter.obj
 0002:000132c0       $unwind$??0?$basic_string@DU?$char_traits@D@std@@V?$allocator@D@2@@std@@QEAA@AEBV01@@Z 00000001800532c0     PngImgAdapter.obj
 0002:000132d4       $unwind$?assign@?$basic_string@DU?$char_traits@D@std@@V?$allocator@D@2@@std@@QEAAAEAV12@QEBD@Z 00000001800532d4     PngImgAdapter.obj
 0002:000132ec       $unwind$__acrt_uninitialize_ptd 00000001800532ec     libucrt:per_thread_data.obj
 0002:000132ec       $unwind$__acrt_AreFileApisANSI 00000001800532ec     libucrt:winapi_thunks.obj
 0002:000132ec       $unwind$abort              00000001800532ec     libucrt:abort.obj
 0002:000132ec       $unwind$__acrt_initialize_command_line 00000001800532ec     libucrt:argv_data.obj
 0002:000132ec       $unwind$_isatty            00000001800532ec     libucrt:isatty.obj
 0002:000132ec       $unwind$?initialize_multibyte@@YAHXZ 00000001800532ec     libucrt:multibyte_initializer.obj
 0002:000132ec       $unwind$__acrt_DownlevelLocaleNameToLCID 00000001800532ec     libucrt:lcidtoname_downlevel.obj
 0002:000132ec       $unwind$_get_fmode         00000001800532ec     libucrt:setmode.obj
 0002:000132ec       $unwind$?validate_stream_is_ansi_if_required@?$__acrt_stdio_char_traits@D@@SA_NQEAU_iobuf@@@Z 00000001800532ec     libucrt:output.obj
 0002:000132ec       $unwind$atexit             00000001800532ec     LIBCMT:utility.obj
 0002:000132ec       $unwind$__dcrt_terminate_console_output 00000001800532ec     libucrt:initcon.obj
 0002:000132ec       $unwind$__scrt_acquire_startup_lock 00000001800532ec     LIBCMT:utility.obj
 0002:000132ec       $unwind$_get_osfhandle     00000001800532ec     libucrt:osfinfo.obj
 0002:000132ec       $unwind$__acrt_initialize_ptd 00000001800532ec     libucrt:per_thread_data.obj
 0002:000132ec       $unwind$__scrt_dllmain_before_initialize_c 00000001800532ec     LIBCMT:utility.obj
 0002:000132ec       $unwind$png_write_chunk_end 00000001800532ec     libpng:pngwutil.obj
 0002:000132ec       $unwind$?_Xlength@?$vector@PEAEV?$allocator@PEAE@std@@@std@@CAXXZ 00000001800532ec     PngImg.obj
 0002:000132ec       $unwind$_msize_base        00000001800532ec     libucrt:msize.obj
 0002:000132ec       $unwind$__scrt_dllmain_after_initialize_c 00000001800532ec     LIBCMT:utility.obj
 0002:000132ec       $unwind$__acrt_initialize_heap 00000001800532ec     libucrt:heap_handle.obj
 0002:000132ec       $unwind$__doserrno         00000001800532ec     libucrt:errno.obj
 0002:000132ec       $unwind$_statfp            00000001800532ec     libucrt:fpctrl.obj
 0002:000132ec       $unwind$__scrt_dllmain_uninitialize_c 00000001800532ec     LIBCMT:utility.obj
 0002:000132ec       $unwind$__vcrt_initialize_ptd 00000001800532ec     libvcruntime:per_thread_data.obj
 0002:000132ec       $unwind$??$uninitialize_environment_internal@_W@@YAXAEAPEAPEA_W@Z 00000001800532ec     libucrt:environment_initialization.obj
 0002:000132ec       $unwind$?state_case_size@?$output_processor@DV?$stream_output_adapter@D@__crt_stdio_output@@V?$standard_base@DV?$stream_output_adapter@D@__crt_stdio_output@@@2@@__crt_stdio_output@@AEAA_NXZ 00000001800532ec     libucrt:output.obj
 0002:000132ec       $unwind$??$uninitialize_environment_internal@D@@YAXAEAPEAPEAD@Z 00000001800532ec     libucrt:environment_initialization.obj
 0002:000132ec       $unwind$__pctype_func      00000001800532ec     libucrt:ctype.obj
 0002:000132ec       $unwind$__acrt_update_thread_multibyte_data 00000001800532ec     libucrt:mbctype.obj
 0002:000132ec       $unwind$__scrt_dllmain_uninitialize_critical 00000001800532ec     LIBCMT:utility.obj
 0002:000132ec       $unwind$__dcrt_uninitialize_environments_nolock 00000001800532ec     libucrt:environment_initialization.obj
 0002:000132ec       $unwind$__acrt_initialize_multibyte 00000001800532ec     libucrt:mbctype.obj
 0002:000132ec       $unwind$__acrt_uninitialize 00000001800532ec     libucrt:initialization.obj
 0002:000132ec       $unwind$__scrt_dllmain_crt_thread_attach 00000001800532ec     LIBCMT:utility.obj
 0002:000132ec       $unwind$__acrt_uninitialize_critical 00000001800532ec     libucrt:initialization.obj
 0002:000132ec       $unwind$__scrt_dllmain_crt_thread_detach 00000001800532ec     LIBCMT:utility.obj
 0002:000132ec       $unwind$__acrt_thread_attach 00000001800532ec     libucrt:initialization.obj
 0002:000132ec       $unwind$_stricmp           00000001800532ec     libucrt:stricmp.obj
 0002:000132ec       $unwind$__acrt_thread_detach 00000001800532ec     libucrt:initialization.obj
 0002:000132ec       $unwind$png_reciprocal     00000001800532ec     libpng:png.obj
 0002:000132ec       $unwind$initialize_c       00000001800532ec     libucrt:initialization.obj
 0002:000132ec       $unwind$?dllmain_crt_dispatch@@YAHQEAUHINSTANCE__@@KQEAX@Z 00000001800532ec     LIBCMT:dll_dllmain.obj
 0002:000132ec       $unwind$__report_rangecheckfailure 00000001800532ec     LIBCMT:gs_report.obj
 0002:000132ec       $unwind$uninitialize_environment 00000001800532ec     libucrt:initialization.obj
 0002:000132ec       $unwind$png_reciprocal2    00000001800532ec     libpng:png.obj
 0002:000132ec       $unwind$_errno             00000001800532ec     libucrt:errno.obj
 0002:000132ec       $unwind$_set_errno_from_matherr 00000001800532ec     libucrt:fpexcept.obj
 0002:000132ec       $unwind$png_gamma_8bit_correct 00000001800532ec     libpng:png.obj
 0002:000132ec       $unwind$tolower            00000001800532ec     libucrt:tolower_toupper.obj
 0002:000132ec       $unwind$uninitialize_allocated_io_buffers 00000001800532ec     libucrt:initialization.obj
 0002:000132ec       $unwind$__scrt_initialize_default_local_stdio_options 00000001800532ec     LIBCMT:default_local_stdio_options.obj
 0002:000132ec       $unwind$?__c32rtomb_utf8@__crt_mbstring@@YA_KPEAD_UPEAU_Mbstatet@@@Z 00000001800532ec     libucrt:c32rtomb.obj
 0002:000132ec       $unwind$_fileno            00000001800532ec     libucrt:fileno.obj
 0002:000132ec       $unwind$png_gamma_correct  00000001800532ec     libpng:png.obj
 0002:000132ec       $unwind$_strnicmp          00000001800532ec     libucrt:strnicmp.obj
 0002:000132ec       $unwind$?DloadReleaseSectionWriteAccess@@YAXXZ 00000001800532ec     DelayImp:delayhlp.obj
 0002:000132ec       $unwind$__GSHandlerCheck   00000001800532ec     LIBCMT:gshandler.obj
 0002:000132ec       $unwind$_GetImageBase      00000001800532ec     libvcruntime:risctrnsctrl.obj
 0002:000132ec       $unwind$_GetThrowImageBase 00000001800532ec     libvcruntime:risctrnsctrl.obj
 0002:000132ec       $unwind$?state_case_size@?$output_processor@_WV?$stream_output_adapter@_W@__crt_stdio_output@@V?$standard_base@_WV?$stream_output_adapter@_W@__crt_stdio_output@@@2@@__crt_stdio_output@@AEAA_NXZ 00000001800532ec     libucrt:output.obj
 0002:000132ec       $unwind$__std_terminate    00000001800532ec     libvcruntime:ehhelpers.obj
 0002:000132ec       $unwind$__FrameUnwindFilter 00000001800532ec     libvcruntime:ehhelpers.obj
 0002:000132ec       $unwind$png_longjmp        00000001800532ec     libpng:pngerror.obj
 0002:000132ec       $unwind$_purecall          00000001800532ec     libvcruntime:purevirt.obj
 0002:000132ec       $unwind$__vcrt_initialize  00000001800532ec     libvcruntime:initialization.obj
 0002:000132ec       $unwind$__vcrt_uninitialize 00000001800532ec     libvcruntime:initialization.obj
 0002:000132ec       $unwind$__vcrt_uninitialize_critical 00000001800532ec     libvcruntime:initialization.obj
 0002:000132ec       $unwind$_invoke_watson     00000001800532ec     libucrt:invalid_parameter.obj
 0002:000132ec       $unwind$__vcrt_thread_attach 00000001800532ec     libvcruntime:initialization.obj
 0002:000132ec       $unwind$png_benign_error   00000001800532ec     libpng:pngerror.obj
 0002:000132ec       $unwind$__vcrt_thread_detach 00000001800532ec     libvcruntime:initialization.obj
 0002:000132ec       $unwind$?_Xlen@?$basic_string@DU?$char_traits@D@std@@V?$allocator@D@2@@std@@SAXXZ 00000001800532ec     PngImgAdapter.obj
 0002:000132ec       $unwind$__vcrt_uninitialize_ptd 00000001800532ec     libvcruntime:per_thread_data.obj
 0002:000132ec       $unwind$_set_error_mode    00000001800532ec     libucrt:set_error_mode.obj
 0002:000132ec       $unwind$__vcrt_getptd      00000001800532ec     libvcruntime:per_thread_data.obj
 0002:000132ec       $unwind$__vcrt_freefls     00000001800532ec     libvcruntime:per_thread_data.obj
 0002:000132ec       $unwind$?GetCurrentState@__FrameHandler3@@SAHPEA_KPEAU_xDISPATCHER_CONTEXT@@PEBU_s_FuncInfo@@@Z 00000001800532ec     libvcruntime:ehstate.obj
 0002:000132ec       $unwind$__acrt_release_locale_ref 00000001800532ec     libucrt:locale_refcounting.obj
 0002:000132ec       $unwind$?state_case_size@?$output_processor@_WV?$string_output_adapter@_W@__crt_stdio_output@@V?$standard_base@_WV?$string_output_adapter@_W@__crt_stdio_output@@@2@@__crt_stdio_output@@AEAA_NXZ 00000001800532ec     libucrt:output.obj
 0002:000132f4       $unwind$??0PngStruct@@IEAA@V?$function@$$A6APEAUpng_struct_def@@PEBDPEAXP6AXPEAU1@0@Z3@Z@std@@V?$function@$$A6AXPEAPEAUpng_struct_def@@PEAPEAUpng_info_def@@@Z@2@@Z 00000001800532f4     PngImg.obj
 0002:0001330c       $stateUnwindMap$??0PngStruct@@IEAA@V?$function@$$A6APEAUpng_struct_def@@PEBDPEAXP6AXPEAU1@0@Z3@Z@std@@V?$function@$$A6AXPEAPEAUpng_struct_def@@PEAPEAUpng_info_def@@@Z@2@@Z 000000018005330c     PngImg.obj
 0002:00013340       $ip2state$??0PngStruct@@IEAA@V?$function@$$A6APEAUpng_struct_def@@PEBDPEAXP6AXPEAU1@0@Z3@Z@std@@V?$function@$$A6AXPEAPEAUpng_struct_def@@PEAPEAUpng_info_def@@@Z@2@@Z 0000000180053340     PngImg.obj
 0002:00013388       $unwind$??1PngStruct@@IEAA@XZ 0000000180053388     PngImg.obj
 0002:00013398       $ip2state$??1PngStruct@@IEAA@XZ 0000000180053398     PngImg.obj
 0002:000133a0       $unwind$??0PngImg@@QEAA@PEBD_K@Z 00000001800533a0     PngImg.obj
 0002:000133c8       $stateUnwindMap$??0PngImg@@QEAA@PEBD_K@Z 00000001800533c8     PngImg.obj
 0002:00013420       $ip2state$??0PngImg@@QEAA@PEBD_K@Z 0000000180053420     PngImg.obj
 0002:00013478       $unwind$??1PngImg@@QEAA@XZ 0000000180053478     PngImg.obj
 0002:00013484       $unwind$?InitStorage_@PngImg@@AEAAXXZ 0000000180053484     PngImg.obj
 0002:00013494       $unwind$?Get@PngImg@@QEBA?AV?$unique_ptr@UPxl@@U?$default_delete@UPxl@@@std@@@std@@II@Z 0000000180053494     PngImg.obj
 0002:00013494       $unwind$iswctype           0000000180053494     libucrt:iswctype.obj
 0002:000134a0       $chain$0$?Get@PngImg@@QEBA?AV?$unique_ptr@UPxl@@U?$default_delete@UPxl@@@std@@@std@@II@Z 00000001800534a0     PngImg.obj
 0002:000134b4       $chain$2$?Get@PngImg@@QEBA?AV?$unique_ptr@UPxl@@U?$default_delete@UPxl@@@std@@@std@@II@Z 00000001800534b4     PngImg.obj
 0002:000134c8       $chain$3$?Get@PngImg@@QEBA?AV?$unique_ptr@UPxl@@U?$default_delete@UPxl@@@std@@@std@@II@Z 00000001800534c8     PngImg.obj
 0002:000134d8       $unwind$?Insert@PngImg@@QEAAXAEBV1@II@Z 00000001800534d8     PngImg.obj
 0002:000134ec       $chain$3$?Insert@PngImg@@QEAAXAEBV1@II@Z 00000001800534ec     PngImg.obj
 0002:00013508       $chain$4$?Insert@PngImg@@QEAAXAEBV1@II@Z 0000000180053508     PngImg.obj
 0002:00013518       $unwind$?CopyRows_@PngImg@@AEAAXAEBV?$vector@PEAEV?$allocator@PEAE@std@@@std@@_K1II@Z 0000000180053518     PngImg.obj
 0002:0001352c       $chain$1$?CopyRows_@PngImg@@AEAAXAEBV?$vector@PEAEV?$allocator@PEAE@std@@@std@@_K1II@Z 000000018005352c     PngImg.obj
 0002:00013544       $chain$2$?CopyRows_@PngImg@@AEAAXAEBV?$vector@PEAEV?$allocator@PEAE@std@@@std@@_K1II@Z 0000000180053544     PngImg.obj
 0002:00013554       $unwind$?Rotate_@PngImg@@AEAAXV?$function@$$A6A?AUPoint@@AEBU1@AEBUImgInfo@@@Z@std@@@Z 0000000180053554     PngImg.obj
 0002:0001357c       $stateUnwindMap$?Rotate_@PngImg@@AEAAXV?$function@$$A6A?AUPoint@@AEBU1@AEBUImgInfo@@@Z@std@@@Z 000000018005357c     PngImg.obj
 0002:00013598       $ip2state$?Rotate_@PngImg@@AEAAXV?$function@$$A6A?AUPoint@@AEBU1@AEBUImgInfo@@@Z@std@@@Z 0000000180053598     PngImg.obj
 0002:000135c0       $unwind$?Write@PngImg@@QEAA_NAEBV?$basic_string@DU?$char_traits@D@std@@V?$allocator@D@2@@std@@@Z 00000001800535c0     PngImg.obj
 0002:000135e8       $stateUnwindMap$?Write@PngImg@@QEAA_NAEBV?$basic_string@DU?$char_traits@D@std@@V?$allocator@D@2@@std@@@Z 00000001800535e8     PngImg.obj
 0002:00013660       $ip2state$?Write@PngImg@@QEAA_NAEBV?$basic_string@DU?$char_traits@D@std@@V?$allocator@D@2@@std@@@Z 0000000180053660     PngImg.obj
 0002:000136b0       $unwind$??0?$vector@PEAEV?$allocator@PEAE@std@@@std@@QEAA@AEBV01@@Z 00000001800536b0     PngImg.obj
 0002:000136c0       $chain$0$??0?$vector@PEAEV?$allocator@PEAE@std@@@std@@QEAA@AEBV01@@Z 00000001800536c0     PngImg.obj
 0002:000136d4       $chain$1$??0?$vector@PEAEV?$allocator@PEAE@std@@@std@@QEAA@AEBV01@@Z 00000001800536d4     PngImg.obj
 0002:000136e4       $unwind$??$_Resize@V<lambda_9dca8f4b3cdbd0d84484b3531e3d6dd6>@@@?$vector@PEAEV?$allocator@PEAE@std@@@std@@AEAAX_KV<lambda_9dca8f4b3cdbd0d84484b3531e3d6dd6>@@@Z 00000001800536e4     PngImg.obj
 0002:000136f4       $chain$1$??$_Resize@V<lambda_9dca8f4b3cdbd0d84484b3531e3d6dd6>@@@?$vector@PEAEV?$allocator@PEAE@std@@@std@@AEAAX_KV<lambda_9dca8f4b3cdbd0d84484b3531e3d6dd6>@@@Z 00000001800536f4     PngImg.obj
 0002:0001370c       $chain$4$??$_Resize@V<lambda_9dca8f4b3cdbd0d84484b3531e3d6dd6>@@@?$vector@PEAEV?$allocator@PEAE@std@@@std@@AEAAX_KV<lambda_9dca8f4b3cdbd0d84484b3531e3d6dd6>@@@Z 000000018005370c     PngImg.obj
 0002:0001370c       $chain$2$??$_Resize@V<lambda_9dca8f4b3cdbd0d84484b3531e3d6dd6>@@@?$vector@PEAEV?$allocator@PEAE@std@@@std@@AEAAX_KV<lambda_9dca8f4b3cdbd0d84484b3531e3d6dd6>@@@Z 000000018005370c     PngImg.obj
 0002:0001371c       $chain$3$??$_Resize@V<lambda_9dca8f4b3cdbd0d84484b3531e3d6dd6>@@@?$vector@PEAEV?$allocator@PEAE@std@@@std@@AEAAX_KV<lambda_9dca8f4b3cdbd0d84484b3531e3d6dd6>@@@Z 000000018005371c     PngImg.obj
 0002:00013734       $unwind$?parse_int_from_format_string@?$output_processor@_WV?$string_output_adapter@_W@__crt_stdio_output@@V?$standard_base@_WV?$string_output_adapter@_W@__crt_stdio_output@@@2@@__crt_stdio_output@@AEAA_NQEAH@Z 0000000180053734     libucrt:output.obj
 0002:00013734       $unwind$?parse_int_from_format_string@?$output_processor@_WV?$stream_output_adapter@_W@__crt_stdio_output@@V?$standard_base@_WV?$stream_output_adapter@_W@__crt_stdio_output@@@2@@__crt_stdio_output@@AEAA_NQEAH@Z 0000000180053734     libucrt:output.obj
 0002:00013734       $unwind$??$_Resize@V<lambda_ff6d807a18974217bb88e503912aa51c>@@@?$vector@PEAEV?$allocator@PEAE@std@@@std@@AEAAX_KV<lambda_ff6d807a18974217bb88e503912aa51c>@@@Z 0000000180053734     PngImg.obj
 0002:00013748       $chain$0$??$_Resize@V<lambda_ff6d807a18974217bb88e503912aa51c>@@@?$vector@PEAEV?$allocator@PEAE@std@@@std@@AEAAX_KV<lambda_ff6d807a18974217bb88e503912aa51c>@@@Z 0000000180053748     PngImg.obj
 0002:0001375c       $chain$3$??$_Resize@V<lambda_ff6d807a18974217bb88e503912aa51c>@@@?$vector@PEAEV?$allocator@PEAE@std@@@std@@AEAAX_KV<lambda_ff6d807a18974217bb88e503912aa51c>@@@Z 000000018005375c     PngImg.obj
 0002:0001375c       $chain$1$??$_Resize@V<lambda_ff6d807a18974217bb88e503912aa51c>@@@?$vector@PEAEV?$allocator@PEAE@std@@@std@@AEAAX_KV<lambda_ff6d807a18974217bb88e503912aa51c>@@@Z 000000018005375c     PngImg.obj
 0002:0001376c       $chain$2$??$_Resize@V<lambda_ff6d807a18974217bb88e503912aa51c>@@@?$vector@PEAEV?$allocator@PEAE@std@@@std@@AEAAX_KV<lambda_ff6d807a18974217bb88e503912aa51c>@@@Z 000000018005376c     PngImg.obj
 0002:00013780       $unwind$_seh_filter_exe    0000000180053780     libucrt:exception_filter.obj
 0002:00013780       $unwind$__acrt_lowio_create_handle_array 0000000180053780     libucrt:osfinfo.obj
 0002:00013780       $unwind$?setSBCS@@YAXPEAU__crt_multibyte_data@@@Z 0000000180053780     libucrt:mbctype.obj
 0002:00013780       $unwind$png_handle_unknown 0000000180053780     libpng:pngrutil.obj
 0002:00013780       $unwind$?find_or_allocate_unused_stream_nolock@@YA?AV__crt_stdio_stream@@XZ 0000000180053780     libucrt:stream.obj
 0002:00013780       $unwind$_initterm          0000000180053780     libucrt:initterm.obj
 0002:00013780       $unwind$?_Change_array@?$vector@PEAEV?$allocator@PEAE@std@@@std@@AEAAXQEAPEAE_K1@Z 0000000180053780     PngImg.obj
 0002:00013780       $unwind$__acrt_show_wide_message_box 0000000180053780     libucrt:crtmbox.obj
 0002:00013780       $unwind$__scrt_dllmain_exception_filter 0000000180053780     LIBCMT:utility.obj
 0002:00013780       $unwind$??$ensure_buffer_is_big_enough@D@formatting_buffer@__crt_stdio_output@@QEAA_N_K@Z 0000000180053780     libucrt:output.obj
 0002:00013780       $unwind$_wassert           0000000180053780     libucrt:assert.obj
 0002:00013780       $unwind$png_read_buffer    0000000180053780     libpng:pngrutil.obj
 0002:00013780       $unwind$??$common_xtox@K_W@@YAHKQEA_W_KI_N@Z 0000000180053780     libucrt:xtoa.obj
 0002:00013780       $unwind$?Is_bad_exception_allowed@@YAEPEBU_s_ESTypeList@@@Z 0000000180053780     libvcruntime:frame.obj
 0002:00013780       $unwind$_recalloc_base     0000000180053780     libucrt:recalloc.obj
 0002:00013780       $unwind$png_check_IHDR     0000000180053780     libpng:png.obj
 0002:00013780       $unwind$??$ensure_buffer_is_big_enough@_W@formatting_buffer@__crt_stdio_output@@QEAA_N_K@Z 0000000180053780     libucrt:output.obj
 0002:00013780       $unwind$__acrt_free_locale 0000000180053780     libucrt:locale_refcounting.obj
 0002:00013780       $unwind$?GetHandlerSearchState@__FrameHandler3@@SAHPEA_KPEAU_xDISPATCHER_CONTEXT@@PEBU_s_FuncInfo@@@Z 0000000180053780     libvcruntime:frame.obj
 0002:00013780       $unwind$png_colorspace_check_gamma 0000000180053780     libpng:png.obj
 0002:00013794       $unwind$?_Do_call@?$_Func_impl_no_alloc@P6APEAUpng_struct_def@@PEBDPEAXP6AXPEAU1@0@Z3@ZPEAU1@PEBDPEAXP6AX20@ZP6AX20@Z@std@@EEAAPEAUpng_struct_def@@$$QEAPEBD$$QEAPEAX$$QEAP6AXPEAU3@PEBD@Z4@Z 0000000180053794     PngImg.obj
 0002:000137a8       $ip2state$?_Do_call@?$_Func_impl_no_alloc@P6APEAUpng_struct_def@@PEBDPEAXP6AXPEAU1@0@Z3@ZPEAU1@PEBDPEAXP6AX20@ZP6AX20@Z@std@@EEAAPEAUpng_struct_def@@$$QEAPEBD$$QEAPEAX$$QEAP6AXPEAU3@PEBD@Z4@Z 00000001800537a8     PngImg.obj
 0002:000137b0       $unwind$?_Do_call@?$_Func_impl_no_alloc@V<lambda_2a721ab91676828147c5c332544348da>@@XPEAPEAUpng_struct_def@@PEAPEAUpng_info_def@@@std@@EEAAX$$QEAPEAPEAUpng_struct_def@@$$QEAPEAPEAUpng_info_def@@@Z 00000001800537b0     PngImg.obj
 0002:000137c8       $ip2state$?_Do_call@?$_Func_impl_no_alloc@V<lambda_2a721ab91676828147c5c332544348da>@@XPEAPEAUpng_struct_def@@PEAPEAUpng_info_def@@@std@@EEAAX$$QEAPEAPEAUpng_struct_def@@$$QEAPEAPEAUpng_info_def@@@Z 00000001800537c8     PngImg.obj
 0002:000137e0       $unwind$?_Do_call@?$_Func_impl_no_alloc@V<lambda_b270b1f630724084d5f3bb877471ea65>@@XPEAPEAUpng_struct_def@@PEAPEAUpng_info_def@@@std@@EEAAX$$QEAPEAPEAUpng_struct_def@@$$QEAPEAPEAUpng_info_def@@@Z 00000001800537e0     PngImg.obj
 0002:000137f8       $ip2state$?_Do_call@?$_Func_impl_no_alloc@V<lambda_b270b1f630724084d5f3bb877471ea65>@@XPEAPEAUpng_struct_def@@PEAPEAUpng_info_def@@@std@@EEAAX$$QEAPEAPEAUpng_struct_def@@$$QEAPEAPEAUpng_info_def@@@Z 00000001800537f8     PngImg.obj
 0002:00013810       $unwind$?_Do_call@?$_Func_impl_no_alloc@V<lambda_b49605ea95fa7d5d6d7c78acb7625195>@@UPoint@@AEBU2@AEBUImgInfo@@@std@@EEAA?AUPoint@@AEBU3@AEBUImgInfo@@@Z 0000000180053810     PngImg.obj
 0002:00013810       $unwind$strrchr            0000000180053810     libvcruntime:strrchr.obj
 0002:00013810       $unwind$?_Do_call@?$_Func_impl_no_alloc@V<lambda_2c6c8b47390943ff5f68d13b30202b25>@@UPoint@@AEBU2@AEBUImgInfo@@@std@@EEAA?AUPoint@@AEBU3@AEBUImgInfo@@@Z 0000000180053810     PngImg.obj
 0002:00013818       $unwind$png_sig_cmp        0000000180053818     libpng:png.obj
 0002:00013828       $unwind$png_calculate_crc  0000000180053828     libpng:png.obj
 0002:00013838       $chain$1$png_calculate_crc 0000000180053838     libpng:png.obj
 0002:00013850       $chain$2$png_calculate_crc 0000000180053850     libpng:png.obj
 0002:00013860       $unwind$png_user_version_check 0000000180053860     libpng:png.obj
 0002:00013870       $unwind$png_create_png_struct 0000000180053870     libpng:png.obj
 0002:00013890       $unwind$png_destroy_info_struct 0000000180053890     libpng:png.obj
 0002:00013898       $chain$0$png_destroy_info_struct 0000000180053898     libpng:png.obj
 0002:000138ac       $chain$2$png_destroy_info_struct 00000001800538ac     libpng:png.obj
 0002:000138c0       $chain$3$png_destroy_info_struct 00000001800538c0     libpng:png.obj
 0002:000138d0       $unwind$png_free_data      00000001800538d0     libpng:png.obj
 0002:000138e0       $chain$1$png_free_data     00000001800538e0     libpng:png.obj
 0002:000138f8       $chain$2$png_free_data     00000001800538f8     libpng:png.obj
 0002:0001390c       $chain$3$png_free_data     000000018005390c     libpng:png.obj
 0002:0001391c       $unwind$png_chunk_unknown_handling 000000018005391c     libpng:png.obj
 0002:0001392c       $unwind$png_xy_from_XYZ    000000018005392c     libpng:png.obj
 0002:0001395c       $unwind$png_XYZ_from_xy    000000018005395c     libpng:png.obj
 0002:00013984       $unwind$__acrt_stdio_refill_and_read_narrow_nolock 0000000180053984     libucrt:_filbuf.obj
 0002:00013984       $unwind$_free_osfhnd       0000000180053984     libucrt:osfinfo.obj
 0002:00013984       $unwind$__std_exception_copy 0000000180053984     libvcruntime:std_exception.obj
 0002:00013984       $unwind$png_colorspace_set_xy_and_XYZ 0000000180053984     libpng:png.obj
 0002:00013984       $unwind$?initialize_stdio_handles_nolock@@YAXXZ 0000000180053984     libucrt:ioinit.obj
 0002:00013998       $unwind$png_colorspace_set_chromaticities 0000000180053998     libpng:png.obj
 0002:000139b0       $unwind$png_icc_profile_error 00000001800539b0     libpng:png.obj
 0002:000139d0       $unwind$png_build_gamma_table 00000001800539d0     libpng:png.obj
 0002:000139d0       $unwind$png_colorspace_set_sRGB 00000001800539d0     libpng:png.obj
 0002:000139d0       $unwind$strpbrk            00000001800539d0     libucrt:strpbrk.obj
 0002:000139e0       $unwind$png_icc_check_header 00000001800539e0     libpng:png.obj
 0002:000139e0       $unwind$_invalid_parameter 00000001800539e0     libucrt:invalid_parameter.obj
 0002:000139e0       $unwind$??$__acrt_convert_wcs_mbs@_WD$$A6A_KPEADPEB_W_KPEAU__crt_locale_pointers@@@ZU__crt_win32_buffer_no_resizing@@@@YAHQEB_WAEAV?$__crt_win32_buffer@DU__crt_win32_buffer_no_resizing@@@@A6A_KPEADPEB_W_KPEAU__crt_locale_pointers@@@Z5@Z 00000001800539e0     libucrt:findnextfilea.obj
 0002:000139e0       $unwind$__acrt_MessageBoxW 00000001800539e0     libucrt:winapi_thunks.obj
 0002:000139e0       $unwind$??$__acrt_mbs_to_wcs_cp@U__crt_win32_buffer_internal_dynamic_resizing@@@@YAHQEBDAEAV?$__crt_win32_buffer@_WU__crt_win32_buffer_internal_dynamic_resizing@@@@I@Z 00000001800539e0     libucrt:unlink.obj
 0002:000139f4       $unwind$png_icc_check_tag_table 00000001800539f4     libpng:png.obj
 0002:00013a0c       $unwind$png_compare_ICC_profile_with_sRGB 0000000180053a0c     libpng:png.obj
 0002:00013a0c       $unwind$_tr_flush_block    0000000180053a0c     zlib:trees.obj
 0002:00013a0c       $unwind$png_write_compressed_data_out 0000000180053a0c     libpng:pngwutil.obj
 0002:00013a0c       $unwind$png_cache_unknown_chunk 0000000180053a0c     libpng:pngrutil.obj
 0002:00013a24       $unwind$flush_pending      0000000180053a24     zlib:deflate.obj
 0002:00013a24       $unwind$memcpy_s           0000000180053a24     libucrt:cfout.obj
 0002:00013a24       $unwind$_DllMainCRTStartup 0000000180053a24     LIBCMT:dll_dllmain.obj
 0002:00013a24       $unwind$?type_case_n@?$output_processor@DV?$stream_output_adapter@D@__crt_stdio_output@@V?$standard_base@DV?$stream_output_adapter@D@__crt_stdio_output@@@2@@__crt_stdio_output@@AEAA_NXZ 0000000180053a24     libucrt:output.obj
 0002:00013a24       $unwind$png_icc_set_sRGB   0000000180053a24     libpng:png.obj
 0002:00013a24       $unwind$??0_LocaleUpdate@@QEAA@QEAU__crt_locale_pointers@@@Z 0000000180053a24     libucrt:strtox.obj
 0002:00013a24       $unwind$??$common_lseek_nolock@_J@@YA_JH_JH@Z 0000000180053a24     libucrt:lseek.obj
 0002:00013a24       $unwind$png_calloc         0000000180053a24     libpng:pngmem.obj
 0002:00013a24       $unwind$?CatchTryBlock@__FrameHandler3@@SAPEBU_s_TryBlockMapEntry@@PEBU_s_FuncInfo@@H@Z 0000000180053a24     libvcruntime:risctrnsctrl.obj
 0002:00013a24       $unwind$__acrt_stdio_flush_nolock 0000000180053a24     libucrt:fflush.obj
 0002:00013a24       $unwind$?type_case_n@?$output_processor@_WV?$stream_output_adapter@_W@__crt_stdio_output@@V?$standard_base@_WV?$stream_output_adapter@_W@__crt_stdio_output@@@2@@__crt_stdio_output@@AEAA_NXZ 0000000180053a24     libucrt:output.obj
 0002:00013a24       $unwind$?type_case_n@?$output_processor@_WV?$string_output_adapter@_W@__crt_stdio_output@@V?$standard_base@_WV?$string_output_adapter@_W@__crt_stdio_output@@@2@@__crt_stdio_output@@AEAA_NXZ 0000000180053a24     libucrt:output.obj
 0002:00013a24       $unwind$__acrt_stdio_flush_and_write_wide_nolock 0000000180053a24     libucrt:_flsbuf.obj
 0002:00013a24       $unwind$png_write_complete_chunk 0000000180053a24     libpng:pngwutil.obj
 0002:00013a24       $unwind$__acrt_stdio_flush_and_write_narrow_nolock 0000000180053a24     libucrt:_flsbuf.obj
 0002:00013a24       $unwind$_exception_enabled 0000000180053a24     libucrt:libm_error.obj
 0002:00013a24       $unwind$__acrt_execute_initializers 0000000180053a24     libucrt:shared_initialization.obj
 0002:00013a24       $unwind$?type_case_s@?$output_processor@_WV?$string_output_adapter@_W@__crt_stdio_output@@V?$standard_base@_WV?$string_output_adapter@_W@__crt_stdio_output@@@2@@__crt_stdio_output@@AEAA_NXZ 0000000180053a24     libucrt:output.obj
 0002:00013a24       $unwind$??$__acrt_stdio_parse_mode@D@@YA?AU__acrt_stdio_stream_mode@@QEBD@Z 0000000180053a24     libucrt:openfile.obj
 0002:00013a24       $unwind$memcpy_s           0000000180053a24     libucrt:atof.obj
 0002:00013a24       $unwind$send_all_trees     0000000180053a24     zlib:trees.obj
 0002:00013a24       $unwind$?FrameUnwindToEmptyState@__FrameHandler3@@SAXPEA_KPEAU_xDISPATCHER_CONTEXT@@PEBU_s_FuncInfo@@@Z 0000000180053a24     libvcruntime:risctrnsctrl.obj
 0002:00013a24       $unwind$?free_crt_array_internal@@YAXQEAPEBX_K@Z 0000000180053a24     libucrt:inittime.obj
 0002:00013a24       $unwind$__acrt_InitializeCriticalSectionEx 0000000180053a24     libucrt:winapi_thunks.obj
 0002:00013a24       $unwind$??R<lambda_96f4279ff90247a4c5c5d9824f56f8c1>@@QEBA_KXZ 0000000180053a24     libucrt:fwrite.obj
 0002:00013a24       $unwind$?type_case_s@?$output_processor@_WV?$stream_output_adapter@_W@__crt_stdio_output@@V?$standard_base@_WV?$stream_output_adapter@_W@__crt_stdio_output@@@2@@__crt_stdio_output@@AEAA_NXZ 0000000180053a24     libucrt:output.obj
 0002:00013a24       $unwind$?type_case_Z@?$output_processor@_WV?$string_output_adapter@_W@__crt_stdio_output@@V?$standard_base@_WV?$string_output_adapter@_W@__crt_stdio_output@@@2@@__crt_stdio_output@@AEAA_NXZ 0000000180053a24     libucrt:output.obj
 0002:00013a24       $unwind$__vcrt_getptd_noexit 0000000180053a24     libvcruntime:per_thread_data.obj
 0002:00013a24       $unwind$?type_case_Z@?$output_processor@_WV?$stream_output_adapter@_W@__crt_stdio_output@@V?$standard_base@_WV?$stream_output_adapter@_W@__crt_stdio_output@@@2@@__crt_stdio_output@@AEAA_NXZ 0000000180053a24     libucrt:output.obj
 0002:00013a24       $unwind$__vcrt_InitializeCriticalSectionEx 0000000180053a24     libvcruntime:winapi_downlevel.obj
 0002:00013a34       $unwind$png_colorspace_set_rgb_coefficients 0000000180053a34     libpng:png.obj
 0002:00013a3c       $chain$5$png_colorspace_set_rgb_coefficients 0000000180053a3c     libpng:png.obj
 0002:00013a64       $chain$6$png_colorspace_set_rgb_coefficients 0000000180053a64     libpng:png.obj
 0002:00013a74       $chain$7$png_colorspace_set_rgb_coefficients 0000000180053a74     libpng:png.obj
 0002:00013a9c       $unwind$png_check_fp_number 0000000180053a9c     libpng:png.obj
 0002:00013aac       $chain$0$png_check_fp_number 0000000180053aac     libpng:png.obj
 0002:00013ac0       $chain$1$png_check_fp_number 0000000180053ac0     libpng:png.obj
 0002:00013ad0       $unwind$png_build_16bit_table 0000000180053ad0     libpng:png.obj
 0002:00013ae8       $chain$3$png_build_16bit_table 0000000180053ae8     libpng:png.obj
 0002:00013b08       $chain$4$png_build_16bit_table 0000000180053b08     libpng:png.obj
 0002:00013b18       $chain$5$png_build_16bit_table 0000000180053b18     libpng:png.obj
 0002:00013b38       $unwind$png_build_16to8_table 0000000180053b38     libpng:png.obj
 0002:00013b50       $chain$2$png_build_16to8_table 0000000180053b50     libpng:png.obj
 0002:00013b6c       $chain$3$png_build_16to8_table 0000000180053b6c     libpng:png.obj
 0002:00013b7c       $unwind$png_build_8bit_table 0000000180053b7c     libpng:png.obj
 0002:00013b94       $chain$2$png_build_8bit_table 0000000180053b94     libpng:png.obj
 0002:00013bb0       $chain$5$png_build_8bit_table 0000000180053bb0     libpng:png.obj
 0002:00013bb0       $chain$3$png_build_8bit_table 0000000180053bb0     libpng:png.obj
 0002:00013bc0       $chain$4$png_build_8bit_table 0000000180053bc0     libpng:png.obj
 0002:00013bdc       $unwind$png_destroy_gamma_table 0000000180053bdc     libpng:png.obj
 0002:00013bf4       $chain$0$png_build_gamma_table 0000000180053bf4     libpng:png.obj
 0002:00013c08       $chain$1$png_build_gamma_table 0000000180053c08     libpng:png.obj
 0002:00013c18       $unwind$write_unknown_chunks 0000000180053c18     libpng:pngwrite.obj
 0002:00013c28       $chain$0$write_unknown_chunks 0000000180053c28     libpng:pngwrite.obj
 0002:00013c3c       $chain$1$write_unknown_chunks 0000000180053c3c     libpng:pngwrite.obj
 0002:00013c4c       $chain$2$write_unknown_chunks 0000000180053c4c     libpng:pngwrite.obj
 0002:00013c60       $unwind$png_write_info_before_PLTE 0000000180053c60     libpng:pngwrite.obj
 0002:00013c74       $chain$2$png_write_info_before_PLTE 0000000180053c74     libpng:pngwrite.obj
 0002:00013c90       $chain$3$png_write_info_before_PLTE 0000000180053c90     libpng:pngwrite.obj
 0002:00013ca0       $chain$4$png_write_info_before_PLTE 0000000180053ca0     libpng:pngwrite.obj
 0002:00013cbc       $unwind$png_write_info     0000000180053cbc     libpng:pngwrite.obj
 0002:00013cd4       $chain$0$png_write_info    0000000180053cd4     libpng:pngwrite.obj
 0002:00013ce8       $chain$3$png_write_info    0000000180053ce8     libpng:pngwrite.obj
 0002:00013d04       $chain$4$png_write_info    0000000180053d04     libpng:pngwrite.obj
 0002:00013d18       $chain$5$png_write_info    0000000180053d18     libpng:pngwrite.obj
 0002:00013d28       $chain$6$png_write_info    0000000180053d28     libpng:pngwrite.obj
 0002:00013d48       $chain$7$png_write_info    0000000180053d48     libpng:pngwrite.obj
 0002:00013d58       $chain$8$png_write_info    0000000180053d58     libpng:pngwrite.obj
 0002:00013d6c       $chain$9$png_write_info    0000000180053d6c     libpng:pngwrite.obj
 0002:00013d8c       $chain$10$png_write_info   0000000180053d8c     libpng:pngwrite.obj
 0002:00013db0       $unwind$png_write_end      0000000180053db0     libpng:pngwrite.obj
 0002:00013dbc       $chain$1$png_write_end     0000000180053dbc     libpng:pngwrite.obj
 0002:00013dd4       $chain$5$png_write_end     0000000180053dd4     libpng:pngwrite.obj
 0002:00013dd4       $chain$2$png_write_end     0000000180053dd4     libpng:pngwrite.obj
 0002:00013de4       $chain$3$png_write_end     0000000180053de4     libpng:pngwrite.obj
 0002:00013dfc       $chain$4$png_write_end     0000000180053dfc     libpng:pngwrite.obj
 0002:00013e10       $unwind$isdigit            0000000180053e10     libucrt:_ctype.obj
 0002:00013e10       $unwind$?getSystemCP@@YAHH@Z 0000000180053e10     libucrt:mbctype.obj
 0002:00013e10       $unwind$png_create_read_struct 0000000180053e10     libpng:pngread.obj
 0002:00013e10       $unwind$_isleadbyte_l      0000000180053e10     libucrt:_wctype.obj
 0002:00013e10       $unwind$__scrt_initialize_onexit_tables 0000000180053e10     LIBCMT:utility.obj
 0002:00013e10       $unwind$__dcrt_lowio_ensure_console_output_initialized 0000000180053e10     libucrt:initcon.obj
 0002:00013e10       $unwind$png_create_write_struct 0000000180053e10     libpng:pngwrite.obj
 0002:00013e18       $unwind$png_write_row      0000000180053e18     libpng:pngwrite.obj
 0002:00013e2c       $chain$0$png_write_row     0000000180053e2c     libpng:pngwrite.obj
 0002:00013e40       $chain$1$png_write_row     0000000180053e40     libpng:pngwrite.obj
 0002:00013e40       $chain$3$png_write_row     0000000180053e40     libpng:pngwrite.obj
 0002:00013e50       $chain$2$png_write_row     0000000180053e50     libpng:pngwrite.obj
 0002:00013e64       $chain$0$png_write_destroy 0000000180053e64     libpng:pngwrite.obj
 0002:00013e78       $chain$1$png_write_destroy 0000000180053e78     libpng:pngwrite.obj
 0002:00013e88       $unwind$fprintf            0000000180053e88     libpng:pngerror.obj
 0002:00013e88       $unwind$fwprintf           0000000180053e88     libucrt:assert.obj
 0002:00013e94       $unwind$png_warning        0000000180053e94     libpng:pngerror.obj
 0002:00013ea0       $unwind$png_formatted_warning 0000000180053ea0     libpng:pngerror.obj
 0002:00013ebc       $unwind$png_format_buffer  0000000180053ebc     libpng:pngerror.obj
 0002:00013ed0       $unwind$png_chunk_error    0000000180053ed0     libpng:pngerror.obj
 0002:00013edc       $unwind$png_chunk_warning  0000000180053edc     libpng:pngerror.obj
 0002:00013ef0       $chain$0$png_chunk_warning 0000000180053ef0     libpng:pngerror.obj
 0002:00013f04       $chain$1$png_chunk_warning 0000000180053f04     libpng:pngerror.obj
 0002:00013f14       $unwind$png_free_jmpbuf    0000000180053f14     libpng:pngerror.obj
 0002:00013f2c       $unwind$png_read_info      0000000180053f2c     libpng:pngread.obj
 0002:00013f38       $chain$2$png_read_info     0000000180053f38     libpng:pngread.obj
 0002:00013f54       $chain$3$png_read_info     0000000180053f54     libpng:pngread.obj
 0002:00013f64       $chain$4$png_read_info     0000000180053f64     libpng:pngread.obj
 0002:00013f80       $unwind$png_read_row       0000000180053f80     libpng:pngread.obj
 0002:00013f94       $chain$0$png_read_row      0000000180053f94     libpng:pngread.obj
 0002:00013fa8       $chain$1$png_read_row      0000000180053fa8     libpng:pngread.obj
 0002:00013fb8       $chain$2$png_read_row      0000000180053fb8     libpng:pngread.obj
 0002:00013fcc       $unwind$png_read_image     0000000180053fcc     libpng:pngread.obj
 0002:00013fd8       $chain$3$png_read_image    0000000180053fd8     libpng:pngread.obj
 0002:00013ff8       $chain$4$png_read_image    0000000180053ff8     libpng:pngread.obj
 0002:00014008       $unwind$??$free_environment@D@@YAXQEAPEAD@Z 0000000180054008     libucrt:environment_initialization.obj
 0002:00014008       $unwind$png_default_read_data 0000000180054008     libpng:pngrio.obj
 0002:00014008       $unwind$??$free_environment@_W@@YAXQEAPEA_W@Z 0000000180054008     libucrt:environment_initialization.obj
 0002:00014008       $unwind$png_default_write_data 0000000180054008     libpng:pngwio.obj
 0002:00014014       $unwind$png_set_IHDR       0000000180054014     libpng:pngset.obj
 0002:00014020       $unwind$png_set_pCAL       0000000180054020     libpng:pngset.obj
 0002:0001402c       $chain$0$png_set_pCAL      000000018005402c     libpng:pngset.obj
 0002:00014040       $chain$1$png_set_pCAL      0000000180054040     libpng:pngset.obj
 0002:00014054       $chain$4$png_set_pCAL      0000000180054054     libpng:pngset.obj
 0002:00014070       $chain$5$png_set_pCAL      0000000180054070     libpng:pngset.obj
 0002:00014080       $chain$6$png_set_pCAL      0000000180054080     libpng:pngset.obj
 0002:00014090       $chain$7$png_set_pCAL      0000000180054090     libpng:pngset.obj
 0002:000140a0       $chain$10$png_set_pCAL     00000001800540a0     libpng:pngset.obj
 0002:000140a0       $chain$8$png_set_pCAL      00000001800540a0     libpng:pngset.obj
 0002:000140c4       $chain$11$png_set_pCAL     00000001800540c4     libpng:pngset.obj
 0002:000140c4       $chain$9$png_set_pCAL      00000001800540c4     libpng:pngset.obj
 0002:000140e0       $unwind$png_set_sCAL_s     00000001800540e0     libpng:pngset.obj
 0002:000140f0       $chain$2$png_set_sCAL_s    00000001800540f0     libpng:pngset.obj
 0002:0001410c       $chain$6$png_set_sCAL_s    000000018005410c     libpng:pngset.obj
 0002:0001410c       $chain$3$png_set_sCAL_s    000000018005410c     libpng:pngset.obj
 0002:0001411c       $chain$7$png_set_sCAL_s    000000018005411c     libpng:pngset.obj
 0002:0001411c       $chain$4$png_set_sCAL_s    000000018005411c     libpng:pngset.obj
 0002:00014138       $chain$5$png_set_sCAL_s    0000000180054138     libpng:pngset.obj
 0002:00014150       $unwind$png_set_PLTE       0000000180054150     libpng:pngset.obj
 0002:00014150       $unwind$png_set_tRNS       0000000180054150     libpng:pngset.obj
 0002:00014164       $chain$0$png_set_PLTE      0000000180054164     libpng:pngset.obj
 0002:00014178       $chain$1$png_set_PLTE      0000000180054178     libpng:pngset.obj
 0002:00014188       $unwind$png_set_text_2     0000000180054188     libpng:pngset.obj
 0002:000141a4       $chain$0$png_set_tRNS      00000001800541a4     libpng:pngset.obj
 0002:000141b8       $chain$1$png_set_tRNS      00000001800541b8     libpng:pngset.obj
 0002:000141c8       $unwind$png_set_sPLT       00000001800541c8     libpng:pngset.obj
 0002:000141d8       $chain$0$png_set_sPLT      00000001800541d8     libpng:pngset.obj
 0002:000141ec       $chain$2$png_set_sPLT      00000001800541ec     libpng:pngset.obj
 0002:00014204       $chain$3$png_set_sPLT      0000000180054204     libpng:pngset.obj
 0002:00014214       $chain$4$png_set_sPLT      0000000180054214     libpng:pngset.obj
 0002:00014224       $chain$7$png_set_sPLT      0000000180054224     libpng:pngset.obj
 0002:00014224       $chain$5$png_set_sPLT      0000000180054224     libpng:pngset.obj
 0002:00014240       $chain$6$png_set_sPLT      0000000180054240     libpng:pngset.obj
 0002:00014254       $unwind$png_set_unknown_chunks 0000000180054254     libpng:pngset.obj
 0002:00014264       $chain$0$png_set_unknown_chunks 0000000180054264     libpng:pngset.obj
 0002:00014278       $chain$1$png_set_unknown_chunks 0000000180054278     libpng:pngset.obj
 0002:0001428c       $chain$2$png_set_unknown_chunks 000000018005428c     libpng:pngset.obj
 0002:0001429c       $chain$3$png_set_unknown_chunks 000000018005429c     libpng:pngset.obj
 0002:000142ac       $chain$4$png_set_unknown_chunks 00000001800542ac     libpng:pngset.obj
 0002:000142c4       $chain$5$png_set_unknown_chunks 00000001800542c4     libpng:pngset.obj
 0002:000142d8       $unwind$png_destroy_png_struct 00000001800542d8     libpng:pngmem.obj
 0002:000142ec       $unwind$png_realloc_array  00000001800542ec     libpng:pngmem.obj
 0002:000142fc       $chain$1$png_realloc_array 00000001800542fc     libpng:pngmem.obj
 0002:00014314       $chain$3$png_realloc_array 0000000180054314     libpng:pngmem.obj
 0002:0001432c       $chain$4$png_realloc_array 000000018005432c     libpng:pngmem.obj
 0002:0001433c       $unwind$png_do_unpack      000000018005433c     libpng:pngrtran.obj
 0002:0001433c       $unwind$png_do_strip_channel 000000018005433c     libpng:pngtrans.obj
 0002:0001433c       $unwind$png_do_check_palette_indexes 000000018005433c     libpng:pngtrans.obj
 0002:00014344       $chain$0$png_do_strip_channel 0000000180054344     libpng:pngtrans.obj
 0002:00014358       $chain$1$png_do_strip_channel 0000000180054358     libpng:pngtrans.obj
 0002:00014368       $chain$0$png_do_check_palette_indexes 0000000180054368     libpng:pngtrans.obj
 0002:0001437c       $chain$1$png_do_check_palette_indexes 000000018005437c     libpng:pngtrans.obj
 0002:0001438c       $unwind$png_write_chunk_header 000000018005438c     libpng:pngwutil.obj
 0002:000143a0       $chain$1$png_write_chunk_header 00000001800543a0     libpng:pngwutil.obj
 0002:000143b8       $chain$2$png_write_chunk_header 00000001800543b8     libpng:pngwutil.obj
 0002:000143cc       $chain$3$png_write_chunk_header 00000001800543cc     libpng:pngwutil.obj
 0002:000143dc       $chain$4$png_write_chunk_header 00000001800543dc     libpng:pngwutil.obj
 0002:000143ec       $unwind$__acrt_lowio_destroy_handle_array 00000001800543ec     libucrt:osfinfo.obj
 0002:000143ec       $unwind$png_write_chunk_data 00000001800543ec     libpng:pngwutil.obj
 0002:000143fc       $unwind$png_image_size     00000001800543fc     libpng:pngwutil.obj
 0002:00014404       $chain$2$png_image_size    0000000180054404     libpng:pngwutil.obj
 0002:00014420       $chain$3$png_image_size    0000000180054420     libpng:pngwutil.obj
 0002:00014430       $unwind$png_deflate_claim  0000000180054430     libpng:pngwutil.obj
 0002:00014448       $chain$3$png_deflate_claim 0000000180054448     libpng:pngwutil.obj
 0002:00014468       $chain$4$png_deflate_claim 0000000180054468     libpng:pngwutil.obj
 0002:00014478       $chain$5$png_deflate_claim 0000000180054478     libpng:pngwutil.obj
 0002:00014498       $unwind$png_free_buffer_list 0000000180054498     libpng:pngwutil.obj
 0002:000144a0       $chain$0$png_free_buffer_list 00000001800544a0     libpng:pngwutil.obj
 0002:000144b4       $chain$1$png_free_buffer_list 00000001800544b4     libpng:pngwutil.obj
 0002:000144c4       $unwind$png_text_compress  00000001800544c4     libpng:pngwutil.obj
 0002:000144d0       $chain$0$png_text_compress 00000001800544d0     libpng:pngwutil.obj
 0002:000144e4       $chain$4$png_text_compress 00000001800544e4     libpng:pngwutil.obj
 0002:00014504       $chain$5$png_text_compress 0000000180054504     libpng:pngwutil.obj
 0002:00014518       $chain$6$png_text_compress 0000000180054518     libpng:pngwutil.obj
 0002:00014528       $unwind$png_check_keyword  0000000180054528     libpng:pngwutil.obj
 0002:00014540       $chain$0$png_check_keyword 0000000180054540     libpng:pngwutil.obj
 0002:00014554       $chain$1$png_check_keyword 0000000180054554     libpng:pngwutil.obj
 0002:00014568       $chain$2$png_check_keyword 0000000180054568     libpng:pngwutil.obj
 0002:00014578       $chain$3$png_check_keyword 0000000180054578     libpng:pngwutil.obj
 0002:00014588       $unwind$png_write_IHDR     0000000180054588     libpng:pngwutil.obj
 0002:000145a0       $chain$1$png_write_IHDR    00000001800545a0     libpng:pngwutil.obj
 0002:000145b8       $chain$2$png_write_IHDR    00000001800545b8     libpng:pngwutil.obj
 0002:000145c8       $unwind$png_write_PLTE     00000001800545c8     libpng:pngwutil.obj
 0002:000145d4       $chain$4$png_write_PLTE    00000001800545d4     libpng:pngwutil.obj
 0002:000145f8       $chain$6$png_write_PLTE    00000001800545f8     libpng:pngwutil.obj
 0002:000145f8       $chain$8$png_write_PLTE    00000001800545f8     libpng:pngwutil.obj
 0002:0001461c       $chain$7$png_write_PLTE    000000018005461c     libpng:pngwutil.obj
 0002:0001462c       $unwind$png_compress_IDAT  000000018005462c     libpng:pngwutil.obj
 0002:0001463c       $chain$2$png_compress_IDAT 000000018005463c     libpng:pngwutil.obj
 0002:00014658       $chain$6$png_compress_IDAT 0000000180054658     libpng:pngwutil.obj
 0002:00014658       $chain$4$png_compress_IDAT 0000000180054658     libpng:pngwutil.obj
 0002:00014674       $chain$5$png_compress_IDAT 0000000180054674     libpng:pngwutil.obj
 0002:00014684       $unwind$png_write_iCCP     0000000180054684     libpng:pngwutil.obj
 0002:00014698       $chain$1$png_write_iCCP    0000000180054698     libpng:pngwutil.obj
 0002:000146b0       $chain$6$png_write_iCCP    00000001800546b0     libpng:pngwutil.obj
 0002:000146b0       $chain$3$png_write_iCCP    00000001800546b0     libpng:pngwutil.obj
 0002:000146c8       $chain$4$png_write_iCCP    00000001800546c8     libpng:pngwutil.obj
 0002:000146d8       $chain$5$png_write_iCCP    00000001800546d8     libpng:pngwutil.obj
 0002:000146ec       $unwind$png_write_sPLT     00000001800546ec     libpng:pngwutil.obj
 0002:0001470c       $chain$0$png_write_sPLT    000000018005470c     libpng:pngwutil.obj
 0002:00014720       $chain$1$png_write_sPLT    0000000180054720     libpng:pngwutil.obj
 0002:00014730       $unwind$png_write_cHRM_fixed 0000000180054730     libpng:pngwutil.obj
 0002:00014744       $unwind$png_write_tRNS     0000000180054744     libpng:pngwutil.obj
 0002:00014744       $unwind$png_write_tIME     0000000180054744     libpng:pngwutil.obj
 0002:00014754       $chain$0$png_write_tRNS    0000000180054754     libpng:pngwutil.obj
 0002:00014768       $chain$4$png_write_tRNS    0000000180054768     libpng:pngwutil.obj
 0002:00014768       $chain$2$png_write_tRNS    0000000180054768     libpng:pngwutil.obj
 0002:0001477c       $chain$3$png_write_tRNS    000000018005477c     libpng:pngwutil.obj
 0002:0001478c       $unwind$png_write_bKGD     000000018005478c     libpng:pngwutil.obj
 0002:000147a0       $unwind$png_write_hIST     00000001800547a0     libpng:pngwutil.obj
 0002:000147ac       $chain$4$png_write_hIST    00000001800547ac     libpng:pngwutil.obj
 0002:000147d0       $chain$6$png_write_hIST    00000001800547d0     libpng:pngwutil.obj
 0002:000147f4       $unwind$png_write_tEXt     00000001800547f4     libpng:pngwutil.obj
 0002:00014808       $chain$0$png_write_tEXt    0000000180054808     libpng:pngwutil.obj
 0002:0001481c       $chain$4$png_write_tEXt    000000018005481c     libpng:pngwutil.obj
 0002:0001481c       $chain$2$png_write_tEXt    000000018005481c     libpng:pngwutil.obj
 0002:00014830       $chain$3$png_write_tEXt    0000000180054830     libpng:pngwutil.obj
 0002:00014840       $unwind$png_write_zTXt     0000000180054840     libpng:pngwutil.obj
 0002:00014854       $chain$0$png_write_zTXt    0000000180054854     libpng:pngwutil.obj
 0002:00014868       $chain$3$png_write_zTXt    0000000180054868     libpng:pngwutil.obj
 0002:00014868       $chain$1$png_write_zTXt    0000000180054868     libpng:pngwutil.obj
 0002:00014878       $chain$4$png_write_zTXt    0000000180054878     libpng:pngwutil.obj
 0002:00014878       $chain$2$png_write_zTXt    0000000180054878     libpng:pngwutil.obj
 0002:0001488c       $unwind$png_write_iTXt     000000018005488c     libpng:pngwutil.obj
 0002:000148a8       $chain$2$png_write_iTXt    00000001800548a8     libpng:pngwutil.obj
 0002:000148c4       $chain$3$png_write_iTXt    00000001800548c4     libpng:pngwutil.obj
 0002:000148d4       $chain$4$png_write_iTXt    00000001800548d4     libpng:pngwutil.obj
 0002:000148f0       $unwind$png_write_pCAL     00000001800548f0     libpng:pngwutil.obj
 0002:00014908       $chain$3$png_write_pCAL    0000000180054908     libpng:pngwutil.obj
 0002:00014928       $chain$7$png_write_pCAL    0000000180054928     libpng:pngwutil.obj
 0002:00014928       $chain$5$png_write_pCAL    0000000180054928     libpng:pngwutil.obj
 0002:00014948       $chain$6$png_write_pCAL    0000000180054948     libpng:pngwutil.obj
 0002:00014958       $chain$0$png_write_finish_row 0000000180054958     libpng:pngwutil.obj
 0002:0001496c       $chain$1$png_write_finish_row 000000018005496c     libpng:pngwutil.obj
 0002:0001497c       $unwind$png_do_write_interlace 000000018005497c     libpng:pngwutil.obj
 0002:00014984       $chain$5$png_do_write_interlace 0000000180054984     libpng:pngwutil.obj
 0002:000149ac       $chain$6$png_do_write_interlace 00000001800549ac     libpng:pngwutil.obj
 0002:000149c0       $chain$7$png_do_write_interlace 00000001800549c0     libpng:pngwutil.obj
 0002:000149d0       $chain$10$png_do_write_interlace 00000001800549d0     libpng:pngwutil.obj
 0002:000149d0       $chain$8$png_do_write_interlace 00000001800549d0     libpng:pngwutil.obj
 0002:000149e0       $chain$9$png_do_write_interlace 00000001800549e0     libpng:pngwutil.obj
 0002:00014a08       $unwind$png_write_find_filter 0000000180054a08     libpng:pngwutil.obj
 0002:00014a18       $chain$5$png_write_find_filter 0000000180054a18     libpng:pngwutil.obj
 0002:00014a40       $chain$6$png_write_find_filter 0000000180054a40     libpng:pngwutil.obj
 0002:00014a50       $unwind$??$type_case_integer_parse_into_buffer@I@?$output_processor@_WV?$string_output_adapter@_W@__crt_stdio_output@@V?$standard_base@_WV?$string_output_adapter@_W@__crt_stdio_output@@@2@@__crt_stdio_output@@AEAAXII_N@Z 0000000180054a50     libucrt:output.obj
 0002:00014a50       $unwind$png_do_pack        0000000180054a50     libpng:pngwtran.obj
 0002:00014a50       $unwind$??$type_case_integer_parse_into_buffer@I@?$output_processor@DV?$stream_output_adapter@D@__crt_stdio_output@@V?$standard_base@DV?$stream_output_adapter@D@__crt_stdio_output@@@2@@__crt_stdio_output@@AEAAXII_N@Z 0000000180054a50     libucrt:output.obj
 0002:00014a50       $unwind$??$type_case_integer_parse_into_buffer@I@?$output_processor@_WV?$stream_output_adapter@_W@__crt_stdio_output@@V?$standard_base@_WV?$stream_output_adapter@_W@__crt_stdio_output@@@2@@__crt_stdio_output@@AEAAXII_N@Z 0000000180054a50     libucrt:output.obj
 0002:00014a50       $unwind$??$type_case_integer_parse_into_buffer@_K@?$output_processor@_WV?$string_output_adapter@_W@__crt_stdio_output@@V?$standard_base@_WV?$string_output_adapter@_W@__crt_stdio_output@@@2@@__crt_stdio_output@@AEAAX_KI_N@Z 0000000180054a50     libucrt:output.obj
 0002:00014a50       $unwind$__ascii_strnicmp   0000000180054a50     libucrt:strnicmp.obj
 0002:00014a50       $unwind$??$type_case_integer_parse_into_buffer@_K@?$output_processor@_WV?$stream_output_adapter@_W@__crt_stdio_output@@V?$standard_base@_WV?$stream_output_adapter@_W@__crt_stdio_output@@@2@@__crt_stdio_output@@AEAAX_KI_N@Z 0000000180054a50     libucrt:output.obj
 0002:00014a50       $unwind$??$type_case_integer_parse_into_buffer@_K@?$output_processor@DV?$stream_output_adapter@D@__crt_stdio_output@@V?$standard_base@DV?$stream_output_adapter@D@__crt_stdio_output@@@2@@__crt_stdio_output@@AEAAX_KI_N@Z 0000000180054a50     libucrt:output.obj
 0002:00014a50       $unwind$png_init_palette_transformations 0000000180054a50     libpng:pngrtran.obj
 0002:00014a50       $unwind$_tr_stored_block   0000000180054a50     zlib:trees.obj
 0002:00014a58       $unwind$png_do_shift       0000000180054a58     libpng:pngwtran.obj
 0002:00014a68       $chain$5$png_do_shift      0000000180054a68     libpng:pngwtran.obj
 0002:00014a90       $chain$6$png_do_shift      0000000180054a90     libpng:pngwtran.obj
 0002:00014aa0       $unwind$png_read_chunk_header 0000000180054aa0     libpng:pngrutil.obj
 0002:00014ab0       $chain$0$png_read_chunk_header 0000000180054ab0     libpng:pngrutil.obj
 0002:00014ac4       $chain$4$png_read_chunk_header 0000000180054ac4     libpng:pngrutil.obj
 0002:00014ae4       $chain$6$png_read_chunk_header 0000000180054ae4     libpng:pngrutil.obj
 0002:00014afc       $chain$7$png_read_chunk_header 0000000180054afc     libpng:pngrutil.obj
 0002:00014b0c       $chain$8$png_read_chunk_header 0000000180054b0c     libpng:pngrutil.obj
 0002:00014b20       $chain$9$png_read_chunk_header 0000000180054b20     libpng:pngrutil.obj
 0002:00014b30       $chain$10$png_read_chunk_header 0000000180054b30     libpng:pngrutil.obj
 0002:00014b44       $chain$11$png_read_chunk_header 0000000180054b44     libpng:pngrutil.obj
 0002:00014b5c       $unwind$png_crc_read       0000000180054b5c     libpng:pngrutil.obj
 0002:00014b68       $chain$0$png_crc_read      0000000180054b68     libpng:pngrutil.obj
 0002:00014b7c       $chain$1$png_crc_read      0000000180054b7c     libpng:pngrutil.obj
 0002:00014b8c       $unwind$png_crc_finish     0000000180054b8c     libpng:pngrutil.obj
 0002:00014bb0       $unwind$png_inflate_claim  0000000180054bb0     libpng:pngrutil.obj
 0002:00014bcc       $unwind$png_inflate        0000000180054bcc     libpng:pngrutil.obj
 0002:00014bf0       $unwind$png_decompress_chunk 0000000180054bf0     libpng:pngrutil.obj
 0002:00014c00       $chain$2$png_decompress_chunk 0000000180054c00     libpng:pngrutil.obj
 0002:00014c1c       $chain$3$png_decompress_chunk 0000000180054c1c     libpng:pngrutil.obj
 0002:00014c2c       $chain$4$png_decompress_chunk 0000000180054c2c     libpng:pngrutil.obj
 0002:00014c48       $unwind$png_inflate_read   0000000180054c48     libpng:pngrutil.obj
 0002:00014c64       $unwind$png_handle_IHDR    0000000180054c64     libpng:pngrutil.obj
 0002:00014c78       $chain$2$png_handle_IHDR   0000000180054c78     libpng:pngrutil.obj
 0002:00014c94       $chain$3$png_handle_IHDR   0000000180054c94     libpng:pngrutil.obj
 0002:00014ca8       $chain$4$png_handle_IHDR   0000000180054ca8     libpng:pngrutil.obj
 0002:00014cb8       $chain$5$png_handle_IHDR   0000000180054cb8     libpng:pngrutil.obj
 0002:00014cb8       $chain$7$png_handle_IHDR   0000000180054cb8     libpng:pngrutil.obj
 0002:00014cd0       $chain$6$png_handle_IHDR   0000000180054cd0     libpng:pngrutil.obj
 0002:00014ce0       $unwind$png_handle_PLTE    0000000180054ce0     libpng:pngrutil.obj
 0002:00014cf4       $chain$5$png_handle_PLTE   0000000180054cf4     libpng:pngrutil.obj
 0002:00014d1c       $chain$6$png_handle_PLTE   0000000180054d1c     libpng:pngrutil.obj
 0002:00014d2c       $chain$7$png_handle_PLTE   0000000180054d2c     libpng:pngrutil.obj
 0002:00014d54       $unwind$png_handle_sRGB    0000000180054d54     libpng:pngrutil.obj
 0002:00014d54       $unwind$png_handle_gAMA    0000000180054d54     libpng:pngrutil.obj
 0002:00014d60       $chain$1$png_handle_gAMA   0000000180054d60     libpng:pngrutil.obj
 0002:00014d78       $chain$3$png_handle_gAMA   0000000180054d78     libpng:pngrutil.obj
 0002:00014d90       $chain$4$png_handle_gAMA   0000000180054d90     libpng:pngrutil.obj
 0002:00014da0       $chain$5$png_handle_gAMA   0000000180054da0     libpng:pngrutil.obj
 0002:00014db0       $unwind$png_handle_sBIT    0000000180054db0     libpng:pngrutil.obj
 0002:00014dbc       $chain$1$png_handle_sBIT   0000000180054dbc     libpng:pngrutil.obj
 0002:00014dd4       $chain$3$png_handle_sBIT   0000000180054dd4     libpng:pngrutil.obj
 0002:00014dec       $chain$4$png_handle_sBIT   0000000180054dec     libpng:pngrutil.obj
 0002:00014e00       $chain$5$png_handle_sBIT   0000000180054e00     libpng:pngrutil.obj
 0002:00014e10       $chain$6$png_handle_sBIT   0000000180054e10     libpng:pngrutil.obj
 0002:00014e20       $chain$10$png_handle_sBIT  0000000180054e20     libpng:pngrutil.obj
 0002:00014e20       $chain$8$png_handle_sBIT   0000000180054e20     libpng:pngrutil.obj
 0002:00014e38       $chain$9$png_handle_sBIT   0000000180054e38     libpng:pngrutil.obj
 0002:00014e48       $unwind$png_handle_cHRM    0000000180054e48     libpng:pngrutil.obj
 0002:00014e60       $chain$2$png_handle_cHRM   0000000180054e60     libpng:pngrutil.obj
 0002:00014e7c       $chain$3$png_handle_cHRM   0000000180054e7c     libpng:pngrutil.obj
 0002:00014e90       $chain$4$png_handle_cHRM   0000000180054e90     libpng:pngrutil.obj
 0002:00014ea0       $chain$5$png_handle_cHRM   0000000180054ea0     libpng:pngrutil.obj
 0002:00014ea0       $chain$7$png_handle_cHRM   0000000180054ea0     libpng:pngrutil.obj
 0002:00014eb0       $chain$8$png_handle_cHRM   0000000180054eb0     libpng:pngrutil.obj
 0002:00014eb0       $chain$6$png_handle_cHRM   0000000180054eb0     libpng:pngrutil.obj
 0002:00014ecc       $chain$1$png_handle_sRGB   0000000180054ecc     libpng:pngrutil.obj
 0002:00014ee4       $chain$3$png_handle_sRGB   0000000180054ee4     libpng:pngrutil.obj
 0002:00014efc       $chain$4$png_handle_sRGB   0000000180054efc     libpng:pngrutil.obj
 0002:00014f0c       $chain$5$png_handle_sRGB   0000000180054f0c     libpng:pngrutil.obj
 0002:00014f1c       $unwind$png_handle_iCCP    0000000180054f1c     libpng:pngrutil.obj
 0002:00014f38       $chain$2$png_handle_iCCP   0000000180054f38     libpng:pngrutil.obj
 0002:00014f54       $chain$3$png_handle_iCCP   0000000180054f54     libpng:pngrutil.obj
 0002:00014f54       $chain$5$png_handle_iCCP   0000000180054f54     libpng:pngrutil.obj
 0002:00014f64       $chain$6$png_handle_iCCP   0000000180054f64     libpng:pngrutil.obj
 0002:00014f64       $chain$4$png_handle_iCCP   0000000180054f64     libpng:pngrutil.obj
 0002:00014f80       $unwind$png_handle_sPLT    0000000180054f80     libpng:pngrutil.obj
 0002:00014f8c       $chain$0$png_handle_sPLT   0000000180054f8c     libpng:pngrutil.obj
 0002:00014fa0       $chain$9$png_handle_sPLT   0000000180054fa0     libpng:pngrutil.obj
 0002:00014fa0       $chain$2$png_handle_sPLT   0000000180054fa0     libpng:pngrutil.obj
 0002:00014fb4       $chain$3$png_handle_sPLT   0000000180054fb4     libpng:pngrutil.obj
 0002:00014fc8       $chain$5$png_handle_sPLT   0000000180054fc8     libpng:pngrutil.obj
 0002:00014fe0       $chain$6$png_handle_sPLT   0000000180054fe0     libpng:pngrutil.obj
 0002:00014ff0       $chain$7$png_handle_sPLT   0000000180054ff0     libpng:pngrutil.obj
 0002:00015000       $chain$8$png_handle_sPLT   0000000180055000     libpng:pngrutil.obj
 0002:00015010       $unwind$png_handle_tRNS    0000000180055010     libpng:pngrutil.obj
 0002:00015028       $chain$3$png_handle_tRNS   0000000180055028     libpng:pngrutil.obj
 0002:00015048       $chain$4$png_handle_tRNS   0000000180055048     libpng:pngrutil.obj
 0002:0001505c       $chain$5$png_handle_tRNS   000000018005505c     libpng:pngrutil.obj
 0002:0001506c       $chain$9$png_handle_tRNS   000000018005506c     libpng:pngrutil.obj
 0002:0001506c       $chain$7$png_handle_tRNS   000000018005506c     libpng:pngrutil.obj
 0002:0001508c       $chain$8$png_handle_tRNS   000000018005508c     libpng:pngrutil.obj
 0002:0001509c       $unwind$png_handle_bKGD    000000018005509c     libpng:pngrutil.obj
 0002:000150b0       $chain$2$png_handle_bKGD   00000001800550b0     libpng:pngrutil.obj
 0002:000150cc       $chain$4$png_handle_bKGD   00000001800550cc     libpng:pngrutil.obj
 0002:000150e4       $chain$5$png_handle_bKGD   00000001800550e4     libpng:pngrutil.obj
 0002:000150f4       $chain$8$png_handle_bKGD   00000001800550f4     libpng:pngrutil.obj
 0002:000150f4       $chain$10$png_handle_bKGD  00000001800550f4     libpng:pngrutil.obj
 0002:000150f4       $chain$6$png_handle_bKGD   00000001800550f4     libpng:pngrutil.obj
 0002:00015108       $chain$9$png_handle_bKGD   0000000180055108     libpng:pngrutil.obj
 0002:00015108       $chain$7$png_handle_bKGD   0000000180055108     libpng:pngrutil.obj
 0002:00015108       $chain$11$png_handle_bKGD  0000000180055108     libpng:pngrutil.obj
 0002:00015118       $unwind$png_handle_hIST    0000000180055118     libpng:pngrutil.obj
 0002:0001512c       $chain$0$png_handle_hIST   000000018005512c     libpng:pngrutil.obj
 0002:00015140       $chain$5$png_handle_hIST   0000000180055140     libpng:pngrutil.obj
 0002:00015164       $chain$6$png_handle_hIST   0000000180055164     libpng:pngrutil.obj
 0002:00015174       $chain$10$png_handle_hIST  0000000180055174     libpng:pngrutil.obj
 0002:00015174       $chain$7$png_handle_hIST   0000000180055174     libpng:pngrutil.obj
 0002:00015184       $chain$8$png_handle_hIST   0000000180055184     libpng:pngrutil.obj
 0002:00015184       $chain$11$png_handle_hIST  0000000180055184     libpng:pngrutil.obj
 0002:000151ac       $chain$12$png_handle_hIST  00000001800551ac     libpng:pngrutil.obj
 0002:000151ac       $chain$9$png_handle_hIST   00000001800551ac     libpng:pngrutil.obj
 0002:000151c0       $unwind$png_handle_oFFs    00000001800551c0     libpng:pngrutil.obj
 0002:000151c0       $unwind$png_handle_tIME    00000001800551c0     libpng:pngrutil.obj
 0002:000151c0       $unwind$png_handle_pHYs    00000001800551c0     libpng:pngrutil.obj
 0002:000151d4       $chain$1$png_handle_pHYs   00000001800551d4     libpng:pngrutil.obj
 0002:000151ec       $chain$3$png_handle_pHYs   00000001800551ec     libpng:pngrutil.obj
 0002:00015204       $chain$4$png_handle_pHYs   0000000180055204     libpng:pngrutil.obj
 0002:00015214       $chain$5$png_handle_pHYs   0000000180055214     libpng:pngrutil.obj
 0002:00015224       $chain$1$png_handle_oFFs   0000000180055224     libpng:pngrutil.obj
 0002:0001523c       $chain$3$png_handle_oFFs   000000018005523c     libpng:pngrutil.obj
 0002:00015254       $chain$4$png_handle_oFFs   0000000180055254     libpng:pngrutil.obj
 0002:00015264       $chain$5$png_handle_oFFs   0000000180055264     libpng:pngrutil.obj
 0002:00015274       $unwind$png_handle_pCAL    0000000180055274     libpng:pngrutil.obj
 0002:00015280       $chain$4$png_handle_pCAL   0000000180055280     libpng:pngrutil.obj
 0002:000152a4       $chain$6$png_handle_pCAL   00000001800552a4     libpng:pngrutil.obj
 0002:000152a4       $chain$8$png_handle_pCAL   00000001800552a4     libpng:pngrutil.obj
 0002:000152c8       $chain$7$png_handle_pCAL   00000001800552c8     libpng:pngrutil.obj
 0002:000152d8       $unwind$png_handle_sCAL    00000001800552d8     libpng:pngrutil.obj
 0002:000152e4       $chain$0$png_handle_sCAL   00000001800552e4     libpng:pngrutil.obj
 0002:000152f8       $chain$2$png_handle_sCAL   00000001800552f8     libpng:pngrutil.obj
 0002:000152f8       $chain$10$png_handle_sCAL  00000001800552f8     libpng:pngrutil.obj
 0002:000152f8       $chain$4$png_handle_sCAL   00000001800552f8     libpng:pngrutil.obj
 0002:0001530c       $chain$5$png_handle_sCAL   000000018005530c     libpng:pngrutil.obj
 0002:00015320       $chain$6$png_handle_sCAL   0000000180055320     libpng:pngrutil.obj
 0002:00015330       $chain$11$png_handle_sCAL  0000000180055330     libpng:pngrutil.obj
 0002:00015330       $chain$8$png_handle_sCAL   0000000180055330     libpng:pngrutil.obj
 0002:00015348       $chain$9$png_handle_sCAL   0000000180055348     libpng:pngrutil.obj
 0002:00015358       $chain$2$png_handle_tIME   0000000180055358     libpng:pngrutil.obj
 0002:00015374       $chain$3$png_handle_tIME   0000000180055374     libpng:pngrutil.obj
 0002:00015388       $chain$4$png_handle_tIME   0000000180055388     libpng:pngrutil.obj
 0002:00015398       $chain$5$png_handle_tIME   0000000180055398     libpng:pngrutil.obj
 0002:00015398       $chain$7$png_handle_tIME   0000000180055398     libpng:pngrutil.obj
 0002:000153ac       $chain$6$png_handle_tIME   00000001800553ac     libpng:pngrutil.obj
 0002:000153ac       $chain$8$png_handle_tIME   00000001800553ac     libpng:pngrutil.obj
 0002:000153bc       $unwind$png_handle_tEXt    00000001800553bc     libpng:pngrutil.obj
 0002:000153cc       $chain$0$png_handle_tEXt   00000001800553cc     libpng:pngrutil.obj
 0002:000153e0       $chain$1$png_handle_tEXt   00000001800553e0     libpng:pngrutil.obj
 0002:000153f0       $chain$2$png_handle_tEXt   00000001800553f0     libpng:pngrutil.obj
 0002:00015404       $unwind$png_handle_zTXt    0000000180055404     libpng:pngrutil.obj
 0002:00015410       $chain$0$png_handle_zTXt   0000000180055410     libpng:pngrutil.obj
 0002:00015424       $chain$9$png_handle_zTXt   0000000180055424     libpng:pngrutil.obj
 0002:00015424       $chain$2$png_handle_zTXt   0000000180055424     libpng:pngrutil.obj
 0002:00015438       $chain$4$png_handle_zTXt   0000000180055438     libpng:pngrutil.obj
 0002:00015450       $chain$5$png_handle_zTXt   0000000180055450     libpng:pngrutil.obj
 0002:00015460       $chain$7$png_handle_zTXt   0000000180055460     libpng:pngrutil.obj
 0002:0001547c       $chain$8$png_handle_zTXt   000000018005547c     libpng:pngrutil.obj
 0002:0001548c       $unwind$png_handle_iTXt    000000018005548c     libpng:pngrutil.obj
 0002:00015498       $chain$0$png_handle_iTXt   0000000180055498     libpng:pngrutil.obj
 0002:000154ac       $chain$4$png_handle_iTXt   00000001800554ac     libpng:pngrutil.obj
 0002:000154cc       $chain$5$png_handle_iTXt   00000001800554cc     libpng:pngrutil.obj
 0002:000154dc       $chain$7$png_handle_iTXt   00000001800554dc     libpng:pngrutil.obj
 0002:00015500       $chain$8$png_handle_iTXt   0000000180055500     libpng:pngrutil.obj
 0002:00015510       $chain$9$png_handle_iTXt   0000000180055510     libpng:pngrutil.obj
 0002:00015524       $unwind$png_combine_row    0000000180055524     libpng:pngrutil.obj
 0002:00015538       $chain$1$png_combine_row   0000000180055538     libpng:pngrutil.obj
 0002:00015550       $chain$2$png_combine_row   0000000180055550     libpng:pngrutil.obj
 0002:00015560       $chain$3$png_combine_row   0000000180055560     libpng:pngrutil.obj
 0002:00015578       $unwind$png_do_read_interlace 0000000180055578     libpng:pngrutil.obj
 0002:0001558c       $chain$5$png_do_read_interlace 000000018005558c     libpng:pngrutil.obj
 0002:000155b4       $chain$6$png_do_read_interlace 00000001800555b4     libpng:pngrutil.obj
 0002:000155c4       $unwind$png_read_filter_row_paeth_1byte_pixel 00000001800555c4     libpng:pngrutil.obj
 0002:000155d8       $chain$1$png_read_filter_row_paeth_1byte_pixel 00000001800555d8     libpng:pngrutil.obj
 0002:000155f0       $chain$2$png_read_filter_row_paeth_1byte_pixel 00000001800555f0     libpng:pngrutil.obj
 0002:00015600       $unwind$png_read_filter_row_paeth_multibyte_pixel 0000000180055600     libpng:pngrutil.obj
 0002:0001560c       $chain$2$png_read_filter_row_paeth_multibyte_pixel 000000018005560c     libpng:pngrutil.obj
 0002:00015628       $chain$3$png_read_filter_row_paeth_multibyte_pixel 0000000180055628     libpng:pngrutil.obj
 0002:00015638       $unwind$png_read_IDAT_data 0000000180055638     libpng:pngrutil.obj
 0002:0001565c       $chain$1$png_read_finish_row 000000018005565c     libpng:pngrutil.obj
 0002:00015674       $chain$2$png_read_finish_row 0000000180055674     libpng:pngrutil.obj
 0002:00015684       $unwind$png_init_read_transformations 0000000180055684     libpng:pngrtran.obj
 0002:00015694       $chain$2$png_init_read_transformations 0000000180055694     libpng:pngrtran.obj
 0002:000156b0       $chain$0$png_do_unpack     00000001800556b0     libpng:pngrtran.obj
 0002:000156c4       $chain$1$png_do_unpack     00000001800556c4     libpng:pngrtran.obj
 0002:000156d8       $chain$2$png_do_unpack     00000001800556d8     libpng:pngrtran.obj
 0002:000156e8       $chain$3$png_do_unpack     00000001800556e8     libpng:pngrtran.obj
 0002:000156f8       $unwind$png_do_unshift     00000001800556f8     libpng:pngrtran.obj
 0002:0001570c       $chain$0$png_do_unshift    000000018005570c     libpng:pngrtran.obj
 0002:00015720       $chain$1$png_do_unshift    0000000180055720     libpng:pngrtran.obj
 0002:00015730       $unwind$png_do_read_filler 0000000180055730     libpng:pngrtran.obj
 0002:0001573c       $unwind$png_do_rgb_to_gray 000000018005573c     libpng:pngrtran.obj
 0002:00015748       $chain$4$png_do_rgb_to_gray 0000000180055748     libpng:pngrtran.obj
 0002:0001576c       $chain$5$png_do_rgb_to_gray 000000018005576c     libpng:pngrtran.obj
 0002:0001577c       $unwind$png_do_compose     000000018005577c     libpng:pngrtran.obj
 0002:00015794       $unwind$png_do_gamma       0000000180055794     libpng:pngrtran.obj
 0002:000157a4       $chain$0$png_do_gamma      00000001800557a4     libpng:pngrtran.obj
 0002:000157b8       $chain$2$png_do_gamma      00000001800557b8     libpng:pngrtran.obj
 0002:000157d0       $chain$3$png_do_gamma      00000001800557d0     libpng:pngrtran.obj
 0002:000157e0       $chain$5$png_do_gamma      00000001800557e0     libpng:pngrtran.obj
 0002:000157e0       $chain$7$png_do_gamma      00000001800557e0     libpng:pngrtran.obj
 0002:000157f4       $chain$8$png_do_gamma      00000001800557f4     libpng:pngrtran.obj
 0002:00015804       $unwind$png_do_expand_palette 0000000180055804     libpng:pngrtran.obj
 0002:00015814       $chain$0$png_do_expand_palette 0000000180055814     libpng:pngrtran.obj
 0002:00015828       $chain$1$png_do_expand_palette 0000000180055828     libpng:pngrtran.obj
 0002:0001583c       $chain$2$png_do_expand_palette 000000018005583c     libpng:pngrtran.obj
 0002:0001584c       $chain$4$png_do_expand_palette 000000018005584c     libpng:pngrtran.obj
 0002:00015860       $chain$5$png_do_expand_palette 0000000180055860     libpng:pngrtran.obj
 0002:00015870       $unwind$png_do_expand      0000000180055870     libpng:pngrtran.obj
 0002:00015888       $chain$0$png_do_expand     0000000180055888     libpng:pngrtran.obj
 0002:0001589c       $chain$1$png_do_expand     000000018005589c     libpng:pngrtran.obj
 0002:000158ac       $unwind$__acrt_WideCharToMultiByte 00000001800558ac     libucrt:widechartomultibyte.obj
 0002:000158ac       $unwind$__GSHandlerCheckCommon 00000001800558ac     LIBCMT:gshandler.obj
 0002:000158ac       $unwind$png_do_quantize    00000001800558ac     libpng:pngrtran.obj
 0002:000158ac       $unwind$scan_tree          00000001800558ac     zlib:trees.obj
 0002:000158b4       $chain$0$png_do_quantize   00000001800558b4     libpng:pngrtran.obj
 0002:000158c8       $chain$4$png_do_quantize   00000001800558c8     libpng:pngrtran.obj
 0002:000158c8       $chain$2$png_do_quantize   00000001800558c8     libpng:pngrtran.obj
 0002:000158dc       $chain$5$png_do_quantize   00000001800558dc     libpng:pngrtran.obj
 0002:000158ec       $unwind$png_do_read_transformations 00000001800558ec     libpng:pngrtran.obj
 0002:000158f8       $chain$0$png_do_read_transformations 00000001800558f8     libpng:pngrtran.obj
 0002:0001590c       $chain$1$png_do_read_transformations 000000018005590c     libpng:pngrtran.obj
 0002:0001591c       $unwind$updatewindow       000000018005591c     zlib:inflate.obj
 0002:00015934       $unwind$inflate            0000000180055934     zlib:inflate.obj
 0002:0001594c       $unwind$crc32_little       000000018005594c     zlib:crc32.obj
 0002:00015954       $chain$0$crc32_little      0000000180055954     zlib:crc32.obj
 0002:00015968       $chain$1$crc32_little      0000000180055968     zlib:crc32.obj
 0002:00015978       $unwind$deflateInit2_      0000000180055978     zlib:deflate.obj
 0002:00015988       $chain$1$deflateInit2_     0000000180055988     zlib:deflate.obj
 0002:000159a0       $chain$2$deflateInit2_     00000001800559a0     zlib:deflate.obj
 0002:000159b4       $chain$3$deflateInit2_     00000001800559b4     zlib:deflate.obj
 0002:000159c4       $chain$5$deflateInit2_     00000001800559c4     zlib:deflate.obj
 0002:000159e0       $chain$6$deflateInit2_     00000001800559e0     zlib:deflate.obj
 0002:000159f8       $chain$7$deflateInit2_     00000001800559f8     zlib:deflate.obj
 0002:00015a08       $chain$0$deflateReset      0000000180055a08     zlib:deflate.obj
 0002:00015a1c       $chain$1$deflateReset      0000000180055a1c     zlib:deflate.obj
 0002:00015a2c       $unwind$deflate            0000000180055a2c     zlib:deflate.obj
 0002:00015a38       $chain$1$deflate           0000000180055a38     zlib:deflate.obj
 0002:00015a50       $chain$2$deflate           0000000180055a50     zlib:deflate.obj
 0002:00015a64       $chain$7$deflate           0000000180055a64     zlib:deflate.obj
 0002:00015a64       $chain$3$deflate           0000000180055a64     zlib:deflate.obj
 0002:00015a64       $chain$5$deflate           0000000180055a64     zlib:deflate.obj
 0002:00015a74       $chain$4$deflate           0000000180055a74     zlib:deflate.obj
 0002:00015a74       $chain$6$deflate           0000000180055a74     zlib:deflate.obj
 0002:00015a88       $chain$9$deflate           0000000180055a88     zlib:deflate.obj
 0002:00015aa0       $chain$10$deflate          0000000180055aa0     zlib:deflate.obj
 0002:00015ab0       $unwind$longest_match      0000000180055ab0     zlib:deflate.obj
 0002:00015acc       $unwind$fill_window        0000000180055acc     zlib:deflate.obj
 0002:00015ad8       $chain$3$fill_window       0000000180055ad8     zlib:deflate.obj
 0002:00015af8       $chain$4$fill_window       0000000180055af8     zlib:deflate.obj
 0002:00015b08       $unwind$deflate_stored     0000000180055b08     zlib:deflate.obj
 0002:00015b28       $unwind$deflate_slow       0000000180055b28     zlib:deflate.obj
 0002:00015b28       $unwind$deflate_fast       0000000180055b28     zlib:deflate.obj
 0002:00015b28       $unwind$?try_get_function@@YAPEAXW4function_id@?A0x391cf84c@@QEBDQEBW4module_id@2@2@Z 0000000180055b28     libucrt:winapi_thunks.obj
 0002:00015b28       $unwind$?try_get_function@@YAPEAXW4function_id@?A0x2eb21ddb@@QEBDQEBW4module_id@2@2@Z 0000000180055b28     libvcruntime:winapi_downlevel.obj
 0002:00015b28       $unwind$?IsInExceptionSpec@@YAEPEAUEHExceptionRecord@@PEBU_s_ESTypeList@@@Z 0000000180055b28     libvcruntime:frame.obj
 0002:00015b28       $unwind$??R<lambda_f03950bc5685219e0bcd2087efbe011e>@@QEBAHXZ 0000000180055b28     libucrt:onexit.obj
 0002:00015b44       $unwind$deflate_rle        0000000180055b44     zlib:deflate.obj
 0002:00015b60       $unwind$deflate_huff       0000000180055b60     zlib:deflate.obj
 0002:00015b7c       $unwind$inflate_table      0000000180055b7c     zlib:inftrees.obj
 0002:00015b9c       $chain$0$inflate_table     0000000180055b9c     zlib:inftrees.obj
 0002:00015bb0       $chain$2$inflate_table     0000000180055bb0     zlib:inftrees.obj
 0002:00015bc4       $chain$3$inflate_table     0000000180055bc4     zlib:inftrees.obj
 0002:00015bd4       $unwind$inflate_fast       0000000180055bd4     zlib:inffast.obj
 0002:00015bec       $unwind$pqdownheap         0000000180055bec     zlib:trees.obj
 0002:00015bf8       $chain$0$pqdownheap        0000000180055bf8     zlib:trees.obj
 0002:00015c0c       $chain$2$pqdownheap        0000000180055c0c     zlib:trees.obj
 0002:00015c20       $chain$3$pqdownheap        0000000180055c20     zlib:trees.obj
 0002:00015c30       $unwind$gen_bitlen         0000000180055c30     zlib:trees.obj
 0002:00015c44       $chain$1$gen_bitlen        0000000180055c44     zlib:trees.obj
 0002:00015c5c       $chain$2$gen_bitlen        0000000180055c5c     zlib:trees.obj
 0002:00015c6c       $unwind$gen_codes          0000000180055c6c     zlib:trees.obj
 0002:00015c7c       $unwind$build_tree         0000000180055c7c     zlib:trees.obj
 0002:00015c98       $chain$2$scan_tree         0000000180055c98     zlib:trees.obj
 0002:00015cb4       $chain$3$scan_tree         0000000180055cb4     zlib:trees.obj
 0002:00015cc4       $unwind$send_tree          0000000180055cc4     zlib:trees.obj
 0002:00015ccc       $chain$6$send_tree         0000000180055ccc     zlib:trees.obj
 0002:00015cf8       $chain$7$send_tree         0000000180055cf8     zlib:trees.obj
 0002:00015d08       $chain$2$compress_block    0000000180055d08     zlib:trees.obj
 0002:00015d24       $chain$6$compress_block    0000000180055d24     zlib:trees.obj
 0002:00015d44       $chain$7$compress_block    0000000180055d44     zlib:trees.obj
 0002:00015d54       $chain$8$compress_block    0000000180055d54     zlib:trees.obj
 0002:00015d64       xdata                      0000000180055d64     node:node.exe
 0002:00015d6c       $unwind$?_Xout_of_range@std@@YAXPEBD@Z 0000000180055d6c     libcpmt:xthrow.obj
 0002:00015d6c       $unwind$_raise_exc         0000000180055d6c     libucrt:fpexcept.obj
 0002:00015d6c       $unwind$?_Xinvalid_argument@std@@YAXPEBD@Z 0000000180055d6c     libcpmt:xthrow.obj
 0002:00015d6c       $unwind$?__scrt_throw_std_bad_array_new_length@@YAXXZ 0000000180055d6c     LIBCMT:throw_bad_alloc.obj
 0002:00015d6c       $unwind$?_Xlength_error@std@@YAXPEBD@Z 0000000180055d6c     libcpmt:xthrow.obj
 0002:00015d6c       $unwind$?__scrt_throw_std_bad_alloc@@YAXXZ 0000000180055d6c     LIBCMT:throw_bad_alloc.obj
 0002:00015d6c       $unwind$?_Xbad_function_call@std@@YAXXZ 0000000180055d6c     libcpmt:xthrow.obj
 0002:00015d74       $unwind$??0invalid_argument@std@@QEAA@PEBD@Z 0000000180055d74     libcpmt:xthrow.obj
 0002:00015d74       $unwind$??0length_error@std@@QEAA@PEBD@Z 0000000180055d74     libcpmt:xthrow.obj
 0002:00015d74       $unwind$??0out_of_range@std@@QEAA@PEBD@Z 0000000180055d74     libcpmt:xthrow.obj
 0002:00015d74       $unwind$?__mbrtowc_utf8@__crt_mbstring@@YA_KPEA_WPEBD_KPEAU_Mbstatet@@@Z 0000000180055d74     libucrt:mbrtowc.obj
 0002:00015d74       $unwind$??$common_xtox_s@K_W@@YAHKQEA_W_KI_N@Z 0000000180055d74     libucrt:xtoa.obj
 0002:00015d80       $xdatasym                  0000000180055d80     LIBCMT:amdsecgs.obj
 0002:00015d84       $unwind$__scrt_is_nonwritable_in_current_image 0000000180055d84     LIBCMT:utility.obj
 0002:00015da4       $unwind$__scrt_is_nonwritable_in_current_image$filt$0 0000000180055da4     LIBCMT:utility.obj
 0002:00015dac       $unwind$?dllmain_crt_process_attach@@YAHQEAUHINSTANCE__@@QEAX@Z 0000000180055dac     LIBCMT:dll_dllmain.obj
 0002:00015de8       $unwind$?dllmain_crt_process_detach@@YAH_N@Z 0000000180055de8     LIBCMT:dll_dllmain.obj
 0002:00015e20       $unwind$?dllmain_dispatch@@YAHQEAUHINSTANCE__@@KQEAX@Z 0000000180055e20     LIBCMT:dll_dllmain.obj
 0002:00015e48       $unwind$fread_s$fin$0      0000000180055e48     libucrt:fread.obj
 0002:00015e48       $unwind$?filt$0@?0??dllmain_dispatch@@YAHQEAUHINSTANCE__@@KQEAX@Z@4HA 0000000180055e48     LIBCMT:dll_dllmain.obj
 0002:00015e50       $unwind$__report_securityfailure 0000000180055e50     LIBCMT:gs_report.obj
 0002:00015e58       $unwind$__report_gsfailure 0000000180055e58     LIBCMT:gs_report.obj
 0002:00015e60       $unwind$capture_current_context 0000000180055e60     LIBCMT:gs_report.obj
 0002:00015e6c       $unwind$capture_previous_context 0000000180055e6c     LIBCMT:gs_report.obj
 0002:00015e78       $unwind$__isa_available_init 0000000180055e78     LIBCMT:cpu_disp.obj
 0002:00015e8c       $unwind$__scrt_fastfail    0000000180055e8c     LIBCMT:utility_desktop.obj
 0002:00015e9c       $unwind$__security_init_cookie 0000000180055e9c     LIBCMT:gs_support.obj
 0002:00015ea8       $xdatasym                  0000000180055ea8     LIBCMT:guard_dispatch.obj
 0002:00015eac       $unwind$?GetEstablisherFrame@__FrameHandler3@@SAPEA_KPEA_KPEAU_xDISPATCHER_CONTEXT@@PEBU_s_FuncInfo@@0@Z 0000000180055eac     libvcruntime:risctrnsctrl.obj
 0002:00015ec4       $unwind$?UnwindNestedFrames@__FrameHandler3@@SAXPEA_KPEAUEHExceptionRecord@@PEAU_CONTEXT@@0PEAXPEBU_s_FuncInfo@@HHPEBU_s_HandlerType@@PEAU_xDISPATCHER_CONTEXT@@E@Z 0000000180055ec4     libvcruntime:risctrnsctrl.obj
 0002:00015ed8       $unwind$?GetRangeOfTrysToCheck@__FrameHandler3@@SA?AU?$pair@Viterator@TryBlockMap@__FrameHandler3@@V123@@std@@AEAVTryBlockMap@1@HH@Z 0000000180055ed8     libvcruntime:risctrnsctrl.obj
 0002:00015ef0       $unwind$__CxxFrameHandler3 0000000180055ef0     libvcruntime:risctrnsctrl.obj
 0002:00015f00       $unwind$??$_CallSETranslator@V__FrameHandler3@@@@YAHPEAUEHExceptionRecord@@PEA_KPEAU_CONTEXT@@PEAU_xDISPATCHER_CONTEXT@@PEBU_s_FuncInfo@@K1@Z 0000000180055f00     libvcruntime:risctrnsctrl.obj
 0002:00015f20       $unwind$?filt$0@?0???$_CallSETranslator@V__FrameHandler3@@@@YAHPEAUEHExceptionRecord@@PEA_KPEAU_CONTEXT@@PEAU_xDISPATCHER_CONTEXT@@PEBU_s_FuncInfo@@K1@Z@4HA 0000000180055f20     libvcruntime:risctrnsctrl.obj
 0002:00015f2c       $unwind$__DestructExceptionObject 0000000180055f2c     libvcruntime:ehhelpers.obj
 0002:00015f4c       $unwind$_CxxThrowException 0000000180055f4c     libvcruntime:throw.obj
 0002:00015f5c       $unwind$__C_specific_handler 0000000180055f5c     libvcruntime:riscchandler.obj
 0002:00015f78       $xdatasym                  0000000180055f78     libvcruntime:memset.obj
 0002:00015f88       $unwind$?FrameUnwindToState@__FrameHandler3@@SAXPEA_KPEAU_xDISPATCHER_CONTEXT@@PEBU_s_FuncInfo@@H@Z 0000000180055f88     libvcruntime:frame.obj
 0002:00015fd4       $unwind$?CxxCallCatchBlock@__FrameHandler3@@SAPEAXPEAU_EXCEPTION_RECORD@@@Z 0000000180055fd4     libvcruntime:frame.obj
 0002:00016010       $unwind$?fin$1@?0??CxxCallCatchBlock@__FrameHandler3@@SAPEAXPEAU_EXCEPTION_RECORD@@@Z@4HA 0000000180056010     libvcruntime:frame.obj
 0002:0001601c       $unwind$??$__InternalCxxFrameHandler@V__FrameHandler3@@@@YA?AW4_EXCEPTION_DISPOSITION@@PEAUEHExceptionRecord@@PEA_KPEAU_CONTEXT@@PEAU_xDISPATCHER_CONTEXT@@PEBU_s_FuncInfo@@H1E@Z 000000018005601c     libvcruntime:frame.obj
 0002:00016034       $unwind$__acrt_initialize_stdio 0000000180056034     libucrt:_file.obj
 0002:00016034       $unwind$??$TypeMatchHelper@$$CBU_s_HandlerType@@@@YAHPEBU_s_HandlerType@@PEBU_s_CatchableType@@PEBU_s_ThrowInfo@@@Z 0000000180056034     libvcruntime:frame.obj
 0002:00016034       $unwind$__acrt_lowio_set_os_handle 0000000180056034     libucrt:osfinfo.obj
 0002:00016034       $unwind$__GSHandlerCheck_EH 0000000180056034     LIBCMT:gshandlereh.obj
 0002:0001604c       $unwind$??$BuildCatchObjectHelperInternal@$$CBU_s_HandlerType@@@@YAHPEAUEHExceptionRecord@@PEAXPEBU_s_HandlerType@@PEBU_s_CatchableType@@@Z 000000018005604c     libvcruntime:frame.obj
 0002:0001608c       $unwind$??$BuildCatchObjectInternal@$$CBU_s_HandlerType@@@@YAXPEAUEHExceptionRecord@@PEAXPEBU_s_HandlerType@@PEBU_s_CatchableType@@@Z 000000018005608c     libvcruntime:frame.obj
 0002:000160b8       $unwind$??$FindHandler@V__FrameHandler3@@@@YAXPEAUEHExceptionRecord@@PEA_KPEAU_CONTEXT@@PEAU_xDISPATCHER_CONTEXT@@PEBU_s_FuncInfo@@EH1@Z 00000001800560b8     libvcruntime:frame.obj
 0002:000160d4       $unwind$??$CatchIt@V__FrameHandler3@@@@YAXPEAUEHExceptionRecord@@PEA_KPEAU_CONTEXT@@PEAU_xDISPATCHER_CONTEXT@@PEBU_s_FuncInfo@@PEBU_s_HandlerType@@PEBU_s_CatchableType@@PEBU_s_TryBlockMapEntry@@H1EE@Z 00000001800560d4     libvcruntime:frame.obj
 0002:000160ec       $unwind$??$FindHandlerForForeignException@V__FrameHandler3@@@@YAXPEAUEHExceptionRecord@@PEA_KPEAU_CONTEXT@@PEAU_xDISPATCHER_CONTEXT@@PEBU_s_FuncInfo@@HH1@Z 00000001800560ec     libvcruntime:frame.obj
 0002:00016108       $xdatasym                  0000000180056108     libvcruntime:longjmp.obj
 0002:00016110       $unwind$__vcrt_initialize_winapi_thunks 0000000180056110     libvcruntime:winapi_downlevel.obj
 0002:00016110       $unwind$__acrt_initialize_winapi_thunks 0000000180056110     libucrt:winapi_thunks.obj
 0002:00016118       $unwind$__vcrt_uninitialize_winapi_thunks 0000000180056118     libvcruntime:winapi_downlevel.obj
 0002:00016118       $unwind$__acrt_stdio_end_temporary_buffering_nolock 0000000180056118     libucrt:_sftbuf.obj
 0002:00016120       $xdatasym                  0000000180056120     libvcruntime:notify.obj
 0002:00016130       $xdatasym                  0000000180056130     libvcruntime:handlers.obj
 0002:00016140       $xdatasym                  0000000180056140     libvcruntime:memcpy.obj
 0002:00016150       $unwind$_sopen_s           0000000180056150     libucrt:open.obj
 0002:00016150       $unwind$fflush             0000000180056150     libucrt:fflush.obj
 0002:00016150       $unwind$_log10_special     0000000180056150     libucrt:log_special.obj
 0002:00016150       $unwind$_itow_s            0000000180056150     libucrt:xtoa.obj
 0002:00016150       $unwind$wcstol             0000000180056150     libucrt:strtox.obj
 0002:00016150       $unwind$_invalid_parameter_noinfo_noreturn 0000000180056150     libucrt:invalid_parameter.obj
 0002:00016150       $unwind$wctomb_s           0000000180056150     libucrt:wctomb.obj
 0002:00016150       $unwind$fread              0000000180056150     libucrt:fread.obj
 0002:00016150       $unwind$strtol             0000000180056150     libucrt:strtox.obj
 0002:00016150       $unwind$_invalid_parameter_noinfo 0000000180056150     libucrt:invalid_parameter.obj
 0002:00016158       $unwind$??$parse_integer@KV?$c_string_character_source@D@__crt_strtox@@@__crt_strtox@@YAKQEAU__crt_locale_pointers@@V?$c_string_character_source@D@0@H_N@Z 0000000180056158     libucrt:strtox.obj
 0002:00016170       $unwind$??$parse_integer@KV?$c_string_character_source@_W@__crt_strtox@@@__crt_strtox@@YAKQEAU__crt_locale_pointers@@V?$c_string_character_source@_W@0@H_N@Z 0000000180056170     libucrt:strtox.obj
 0002:00016188       $unwind$swprintf           0000000180056188     libucrt:assert.obj
 0002:00016198       $unwind$??$common_assert_to_stderr@_W@@YAXQEB_W0I@Z 0000000180056198     libucrt:assert.obj
 0002:000161b4       $unwind$??$common_assert_to_message_box@_W@@YAXQEB_W0IQEAX@Z 00000001800561b4     libucrt:assert.obj
 0002:000161d0       $unwind$??$common_assert_to_message_box_build_string@_W@@YAXQEA_W_KQEB_W2IQEAX@Z 00000001800561d0     libucrt:assert.obj
 0002:000161f0       $unwind$__acrt_call_reportfault 00000001800561f0     libucrt:invalid_parameter.obj
 0002:00016210       $unwind$??$common_fsopen@D@@YAPEAU_iobuf@@QEBD0H@Z 0000000180056210     libucrt:fopen.obj
 0002:00016238       $unwind$fclose             0000000180056238     libucrt:fclose.obj
 0002:0001625c       $unwind$_stricmp_l         000000018005625c     libucrt:stricmp.obj
 0002:0001625c       $unwind$?x_ismbbtype_l@@YAHPEAU__crt_locale_pointers@@IHH@Z 000000018005625c     libucrt:ismbbyte.obj
 0002:0001626c       $unwind$?common_flush_all@@YAH_N@Z 000000018005626c     libucrt:fflush.obj
 0002:00016274       $unwind$??$?RV<lambda_842d9ff0dc9ef11c61343bbaebe7f885>@@AEAV<lambda_c5860995281e5c4ce005b3de8f5874ee>@@V<lambda_d90129c13df834fdcbf8d2b88dafcf2d>@@@?$__crt_seh_guarded_call@X@@QEAAX$$QEAV<lambda_842d9ff0dc9ef11c61343bbaebe7f885>@@AEAV<lambda_c5860995281e5c4ce005b3de8f5874ee>@@$$QEAV<lambda_d90129c13df834fdcbf8d2b88dafcf2d>@@@Z 0000000180056274     libucrt:fflush.obj
 0002:00016298       $unwind$??$?RV<lambda_886d6c58226a84441f68b9f2b8217b83>@@AEAV<lambda_ab61a845afdef5b7c387490eaf3616ee>@@V<lambda_f7f22ab5edc0698d5f6905b0d3f44752>@@@?$__crt_seh_guarded_call@X@@QEAAX$$QEAV<lambda_886d6c58226a84441f68b9f2b8217b83>@@AEAV<lambda_ab61a845afdef5b7c387490eaf3616ee>@@$$QEAV<lambda_f7f22ab5edc0698d5f6905b0d3f44752>@@@Z 0000000180056298     libucrt:fflush.obj
 0002:000162c0       $unwind$??$?RV<lambda_c376a267cfb53b6959b3b692ec76b120>@@AEAV<lambda_9a32fed5bf61b6b509b2d3f6003082a1>@@V<lambda_572fbb9fa0ab338edf41edfd4b5fcc8d>@@@?$__crt_seh_guarded_call@H@@QEAAH$$QEAV<lambda_c376a267cfb53b6959b3b692ec76b120>@@AEAV<lambda_9a32fed5bf61b6b509b2d3f6003082a1>@@$$QEAV<lambda_572fbb9fa0ab338edf41edfd4b5fcc8d>@@@Z 00000001800562c0     libucrt:fflush.obj
 0002:000162e4       $unwind$?divide@__crt_strtox@@YA_KAEAUbig_integer@1@AEBU21@@Z 00000001800562e4     libucrt:atof.obj
 0002:000162f0       $chain$0$?divide@__crt_strtox@@YA_KAEAUbig_integer@1@AEBU21@@Z 00000001800562f0     libucrt:atof.obj
 0002:00016304       $chain$6$?divide@__crt_strtox@@YA_KAEAUbig_integer@1@AEBU21@@Z 0000000180056304     libucrt:atof.obj
 0002:00016328       $chain$7$?divide@__crt_strtox@@YA_KAEAUbig_integer@1@AEBU21@@Z 0000000180056328     libucrt:atof.obj
 0002:0001633c       $chain$8$?divide@__crt_strtox@@YA_KAEAUbig_integer@1@AEBU21@@Z 000000018005633c     libucrt:atof.obj
 0002:0001634c       $unwind$__stdio_common_vfprintf 000000018005634c     libucrt:output.obj
 0002:0001634c       $unwind$__stdio_common_vfwprintf 000000018005634c     libucrt:output.obj
 0002:00016354       $unwind$??$common_vsprintf@Vstandard_base@__crt_stdio_output@@_W@@YAH_KQEA_W0QEB_WQEAU__crt_locale_pointers@@QEAD@Z 0000000180056354     libucrt:output.obj
 0002:00016374       $unwind$?write_string_impl@?$output_adapter_common@_WV?$stream_output_adapter@_W@__crt_stdio_output@@@__crt_stdio_output@@IEBAXQEB_WHQEAHAEAV__crt_deferred_errno_cache@@@Z 0000000180056374     libucrt:output.obj
 0002:00016374       $unwind$??$parse_command_line@D@@YAXPEADPEAPEAD0PEA_K2@Z 0000000180056374     libucrt:argv_parsing.obj
 0002:00016374       $unwind$??R<lambda_a10e4b102d4a2c3aac6f4f48bbdf488f>@@QEBAHXZ 0000000180056374     libucrt:onexit.obj
 0002:00016374       $unwind$?write_string_impl@?$output_adapter_common@DV?$stream_output_adapter@D@__crt_stdio_output@@@__crt_stdio_output@@IEBAXQEBDHQEAHAEAV__crt_deferred_errno_cache@@@Z 0000000180056374     libucrt:output.obj
 0002:00016390       $unwind$?process@?$output_processor@DV?$stream_output_adapter@D@__crt_stdio_output@@V?$standard_base@DV?$stream_output_adapter@D@__crt_stdio_output@@@2@@__crt_stdio_output@@QEAAHXZ 0000000180056390     libucrt:output.obj
 0002:00016390       $unwind$?truncate_ctrl_z_if_present@@YAHH@Z 0000000180056390     libucrt:open.obj
 0002:000163a0       $unwind$?process@?$output_processor@_WV?$stream_output_adapter@_W@__crt_stdio_output@@V?$standard_base@_WV?$stream_output_adapter@_W@__crt_stdio_output@@@2@@__crt_stdio_output@@QEAAHXZ 00000001800563a0     libucrt:output.obj
 0002:000163a0       $unwind$?parse_int_from_format_string@?$output_processor@DV?$stream_output_adapter@D@__crt_stdio_output@@V?$standard_base@DV?$stream_output_adapter@D@__crt_stdio_output@@@2@@__crt_stdio_output@@AEAA_NQEAH@Z 00000001800563a0     libucrt:output.obj
 0002:000163a0       $unwind$?process@?$output_processor@_WV?$string_output_adapter@_W@__crt_stdio_output@@V?$standard_base@_WV?$string_output_adapter@_W@__crt_stdio_output@@@2@@__crt_stdio_output@@QEAAHXZ 00000001800563a0     libucrt:output.obj
 0002:000163b4       $unwind$?state_case_type@?$output_processor@DV?$stream_output_adapter@D@__crt_stdio_output@@V?$standard_base@DV?$stream_output_adapter@D@__crt_stdio_output@@@2@@__crt_stdio_output@@AEAA_NXZ 00000001800563b4     libucrt:output.obj
 0002:000163b4       $unwind$?configure_text_mode@@YAHHUfile_options@?A0xa9d50aae@@HAEAW4__crt_lowio_text_mode@@@Z 00000001800563b4     libucrt:open.obj
 0002:000163cc       $unwind$?type_case_a@?$output_processor@DV?$stream_output_adapter@D@__crt_stdio_output@@V?$standard_base@DV?$stream_output_adapter@D@__crt_stdio_output@@@2@@__crt_stdio_output@@AEAA_NXZ 00000001800563cc     libucrt:output.obj
 0002:000163d8       $unwind$?type_case_integer@?$output_processor@DV?$stream_output_adapter@D@__crt_stdio_output@@V?$standard_base@DV?$stream_output_adapter@D@__crt_stdio_output@@@2@@__crt_stdio_output@@AEAA_NI_N@Z 00000001800563d8     libucrt:output.obj
 0002:000163d8       $unwind$?type_case_integer@?$output_processor@_WV?$string_output_adapter@_W@__crt_stdio_output@@V?$standard_base@_WV?$string_output_adapter@_W@__crt_stdio_output@@@2@@__crt_stdio_output@@AEAA_NI_N@Z 00000001800563d8     libucrt:output.obj
 0002:000163d8       $unwind$?type_case_integer@?$output_processor@_WV?$stream_output_adapter@_W@__crt_stdio_output@@V?$standard_base@_WV?$stream_output_adapter@_W@__crt_stdio_output@@@2@@__crt_stdio_output@@AEAA_NI_N@Z 00000001800563d8     libucrt:output.obj
 0002:000163d8       $unwind$_chsize_nolock     00000001800563d8     libucrt:chsize.obj
 0002:000163f0       $unwind$?write_stored_string_tchar@?$output_processor@DV?$stream_output_adapter@D@__crt_stdio_output@@V?$standard_base@DV?$stream_output_adapter@D@__crt_stdio_output@@@2@@__crt_stdio_output@@AEAA_ND@Z 00000001800563f0     libucrt:output.obj
 0002:00016408       $unwind$??R<lambda_a775ed57af18ba8e4d5dc780aa9068fe>@@QEBAHXZ 0000000180056408     libucrt:output.obj
 0002:00016408       $unwind$??R<lambda_a31071773b9a94e445cbd5d04ef99106>@@QEBAHXZ 0000000180056408     libucrt:output.obj
 0002:00016428       $unwind$?state_case_type@?$output_processor@_WV?$stream_output_adapter@_W@__crt_stdio_output@@V?$standard_base@_WV?$stream_output_adapter@_W@__crt_stdio_output@@@2@@__crt_stdio_output@@AEAA_NXZ 0000000180056428     libucrt:output.obj
 0002:00016448       $unwind$?type_case_c_tchar@?$output_processor@_WV?$stream_output_adapter@_W@__crt_stdio_output@@V?$standard_base@_WV?$stream_output_adapter@_W@__crt_stdio_output@@@2@@__crt_stdio_output@@AEAA_N_W@Z 0000000180056448     libucrt:output.obj
 0002:00016448       $unwind$??R<lambda_ca71763b3c0644891230e4f79ea54fa6>@@QEBAHXZ 0000000180056448     libucrt:setvbuf.obj
 0002:00016448       $unwind$?type_case_c_tchar@?$output_processor@_WV?$string_output_adapter@_W@__crt_stdio_output@@V?$standard_base@_WV?$string_output_adapter@_W@__crt_stdio_output@@@2@@__crt_stdio_output@@AEAA_N_W@Z 0000000180056448     libucrt:output.obj
 0002:00016458       $unwind$?type_case_a@?$output_processor@_WV?$stream_output_adapter@_W@__crt_stdio_output@@V?$standard_base@_WV?$stream_output_adapter@_W@__crt_stdio_output@@@2@@__crt_stdio_output@@AEAA_NXZ 0000000180056458     libucrt:output.obj
 0002:00016458       $unwind$?type_case_a@?$output_processor@_WV?$string_output_adapter@_W@__crt_stdio_output@@V?$standard_base@_WV?$string_output_adapter@_W@__crt_stdio_output@@@2@@__crt_stdio_output@@AEAA_NXZ 0000000180056458     libucrt:output.obj
 0002:00016468       $unwind$?write_stored_string_tchar@?$output_processor@_WV?$stream_output_adapter@_W@__crt_stdio_output@@V?$standard_base@_WV?$stream_output_adapter@_W@__crt_stdio_output@@@2@@__crt_stdio_output@@AEAA_N_W@Z 0000000180056468     libucrt:output.obj
 0002:0001647c       $unwind$?write_string@?$string_output_adapter@_W@__crt_stdio_output@@QEBAXQEB_WHQEAHAEAV__crt_deferred_errno_cache@@@Z 000000018005647c     libucrt:output.obj
 0002:00016494       $unwind$?state_case_type@?$output_processor@_WV?$string_output_adapter@_W@__crt_stdio_output@@V?$standard_base@_WV?$string_output_adapter@_W@__crt_stdio_output@@@2@@__crt_stdio_output@@AEAA_NXZ 0000000180056494     libucrt:output.obj
 0002:000164b8       $unwind$?write_stored_string_tchar@?$output_processor@_WV?$string_output_adapter@_W@__crt_stdio_output@@V?$standard_base@_WV?$string_output_adapter@_W@__crt_stdio_output@@@2@@__crt_stdio_output@@AEAA_N_W@Z 00000001800564b8     libucrt:output.obj
 0002:000164cc       $unwind$??$write_multiple_characters@V?$string_output_adapter@_W@__crt_stdio_output@@D@__crt_stdio_output@@YAXAEBV?$string_output_adapter@_W@0@DHQEAH@Z 00000001800564cc     libucrt:output.obj
 0002:000164d8       $unwind$??$write_multiple_characters@V?$stream_output_adapter@_W@__crt_stdio_output@@D@__crt_stdio_output@@YAXAEBV?$stream_output_adapter@_W@0@DHQEAH@Z 00000001800564d8     libucrt:output.obj
 0002:000164d8       $unwind$??$write_multiple_characters@V?$stream_output_adapter@D@__crt_stdio_output@@D@__crt_stdio_output@@YAXAEBV?$stream_output_adapter@D@0@DHQEAH@Z 00000001800564d8     libucrt:output.obj
 0002:000164f0       $unwind$??$?RV<lambda_a62c933ada0517137acf5807a1eeac1f>@@AEAV<lambda_a31071773b9a94e445cbd5d04ef99106>@@V<lambda_56065050dbf3ada7e59a83db45153de3>@@@?$__crt_seh_guarded_call@H@@QEAAH$$QEAV<lambda_a62c933ada0517137acf5807a1eeac1f>@@AEAV<lambda_a31071773b9a94e445cbd5d04ef99106>@@$$QEAV<lambda_56065050dbf3ada7e59a83db45153de3>@@@Z 00000001800564f0     libucrt:output.obj
 0002:00016514       $unwind$??$?RV<lambda_0d412022a4b28cc8a401ea49574e8ae6>@@AEAV<lambda_a775ed57af18ba8e4d5dc780aa9068fe>@@V<lambda_975a71a6baa488a08f4e15f6b0339b9e>@@@?$__crt_seh_guarded_call@H@@QEAAH$$QEAV<lambda_0d412022a4b28cc8a401ea49574e8ae6>@@AEAV<lambda_a775ed57af18ba8e4d5dc780aa9068fe>@@$$QEAV<lambda_975a71a6baa488a08f4e15f6b0339b9e>@@@Z 0000000180056514     libucrt:output.obj
 0002:00016538       $unwind$fread_s            0000000180056538     libucrt:fread.obj
 0002:00016568       $unwind$_fread_nolock_s    0000000180056568     libucrt:fread.obj
 0002:00016580       $unwind$fwrite             0000000180056580     libucrt:fwrite.obj
 0002:00016588       $unwind$_fwrite_nolock     0000000180056588     libucrt:fwrite.obj
 0002:000165a4       $unwind$??$?RV<lambda_bdbcead8b570fa3d5ec6d9679862a6e5>@@AEAV<lambda_96f4279ff90247a4c5c5d9824f56f8c1>@@V<lambda_4606be27f17b5e5579e09050fab91818>@@@?$__crt_seh_guarded_call@_K@@QEAA_K$$QEAV<lambda_bdbcead8b570fa3d5ec6d9679862a6e5>@@AEAV<lambda_96f4279ff90247a4c5c5d9824f56f8c1>@@$$QEAV<lambda_4606be27f17b5e5579e09050fab91818>@@@Z 00000001800565a4     libucrt:fwrite.obj
 0002:000165c8       $unwind$_query_new_handler 00000001800565c8     libucrt:new_handler.obj
 0002:000165e8       $unwind$?common_exit@@YAXHW4_crt_exit_cleanup_mode@@W4_crt_exit_return_mode@@@Z 00000001800565e8     libucrt:exit.obj
 0002:000165f4       $unwind$??R<lambda_6e4b09c48022b2350581041d5f6b0c4c>@@QEBA@XZ 00000001800565f4     libucrt:exit.obj
 0002:00016614       $unwind$??$?RV<lambda_d80eeec6fff315bfe5c115232f3240e3>@@AEAV<lambda_6e4b09c48022b2350581041d5f6b0c4c>@@V<lambda_2358e3775559c9db80273638284d5e45>@@@?$__crt_seh_guarded_call@X@@QEAAX$$QEAV<lambda_d80eeec6fff315bfe5c115232f3240e3>@@AEAV<lambda_6e4b09c48022b2350581041d5f6b0c4c>@@$$QEAV<lambda_2358e3775559c9db80273638284d5e45>@@@Z 0000000180056614     libucrt:exit.obj
 0002:00016638       $unwind$_configure_narrow_argv 0000000180056638     libucrt:argv_parsing.obj
 0002:0001664c       $unwind$??$create_environment@D@@YAQEAPEADQEAD@Z 000000018005664c     libucrt:environment_initialization.obj
 0002:00016664       $unwind$_register_onexit_function 0000000180056664     libucrt:onexit.obj
 0002:0001666c       $unwind$_execute_onexit_table 000000018005666c     libucrt:onexit.obj
 0002:00016674       $unwind$??$?RV<lambda_8369fcb7c4df1e85de37618bd2b85f07>@@AEAV<lambda_a10e4b102d4a2c3aac6f4f48bbdf488f>@@V<lambda_5b7707bd6d7a0c4713179f36c7fd995d>@@@?$__crt_seh_guarded_call@H@@QEAAH$$QEAV<lambda_8369fcb7c4df1e85de37618bd2b85f07>@@AEAV<lambda_a10e4b102d4a2c3aac6f4f48bbdf488f>@@$$QEAV<lambda_5b7707bd6d7a0c4713179f36c7fd995d>@@@Z 0000000180056674     libucrt:onexit.obj
 0002:00016698       $unwind$??$?RV<lambda_7777bce6b2f8c936911f934f8298dc43>@@AEAV<lambda_f03950bc5685219e0bcd2087efbe011e>@@V<lambda_3883c3dff614d5e0c5f61bb1ac94921c>@@@?$__crt_seh_guarded_call@H@@QEAAH$$QEAV<lambda_7777bce6b2f8c936911f934f8298dc43>@@AEAV<lambda_f03950bc5685219e0bcd2087efbe011e>@@$$QEAV<lambda_3883c3dff614d5e0c5f61bb1ac94921c>@@@Z 0000000180056698     libucrt:onexit.obj
 0002:000166bc       $unwind$terminate          00000001800566bc     libucrt:terminate.obj
 0002:000166e0       $xdatasym                  00000001800566e0     libucrt:strncmp.obj
 0002:000166e4       $unwind$?destroy_fls@@YAXPEAX@Z 00000001800566e4     libucrt:per_thread_data.obj
 0002:000166e4       $unwind$__acrt_locale_free_lc_time_if_unreferenced 00000001800566e4     libucrt:locale_refcounting.obj
 0002:000166e4       $unwind$__acrt_locale_free_numeric 00000001800566e4     libucrt:initnum.obj
 0002:000166e4       $unwind$_free_base         00000001800566e4     libucrt:free_base.obj
 0002:000166ec       $unwind$?construct_ptd_array@@YAXQEAU__acrt_ptd@@@Z 00000001800566ec     libucrt:per_thread_data.obj
 0002:000166f4       $unwind$?destroy_ptd_array@@YAXQEAU__acrt_ptd@@@Z 00000001800566f4     libucrt:per_thread_data.obj
 0002:000166fc       $unwind$??$?RV<lambda_0ae27a3a962d80f24befdcbee591983d>@@AEAV<lambda_8d0ee55de4b1038c4002e0adecdf1839>@@V<lambda_dc504788e8f1664fe9b84e20bfb512f2>@@@?$__crt_seh_guarded_call@X@@QEAAX$$QEAV<lambda_0ae27a3a962d80f24befdcbee591983d>@@AEAV<lambda_8d0ee55de4b1038c4002e0adecdf1839>@@$$QEAV<lambda_dc504788e8f1664fe9b84e20bfb512f2>@@@Z 00000001800566fc     libucrt:per_thread_data.obj
 0002:00016720       $unwind$??$?RV<lambda_aa87e3671a710a21b5dc78c0bdf72e11>@@AEAV<lambda_92619d2358a28f41a33ba319515a20b9>@@V<lambda_6992ecaafeb10aed2b74cb1fae11a551>@@@?$__crt_seh_guarded_call@X@@QEAAX$$QEAV<lambda_aa87e3671a710a21b5dc78c0bdf72e11>@@AEAV<lambda_92619d2358a28f41a33ba319515a20b9>@@$$QEAV<lambda_6992ecaafeb10aed2b74cb1fae11a551>@@@Z 0000000180056720     libucrt:per_thread_data.obj
 0002:00016744       $unwind$??$?RV<lambda_f2e299630e499de9f9a165e60fcd3db5>@@AEAV<lambda_2ae9d31cdba2644fcbeaf08da7c24588>@@V<lambda_40d01ff24d0e7b3814fdbdcee8eab3c7>@@@?$__crt_seh_guarded_call@X@@QEAAX$$QEAV<lambda_f2e299630e499de9f9a165e60fcd3db5>@@AEAV<lambda_2ae9d31cdba2644fcbeaf08da7c24588>@@$$QEAV<lambda_40d01ff24d0e7b3814fdbdcee8eab3c7>@@@Z 0000000180056744     libucrt:per_thread_data.obj
 0002:00016768       $unwind$??$?RV<lambda_2d41944a1d46af3157314b8a01080d33>@@AEAV<lambda_8f455de75cd7d7f24b4096f044d8b9e6>@@V<lambda_aa500f224e6afead328df44964fe2772>@@@?$__crt_seh_guarded_call@X@@QEAAX$$QEAV<lambda_2d41944a1d46af3157314b8a01080d33>@@AEAV<lambda_8f455de75cd7d7f24b4096f044d8b9e6>@@$$QEAV<lambda_aa500f224e6afead328df44964fe2772>@@@Z 0000000180056768     libucrt:per_thread_data.obj
 0002:0001678c       $unwind$_isctype_l         000000018005678c     libucrt:isctype.obj
 0002:000167a4       $unwind$__acrt_uninitialize_locale 00000001800567a4     libucrt:wsetlocale.obj
 0002:000167a4       $unwind$__acrt_get_sigabrt_handler 00000001800567a4     libucrt:signal.obj
 0002:000167ac       $unwind$??$?RV<lambda_410d79af7f07d98d83a3f525b3859a53>@@AEAV<lambda_3e16ef9562a7dcce91392c22ab16ea36>@@V<lambda_38119f0e861e05405d8a144b9b982f0a>@@@?$__crt_seh_guarded_call@X@@QEAAX$$QEAV<lambda_410d79af7f07d98d83a3f525b3859a53>@@AEAV<lambda_3e16ef9562a7dcce91392c22ab16ea36>@@$$QEAV<lambda_38119f0e861e05405d8a144b9b982f0a>@@@Z 00000001800567ac     libucrt:wsetlocale.obj
 0002:000167d4       $unwind$__acrt_GetModuleFileNameA 00000001800567d4     libucrt:getmodulefilenamea.obj
 0002:000167ec       $unwind$setvbuf            00000001800567ec     libucrt:setvbuf.obj
 0002:000167f4       $unwind$??$?RV<lambda_84ec643ea9557e2f7dc01bb0e9624395>@@AEAV<lambda_ca71763b3c0644891230e4f79ea54fa6>@@V<lambda_439a761618c59b0600e24586724d733b>@@@?$__crt_seh_guarded_call@H@@QEAAH$$QEAV<lambda_84ec643ea9557e2f7dc01bb0e9624395>@@AEAV<lambda_ca71763b3c0644891230e4f79ea54fa6>@@$$QEAV<lambda_439a761618c59b0600e24586724d733b>@@@Z 00000001800567f4     libucrt:setvbuf.obj
 0002:00016818       $unwind$raise              0000000180056818     libucrt:signal.obj
 0002:00016854       $unwind$??$?RV<lambda_450d765d439847d4c735a33c368b5fc0>@@AEAV<lambda_44731a7d0e6d81c3e6aa82d741081786>@@V<lambda_601a2a7da3b7a96e9554ac7215c4b07c>@@@?$__crt_seh_guarded_call@P6AXH@Z@@QEAAP6AXH@Z$$QEAV<lambda_450d765d439847d4c735a33c368b5fc0>@@AEAV<lambda_44731a7d0e6d81c3e6aa82d741081786>@@$$QEAV<lambda_601a2a7da3b7a96e9554ac7215c4b07c>@@@Z 0000000180056854     libucrt:signal.obj
 0002:00016878       $unwind$?__acrt_stdio_allocate_stream@@YA?AV__crt_stdio_stream@@XZ 0000000180056878     libucrt:stream.obj
 0002:00016898       $unwind$_openfile          0000000180056898     libucrt:openfile.obj
 0002:000168ac       $unwind$_close             00000001800568ac     libucrt:close.obj
 0002:000168ac       $unwind$_commit            00000001800568ac     libucrt:commit.obj
 0002:000168b4       $unwind$??$?RV<lambda_751a882b2c74d4b022dec766aa51a29a>@@AEAV<lambda_628dfdc04ba53c8bfc02c9951375f3f5>@@V<lambda_f6c7be5f7998530c34de24c7437d6b54>@@@?$__crt_seh_guarded_call@H@@QEAAH$$QEAV<lambda_751a882b2c74d4b022dec766aa51a29a>@@AEAV<lambda_628dfdc04ba53c8bfc02c9951375f3f5>@@$$QEAV<lambda_f6c7be5f7998530c34de24c7437d6b54>@@@Z 00000001800568b4     libucrt:close.obj
 0002:000168d8       $unwind$_tolower_l         00000001800568d8     libucrt:tolower_toupper.obj
 0002:000168e8       $unwind$_raise_exc_ex      00000001800568e8     libucrt:fpexcept.obj
 0002:000168fc       $unwind$_ctrlfp            00000001800568fc     libucrt:fpctrl.obj
 0002:00016924       $unwind$??$?RV<lambda_a37b2b86f63e897a80ea819b0eb08c01>@@AEAV<lambda_38ce7e780aa69e748d6df282ebc68efe>@@V<lambda_99fb1378e971ab6e7edea83e3a7a83a2>@@@?$__crt_seh_guarded_call@H@@QEAAH$$QEAV<lambda_a37b2b86f63e897a80ea819b0eb08c01>@@AEAV<lambda_38ce7e780aa69e748d6df282ebc68efe>@@$$QEAV<lambda_99fb1378e971ab6e7edea83e3a7a83a2>@@@Z 0000000180056924     libucrt:commit.obj
 0002:00016948       $unwind$_write             0000000180056948     libucrt:write.obj
 0002:00016978       $unwind$_write_nolock      0000000180056978     libucrt:write.obj
 0002:00016990       $unwind$?write_double_translated_ansi_nolock@@YA?AUwrite_result@?A0x17268360@@HQEBDI@Z 0000000180056990     libucrt:write.obj
 0002:000169b0       $unwind$?write_text_ansi_nolock@@YA?AUwrite_result@?A0x17268360@@HQEBDI@Z 00000001800569b0     libucrt:write.obj
 0002:000169b0       $unwind$?write_text_utf16le_nolock@@YA?AUwrite_result@?A0x17268360@@HQEBDI@Z 00000001800569b0     libucrt:write.obj
 0002:000169d0       $unwind$?write_text_utf8_nolock@@YA?AUwrite_result@?A0x17268360@@HQEBDI@Z 00000001800569d0     libucrt:write.obj
 0002:000169f4       $unwind$?fp_format_e@@YAHQEBNQEAD_K12H_NIQEAU__crt_locale_pointers@@@Z 00000001800569f4     libucrt:cvt.obj
 0002:000169f4       $unwind$__acrt_LCMapStringEx 00000001800569f4     libucrt:winapi_thunks.obj
 0002:000169f4       $unwind$_mbtowc_l          00000001800569f4     libucrt:mbtowc.obj
 0002:00016a08       $unwind$__acrt_is_interactive 0000000180056a08     libucrt:winapi_thunks.obj
 0002:00016a1c       $unwind$?_mbstowcs_l_helper@@YA_KPEA_WPEBD_KPEAU__crt_locale_pointers@@@Z 0000000180056a1c     libucrt:mbstowcs.obj
 0002:00016a34       $unwind$_fcloseall         0000000180056a34     libucrt:closeall.obj
 0002:00016a58       $unwind$__acrt_initialize_lowio 0000000180056a58     libucrt:ioinit.obj
 0002:00016a78       $unwind$?initialize_inherited_file_handles_nolock@@YAXXZ 0000000180056a78     libucrt:ioinit.obj
 0002:00016a94       $unwind$_wctomb_s_l        0000000180056a94     libucrt:wctomb.obj
 0002:00016aa4       $unwind$__acrt_fp_format   0000000180056aa4     libucrt:cvt.obj
 0002:00016ab8       $unwind$?fp_format_nan_or_infinity@@YAHW4__acrt_fp_class@@_NPEAD_K1@Z 0000000180056ab8     libucrt:cvt.obj
 0002:00016acc       $unwind$?fp_format_e_internal@@YAHQEAD_KH_NIQEAU_strflt@@2QEAU__crt_locale_pointers@@@Z 0000000180056acc     libucrt:cvt.obj
 0002:00016ae4       $unwind$?fp_format_a@@YAHQEBNPEAD_KQEAD2H_NIQEAU__crt_locale_pointers@@@Z 0000000180056ae4     libucrt:cvt.obj
 0002:00016b00       $unwind$__dcrt_get_narrow_environment_from_os 0000000180056b00     libucrt:get_environment_from_os.obj
 0002:00016b00       $unwind$?fp_format_f_internal@@YAHQEAD_KHQEAU_strflt@@_NQEAU__crt_locale_pointers@@@Z 0000000180056b00     libucrt:cvt.obj
 0002:00016b18       $unwind$?fp_format_g@@YAHQEBNQEAD_K12H_NIQEAU__crt_locale_pointers@@@Z 0000000180056b18     libucrt:cvt.obj
 0002:00016b2c       $unwind$_fputwc_nolock     0000000180056b2c     libucrt:fputwc.obj
 0002:00016b48       $unwind$_read              0000000180056b48     libucrt:read.obj
 0002:00016b78       $unwind$_read_nolock       0000000180056b78     libucrt:read.obj
 0002:00016b90       $unwind$?translate_ansi_or_utf8_nolock@@YAHHQEAD_KQEA_W1@Z 0000000180056b90     libucrt:read.obj
 0002:00016bac       $unwind$??$translate_text_mode_nolock@D@@YAHHQEAD_K@Z 0000000180056bac     libucrt:read.obj
 0002:00016bc4       $unwind$??$translate_text_mode_nolock@_W@@YAHHQEA_W_K@Z 0000000180056bc4     libucrt:read.obj
 0002:00016bdc       $unwind$??$write_buffer_nolock@D@@YA_NDV__crt_stdio_stream@@@Z 0000000180056bdc     libucrt:_flsbuf.obj
 0002:00016bec       $unwind$??$write_buffer_nolock@_W@@YA_N_WV__crt_stdio_stream@@@Z 0000000180056bec     libucrt:_flsbuf.obj
 0002:00016bfc       $unwind$??$common_expand_argv_wildcards@D@@YAHQEAPEADQEAPEAPEAD@Z 0000000180056bfc     libucrt:argv_wildcards.obj
 0002:00016c14       $unwind$??$copy_and_add_argument_to_buffer@D@@YAHQEBD0_KAEAV?$argument_list@D@?A0x5f5c8891@@@Z 0000000180056c14     libucrt:argv_wildcards.obj
 0002:00016c30       $unwind$??$expand_argument_wildcards@D@@YAHQEAD0AEAV?$argument_list@D@?A0x5f5c8891@@@Z 0000000180056c30     libucrt:argv_wildcards.obj
 0002:00016c50       $unwind$_setmbcp_nolock    0000000180056c50     libucrt:mbctype.obj
 0002:00016c70       $unwind$?update_thread_multibyte_data_internal@@YAPEAU__crt_multibyte_data@@QEAU__acrt_ptd@@QEAPEAU1@@Z 0000000180056c70     libucrt:mbctype.obj
 0002:00016c98       $unwind$?setmbcp_internal@@YAHH_NQEAU__acrt_ptd@@QEAPEAU__crt_multibyte_data@@@Z 0000000180056c98     libucrt:mbctype.obj
 0002:00016ca8       $unwind$?setSBUpLow@@YAXPEAU__crt_multibyte_data@@@Z 0000000180056ca8     libucrt:mbctype.obj
 0002:00016cc4       $unwind$??$?RV<lambda_efdfa57d1f175319df784efa44bb7b81>@@AEAV<lambda_5f0a4c1567f8adc6734073e5d1e1b35c>@@V<lambda_2e8a7d3640ea6ccb4c2413664c2db6fd>@@@?$__crt_seh_guarded_call@X@@QEAAX$$QEAV<lambda_efdfa57d1f175319df784efa44bb7b81>@@AEAV<lambda_5f0a4c1567f8adc6734073e5d1e1b35c>@@$$QEAV<lambda_2e8a7d3640ea6ccb4c2413664c2db6fd>@@@Z 0000000180056cc4     libucrt:mbctype.obj
 0002:00016ce8       $unwind$__acrt_update_thread_locale_data 0000000180056ce8     libucrt:locale_refcounting.obj
 0002:00016d0c       $unwind$__acrt_GetStringTypeA 0000000180056d0c     libucrt:getstringtypea.obj
 0002:00016d34       $unwind$__acrt_locale_free_monetary 0000000180056d34     libucrt:initmon.obj
 0002:00016d3c       $unwind$__acrt_locale_free_time 0000000180056d3c     libucrt:inittime.obj
 0002:00016d4c       $unwind$__dcrt_write_console 0000000180056d4c     libucrt:initcon.obj
 0002:00016d4c       $unwind$_strnicmp_l        0000000180056d4c     libucrt:strnicmp.obj
 0002:00016d60       $unwind$_sopen_nolock      0000000180056d60     libucrt:open.obj
 0002:00016d7c       $unwind$_wsopen_nolock     0000000180056d7c     libucrt:open.obj
 0002:00016d9c       $unwind$??$common_sopen_dispatch@D@@YAHQEBDHHHQEAHH@Z 0000000180056d9c     libucrt:open.obj
 0002:00016dc0       $unwind$?fin$0@?0???$common_sopen_dispatch@D@@YAHQEBDHHHQEAHH@Z@4HA 0000000180056dc0     libucrt:open.obj
 0002:00016dc8       $unwind$?decode_options@@YA?AUfile_options@?A0xa9d50aae@@HHH@Z 0000000180056dc8     libucrt:open.obj
 0002:00016ddc       $unwind$_alloc_osfhnd      0000000180056ddc     libucrt:osfinfo.obj
 0002:00016e0c       $unwind$__acrt_lowio_ensure_fh_exists 0000000180056e0c     libucrt:osfinfo.obj
 0002:00016e38       $unwind$__acrt_LCMapStringA 0000000180056e38     libucrt:lcmapstringa.obj
 0002:00016e48       $unwind$?__acrt_LCMapStringA_stat@@YAHPEAU__crt_locale_pointers@@PEB_WKPEBDHPEADHHH@Z 0000000180056e48     libucrt:lcmapstringa.obj
 0002:00016e70       $xdatasym                  0000000180056e70     libucrt:fpsr.obj
 0002:00016e78       $unwind$??$common_lseek@_J@@YA_JH_JH@Z 0000000180056e78     libucrt:lseek.obj
 0002:00016ea8       $unwind$_putwch_nolock     0000000180056ea8     libucrt:putwch.obj
 0002:00016eb0       $unwind$?GetTableIndexFromLocaleName@@YAHPEB_W@Z 0000000180056eb0     libucrt:lcidtoname_downlevel.obj
 0002:00016ec8       $unwind$?__mbsrtowcs_utf8@__crt_mbstring@@YA_KPEA_WPEAPEBD_KPEAU_Mbstatet@@@Z 0000000180056ec8     libucrt:mbrtowc.obj
 0002:00016ee0       $unwind$__acrt_fenv_set_control 0000000180056ee0     libucrt:_fenvutils.obj
 0002:00016ef0       $unwind$__acrt_fltout      0000000180056ef0     libucrt:cfout.obj
 0002:00016f10       $unwind$qsort              0000000180056f10     libucrt:qsort.obj
 0002:00016f28       $chain$4$qsort             0000000180056f28     libucrt:qsort.obj
 0002:00016f4c       $chain$5$qsort             0000000180056f4c     libucrt:qsort.obj
 0002:00016f5c       $unwind$fallbackMethod     0000000180056f5c     libucrt:strpbrk.obj
 0002:00016f6c       $unwind$__acrt_FindFirstFileExA 0000000180056f6c     libucrt:findfirstfileexa.obj
 0002:00016f7c       $unwind$??$__acrt_convert_wcs_mbs@D_W$$A6A_KPEA_WPEBD_KPEAU__crt_locale_pointers@@@ZU__crt_win32_buffer_internal_dynamic_resizing@@@@YAHQEBDAEAV?$__crt_win32_buffer@_WU__crt_win32_buffer_internal_dynamic_resizing@@@@A6A_KPEA_WPEBD_KPEAU__crt_locale_pointers@@@Z5@Z 0000000180056f7c     libucrt:findfirstfileexa.obj
 0002:00016f94       $unwind$__acrt_FindNextFileA 0000000180056f94     libucrt:findnextfilea.obj
 0002:00016fb0       $unwind$_mbsdec_l          0000000180056fb0     libucrt:mbsdec.obj
 0002:00016fbc       $unwind$_setmode_nolock    0000000180056fbc     libucrt:setmode.obj
 0002:00016fcc       $unwind$?__mbrtoc32_utf8@__crt_mbstring@@YA_KPEA_UPEBD_KPEAU_Mbstatet@@@Z 0000000180056fcc     libucrt:mbrtoc32.obj
 0002:00016fe8       $xdatasym                  0000000180056fe8     libucrt:log10.obj
 0002:00016ff4       $unwind$?_wcstombs_l_helper@@YA_KPEADPEB_W_KPEAU__crt_locale_pointers@@@Z 0000000180056ff4     libucrt:wcstombs.obj
 0002:00017018       $stateUnwindMap$?_wcstombs_l_helper@@YA_KPEADPEB_W_KPEAU__crt_locale_pointers@@@Z 0000000180057018     libucrt:wcstombs.obj
 0002:00017020       $ip2state$?_wcstombs_l_helper@@YA_KPEADPEB_W_KPEAU__crt_locale_pointers@@@Z 0000000180057020     libucrt:wcstombs.obj
 0002:00017038       $unwind$_call_matherr      0000000180057038     libucrt:libm_error.obj
 0002:00017040       $unwind$_handle_error      0000000180057040     libucrt:libm_error.obj
 0002:00017060       $unwind$__acrt_initialize_fma3 0000000180057060     libucrt:fma3_available.obj
 0002:00017068       $unwind$_log_special_common 0000000180057068     libucrt:log_special.obj
 0002:00017074       $unwind$?__wcsrtombs_utf8@__crt_mbstring@@YA_KPEADPEAPEB_W_KPEAU_Mbstatet@@@Z 0000000180057074     libucrt:wcrtomb.obj
 0002:00017094       $unwind$?DloadObtainSection@@YAPEAXPEAK0@Z 0000000180057094     DelayImp:delayhlp.obj
 0002:000170a4       $unwind$?DloadMakePermanentImageCommit@@YAXPEAX_K@Z 00000001800570a4     DelayImp:delayhlp.obj
 0002:000170b0       $unwind$?DloadProtectSection@@YAXKPEAK@Z 00000001800570b0     DelayImp:delayhlp.obj
 0002:000170c0       $unwind$__delayLoadHelper2 00000001800570c0     DelayImp:delayhlp.obj
 0002:000170d8       $unwind$_IsNonwritableInCurrentImage 00000001800570d8     LIBCMT:pesect.obj
 0002:00017100       $xdatasym                  0000000180057100     LIBCMT:chkstk.obj
 0002:00017108       $xdatasym                  0000000180057108     libvcruntime:memcmp.obj
 0002:00017110       $xdatasym                  0000000180057110     libvcruntime:setjmp.obj
 0002:00017118       $xdatasym                  0000000180057118     libucrt:pow.obj
 0002:00017128       $unwind$_pow_special       0000000180057128     libucrt:pow_special.obj
 0002:00018750       .edata                     0000000180058750     png_img.exp
 0002:00018778       rgpv                       0000000180058778     png_img.exp
 0002:0001877c       rgszName                   000000018005877c     png_img.exp
 0002:00018780       rgwOrd                     0000000180058780     png_img.exp
 0002:00018782       szName                     0000000180058782     png_img.exp
 0002:0001878f       $N00001                    000000018005878f     png_img.exp
 0002:00018a54       .idata$6                   0000000180058a54     kernel32:KERNEL32.dll
 0003:00000030       ?__vcrt_flsindex@@3KA      0000000180059030     libvcruntime:per_thread_data.obj
 0003:00000040       ?errno_no_memory@@3HA      0000000180059040     libucrt:errno.obj
 0003:00000044       ?doserrno_no_memory@@3KA   0000000180059044     libucrt:errno.obj
 0003:00000160       ?__acrt_flsindex@@3KA      0000000180059160     libucrt:per_thread_data.obj
 0003:000002dc       ?dazSupported@?1??_ctrlfp@@9@9 00000001800592dc     libucrt:fpctrl.obj
 0003:00000420       ?__rgctypeflag@@3PADA      0000000180059420     libucrt:mbctype.obj
 0003:00000430       ?__rgcode_page_info@@3PAUcode_page_info@@A 0000000180059430     libucrt:mbctype.obj
 0003:00000750       _mbctypes                  0000000180059750     libucrt:mbctype.obj
 0003:00000860       _mbcasemaps                0000000180059860     libucrt:mbctype.obj
 0003:00000a10       ?__dcrt_lowio_console_output_handle@@3PEAXEA 0000000180059a10     libucrt:initcon.obj
 0003:00000a30       _module                    0000000180059a30     init.obj
 0003:00000a70       static_d_desc              0000000180059a70     zlib:trees.obj
 0003:00000a90       static_bl_desc             0000000180059a90     zlib:trees.obj
 0003:00000ab0       static_l_desc              0000000180059ab0     zlib:trees.obj
 0003:00000c70       ??_R0?AV<lambda_b49605ea95fa7d5d6d7c78acb7625195>@@@8 0000000180059c70     PngImg.obj
 0003:00000cf0       ??_R0?AV<lambda_2c6c8b47390943ff5f68d13b30202b25>@@@8 0000000180059cf0     PngImg.obj
 0003:00000f98       ?is_initialized_as_dll@@3_NA 0000000180059f98     LIBCMT:utility.obj
 0003:00000f99       ?module_local_atexit_table_initialized@@3_NA 0000000180059f99     LIBCMT:utility.obj
 0003:00000fa0       ?module_local_atexit_table@@3U_onexit_table_t@@A 0000000180059fa0     LIBCMT:utility.obj
 0003:00000fb8       ?module_local_at_quick_exit_table@@3U_onexit_table_t@@A 0000000180059fb8     LIBCMT:utility.obj
 0003:00000fd0       ?__proc_attached@@3HA      0000000180059fd0     LIBCMT:dll_dllmain.obj
 0003:00000fe0       GS_ExceptionRecord         0000000180059fe0     LIBCMT:gs_report.obj
 0003:00001080       GS_ContextRecord           000000018005a080     LIBCMT:gs_report.obj
 0003:00001580       ?__vcrt_startup_thread_ptd@@3U__vcrt_ptd@@A 000000018005a580     libvcruntime:per_thread_data.obj
 0003:00001618       __vcrt_lock_table          000000018005a618     libvcruntime:locks.obj
 0003:00001640       __vcrt_locks_initialized   000000018005a640     libvcruntime:locks.obj
 0003:00001648       ?module_handles@@3PAPEAUHINSTANCE__@@A 000000018005a648     libvcruntime:winapi_downlevel.obj
 0003:00001660       ?encoded_function_pointers@@3PAPEAXA 000000018005a660     libvcruntime:winapi_downlevel.obj
 0003:000016c8       ?heap@@3V_HeapManager@@A   000000018005a6c8     libvcruntime:undname.obj
 0003:000016f0       ?__acrt_invalid_parameter_handler@@3V?$dual_state_global@P6AXPEB_W00I_K@Z@__crt_state_management@@A 000000018005a6f0     libucrt:invalid_parameter.obj
 0003:00001710       ?__acrt_new_handler@@3V?$dual_state_global@P6AH_K@Z@__crt_state_management@@A 000000018005a710     libucrt:new_handler.obj
 0003:00001718       ?c_termination_complete@@3JA 000000018005a718     libucrt:exit.obj
 0003:00001720       ?thread_local_exit_callback_func@@3P6AXPEAXK0@ZEA 000000018005a720     libucrt:exit.obj
 0003:00001730       ?program_name@?1???$common_configure_argv@D@@YAHW4_crt_argv_mode@@@Z@4PADA 000000018005a730     libucrt:argv_parsing.obj
 0003:00001898       ?__acrt_app_type@@3W4_crt_app_type@@A 000000018005a898     libucrt:report_runtime_error.obj
 0003:0000189c       __acrt_error_mode          000000018005a89c     libucrt:set_error_mode.obj
 0003:000018a0       ?ctrlc_action@@3V?$dual_state_global@P6AXH@Z@__crt_state_management@@A 000000018005a8a0     libucrt:signal.obj
 0003:000018a8       ?ctrlbreak_action@@3V?$dual_state_global@P6AXH@Z@__crt_state_management@@A 000000018005a8a8     libucrt:signal.obj
 0003:000018b0       ?abort_action@@3V?$dual_state_global@P6AXH@Z@__crt_state_management@@A 000000018005a8b0     libucrt:signal.obj
 0003:000018b8       ?term_action@@3V?$dual_state_global@P6AXH@Z@__crt_state_management@@A 000000018005a8b8     libucrt:signal.obj
 0003:000018c0       ?__acrt_lock_table@@3PAU_RTL_CRITICAL_SECTION@@A 000000018005a8c0     libucrt:locks.obj
 0003:00001af0       ?__acrt_locks_initialized@@3IA 000000018005aaf0     libucrt:locks.obj
 0003:00001b00       ?module_handles@@3PAPEAUHINSTANCE__@@A 000000018005ab00     libucrt:winapi_thunks.obj
 0003:00001ba0       ?encoded_function_pointers@@3PAPEAXA 000000018005aba0     libucrt:winapi_thunks.obj
 0003:000020b8       ?internal_state@?1??_mbtowc_l@@9@4U_Mbstatet@@A 000000018005b0b8     libucrt:mbtowc.obj
 0003:000020c0       ?enable_percent_n@@3_KA    000000018005b0c0     libucrt:printf_count_output.obj
 0003:000020d8       ?state_cache@?1???$get_cached_win_policy@Udeveloper_information_policy_properties@?1??__acrt_get_developer_information_policy@@YA?AW4developer_information_policy@@XZ@@@YA?AW4developer_information_policy@@W4AppPolicyShowDeveloperDiagnostic@@@Z@4JA 000000018005b0d8     libucrt:win_policies.obj
 0003:000020dc       ?state_cache@?1???$get_cached_win_policy@Uwindowing_model_policy_properties@?1??__acrt_get_windowing_model_policy@@YA?AW4windowing_model_policy@@XZ@@@YA?AW4windowing_model_policy@@W4AppPolicyWindowingModel@@@Z@4JA 000000018005b0dc     libucrt:win_policies.obj
 0003:000020f8       ?fSystemSet@@3HA           000000018005b0f8     libucrt:mbctype.obj
 0003:000020fc       ?initialized@?1??__acrt_initialize_multibyte@@9@4_NA 000000018005b0fc     libucrt:mbctype.obj
 0003:00002138       ?user_matherr@@3V?$dual_state_global@P6AHPEAU_exception@@@Z@__crt_state_management@@A 000000018005b138     libucrt:matherr.obj
 0003:00002148       ?__acrt_global_new_mode@@3V?$dual_state_global@J@__crt_state_management@@A 000000018005b148     libucrt:new_mode.obj
 0003:00002158       ?internal_pst@?1??__mbrtoc32_utf8@__crt_mbstring@@YA_KPEA_UPEBD_KPEAU_Mbstatet@@@Z@4U3@A 000000018005b158     libucrt:mbrtoc32.obj
 0003:00002170       ?internal_pst@?1??__c16rtomb_utf8@__crt_mbstring@@YA_KPEAD_SPEAU_Mbstatet@@@Z@4U3@A 000000018005b170     libucrt:c16rtomb.obj
 0003:000021a8       ?pngImgAdapterConstructor@@3V?$Persistent@VFunctionTemplate@v8@@V?$NonCopyablePersistentTraits@VFunctionTemplate@v8@@@2@@Nan@@A 000000018005b1a8     PngImgAdapter.obj
 0004:00000000       $pdata$?FunctionCallbackWrapper@imp@Nan@@YAXAEBV?$FunctionCallbackInfo@VValue@v8@@@v8@@@Z 000000018005c000     init.obj
 0004:0000000c       $pdata$?New@?$Factory@VFunctionTemplate@v8@@@imp@Nan@@SA?AV?$Local@VFunctionTemplate@v8@@@v8@@P6AXAEBV?$FunctionCallbackInfo@VValue@v8@@@3@@ZV?$Local@VValue@v8@@@5@V?$Local@VSignature@v8@@@5@@Z 000000018005c00c     init.obj
 0004:00000018       $pdata$?InitAll@@YAXV?$Local@VObject@v8@@@v8@@@Z 000000018005c018     init.obj
 0004:00000024       $pdata$??1ObjectWrap@node@@UEAA@XZ 000000018005c024     PngImgAdapter.obj
 0004:00000030       $pdata$?Ref@ObjectWrap@node@@MEAAXXZ 000000018005c030     PngImgAdapter.obj
 0004:0000003c       $pdata$?Unref@ObjectWrap@node@@MEAAXXZ 000000018005c03c     PngImgAdapter.obj
 0004:00000048       $pdata$?WeakCallback@ObjectWrap@node@@CAXAEBV?$WeakCallbackInfo@VObjectWrap@node@@@v8@@@Z 000000018005c048     PngImgAdapter.obj
 0004:00000054       $pdata$??_GObjectWrap@node@@UEAAPEAXI@Z 000000018005c054     PngImgAdapter.obj
 0004:00000060       $pdata$?GetterCallbackWrapper@imp@Nan@@YAXV?$Local@VName@v8@@@v8@@AEBV?$PropertyCallbackInfo@VValue@v8@@@4@@Z 000000018005c060     PngImgAdapter.obj
 0004:0000006c       $pdata$?ThrowError@Nan@@YAXPEBD@Z 000000018005c06c     PngImgAdapter.obj
 0004:00000078       $pdata$??0Utf8String@Nan@@QEAA@V?$Local@VValue@v8@@@v8@@@Z 000000018005c078     PngImgAdapter.obj
 0004:00000084       $pdata$?Call@Callback@Nan@@QEBA?AV?$MaybeLocal@VValue@v8@@@v8@@HQEAV?$Local@VValue@v8@@@4@PEAVAsyncResource@2@@Z 000000018005c084     PngImgAdapter.obj
 0004:00000090       $pdata$??1AsyncWorker@Nan@@UEAA@XZ 000000018005c090     PngImgAdapter.obj
 0004:0000009c       $pdata$?WorkComplete@AsyncWorker@Nan@@UEAAXXZ 000000018005c09c     PngImgAdapter.obj
 0004:000000a8       $pdata$?HandleOKCallback@AsyncWorker@Nan@@MEAAXXZ 000000018005c0a8     PngImgAdapter.obj
 0004:000000b4       $pdata$?HandleErrorCallback@AsyncWorker@Nan@@MEAAXXZ 000000018005c0b4     PngImgAdapter.obj
 0004:000000c0       $pdata$??_GAsyncWorker@Nan@@UEAAPEAXI@Z 000000018005c0c0     PngImgAdapter.obj
 0004:000000cc       $pdata$??1?$Persistent@VObject@v8@@V?$NonCopyablePersistentTraits@VObject@v8@@@2@@Nan@@QEAA@XZ 000000018005c0cc     PngImgAdapter.obj
 0004:000000d8       $pdata$?AsyncExecute@Nan@@YAXPEAUuv_work_s@@@Z 000000018005c0d8     PngImgAdapter.obj
 0004:000000e4       $pdata$?AsyncExecuteComplete@Nan@@YAXPEAUuv_work_s@@@Z 000000018005c0e4     PngImgAdapter.obj
 0004:000000f0       $pdata$?SetPrototypeMethod@Nan@@YAXV?$Local@VFunctionTemplate@v8@@@v8@@PEBDP6AXAEBV?$FunctionCallbackInfo@VValue@v8@@@1@@Z@Z 000000018005c0f0     PngImgAdapter.obj
 0004:000000fc       $pdata$?SetAccessor@Nan@@YAXV?$Local@VObjectTemplate@v8@@@v8@@V?$Local@VString@v8@@@3@P6AX1AEBV?$PropertyCallbackInfo@VValue@v8@@@1@@ZP6AX1V?$Local@VValue@v8@@@3@AEBV?$PropertyCallbackInfo@X@1@@Z4W4AccessControl@3@W4PropertyAttribute@3@V?$Local@VAccessorSignature@v8@@@3@@Z 000000018005c0fc     PngImgAdapter.obj
 0004:00000108       $pdata$??_GPngImgAdapter@@UEAAPEAXI@Z 000000018005c108     PngImgAdapter.obj
 0004:00000114       $pdata$??0SaveWorker@@QEAA@PEAVCallback@Nan@@AEAVPngImg@@V?$basic_string@DU?$char_traits@D@std@@V?$allocator@D@2@@std@@AEBV?$Local@VObject@v8@@@v8@@@Z 000000018005c114     PngImgAdapter.obj
 0004:00000120       $pdata$?Execute@SaveWorker@@UEAAXXZ 000000018005c120     PngImgAdapter.obj
 0004:0000012c       $pdata$??_GSaveWorker@@UEAAPEAXI@Z 000000018005c12c     PngImgAdapter.obj
 0004:00000138       $pdata$?Init@PngImgAdapter@@SAXXZ 000000018005c138     PngImgAdapter.obj
 0004:00000144       $pdata$?NewInstance@PngImgAdapter@@SAXAEBV?$FunctionCallbackInfo@VValue@v8@@@Nan@@@Z 000000018005c144     PngImgAdapter.obj
 0004:00000150       $pdata$?New@PngImgAdapter@@CAXAEBV?$FunctionCallbackInfo@VValue@v8@@@Nan@@@Z 000000018005c150     PngImgAdapter.obj
 0004:0000015c       $pdata$?Width@PngImgAdapter@@CAXV?$Local@VString@v8@@@v8@@AEBV?$PropertyCallbackInfo@VValue@v8@@@Nan@@@Z 000000018005c15c     PngImgAdapter.obj
 0004:00000168       $pdata$?Height@PngImgAdapter@@CAXV?$Local@VString@v8@@@v8@@AEBV?$PropertyCallbackInfo@VValue@v8@@@Nan@@@Z 000000018005c168     PngImgAdapter.obj
 0004:00000174       $pdata$?Get@PngImgAdapter@@CAXAEBV?$FunctionCallbackInfo@VValue@v8@@@Nan@@@Z 000000018005c174     PngImgAdapter.obj
 0004:00000180       $pdata$?RGBObjToPxl@@YA?AUPxl@@AEBV?$Local@VObject@v8@@@v8@@@Z 000000018005c180     PngImgAdapter.obj
 0004:0000018c       $pdata$??R<lambda_c6484637a8e92c945a958729cd5afacb>@@QEBAHAEBV?$basic_string@DU?$char_traits@D@std@@V?$allocator@D@2@@std@@@Z 000000018005c18c     PngImgAdapter.obj
 0004:00000198       $pdata$?Fill@PngImgAdapter@@CAXAEBV?$FunctionCallbackInfo@VValue@v8@@@Nan@@@Z 000000018005c198     PngImgAdapter.obj
 0004:000001a4       $pdata$?Crop@PngImgAdapter@@CAXAEBV?$FunctionCallbackInfo@VValue@v8@@@Nan@@@Z 000000018005c1a4     PngImgAdapter.obj
 0004:000001b0       $pdata$?SetSize@PngImgAdapter@@CAXAEBV?$FunctionCallbackInfo@VValue@v8@@@Nan@@@Z 000000018005c1b0     PngImgAdapter.obj
 0004:000001bc       $pdata$?Insert@PngImgAdapter@@CAXAEBV?$FunctionCallbackInfo@VValue@v8@@@Nan@@@Z 000000018005c1bc     PngImgAdapter.obj
 0004:000001c8       $pdata$?RotateRight@PngImgAdapter@@CAXAEBV?$FunctionCallbackInfo@VValue@v8@@@Nan@@@Z 000000018005c1c8     PngImgAdapter.obj
 0004:000001d4       $pdata$?RotateLeft@PngImgAdapter@@CAXAEBV?$FunctionCallbackInfo@VValue@v8@@@Nan@@@Z 000000018005c1d4     PngImgAdapter.obj
 0004:000001e0       $pdata$?Write@PngImgAdapter@@CAXAEBV?$FunctionCallbackInfo@VValue@v8@@@Nan@@@Z 000000018005c1e0     PngImgAdapter.obj
 0004:000001ec       $pdata$??1?$basic_string@DU?$char_traits@D@std@@V?$allocator@D@2@@std@@QEAA@XZ 000000018005c1ec     PngImgAdapter.obj
 0004:000001f8       $pdata$??0?$basic_string@DU?$char_traits@D@std@@V?$allocator@D@2@@std@@QEAA@AEBV01@@Z 000000018005c1f8     PngImgAdapter.obj
 0004:00000204       $pdata$?assign@?$basic_string@DU?$char_traits@D@std@@V?$allocator@D@2@@std@@QEAAAEAV12@QEBD@Z 000000018005c204     PngImgAdapter.obj
 0004:00000210       $pdata$??$Unwrap@VPngImgAdapter@@@ObjectWrap@node@@SAPEAVPngImgAdapter@@V?$Local@VObject@v8@@@v8@@@Z 000000018005c210     PngImgAdapter.obj
 0004:0000021c       $pdata$?_Xlen@?$basic_string@DU?$char_traits@D@std@@V?$allocator@D@2@@std@@SAXXZ 000000018005c21c     PngImgAdapter.obj
 0004:00000228       $pdata$??0PngStruct@@IEAA@V?$function@$$A6APEAUpng_struct_def@@PEBDPEAXP6AXPEAU1@0@Z3@Z@std@@V?$function@$$A6AXPEAPEAUpng_struct_def@@PEAPEAUpng_info_def@@@Z@2@@Z 000000018005c228     PngImg.obj
 0004:00000234       $pdata$??1PngStruct@@IEAA@XZ 000000018005c234     PngImg.obj
 0004:00000240       $pdata$??1?$function@$$A6A?AUPoint@@AEBU1@AEBUImgInfo@@@Z@std@@QEAA@XZ 000000018005c240     PngImg.obj
 0004:00000240       $pdata$??1?$function@$$A6AXPEAPEAUpng_struct_def@@PEAPEAUpng_info_def@@@Z@std@@QEAA@XZ 000000018005c240     PngImg.obj
 0004:0000024c       $pdata$??1?$function@$$A6APEAUpng_struct_def@@PEBDPEAXP6AXPEAU1@0@Z3@Z@std@@QEAA@XZ 000000018005c24c     PngImg.obj
 0004:00000258       $pdata$?readFromBuf@@YAXPEAUpng_struct_def@@PEAE_K@Z 000000018005c258     PngImg.obj
 0004:00000264       $pdata$??0PngImg@@QEAA@PEBD_K@Z 000000018005c264     PngImg.obj
 0004:00000270       $pdata$??1PngImg@@QEAA@XZ  000000018005c270     PngImg.obj
 0004:0000027c       $pdata$?InitStorage_@PngImg@@AEAAXXZ 000000018005c27c     PngImg.obj
 0004:00000288       $pdata$?Get@PngImg@@QEBA?AV?$unique_ptr@UPxl@@U?$default_delete@UPxl@@@std@@@std@@II@Z 000000018005c288     PngImg.obj
 0004:00000294       $pdata$0$?Get@PngImg@@QEBA?AV?$unique_ptr@UPxl@@U?$default_delete@UPxl@@@std@@@std@@II@Z 000000018005c294     PngImg.obj
 0004:000002a0       $pdata$2$?Get@PngImg@@QEBA?AV?$unique_ptr@UPxl@@U?$default_delete@UPxl@@@std@@@std@@II@Z 000000018005c2a0     PngImg.obj
 0004:000002ac       $pdata$3$?Get@PngImg@@QEBA?AV?$unique_ptr@UPxl@@U?$default_delete@UPxl@@@std@@@std@@II@Z 000000018005c2ac     PngImg.obj
 0004:000002b8       $pdata$?Insert@PngImg@@QEAAXAEBV1@II@Z 000000018005c2b8     PngImg.obj
 0004:000002c4       $pdata$3$?Insert@PngImg@@QEAAXAEBV1@II@Z 000000018005c2c4     PngImg.obj
 0004:000002d0       $pdata$4$?Insert@PngImg@@QEAAXAEBV1@II@Z 000000018005c2d0     PngImg.obj
 0004:000002dc       $pdata$?CopyRows_@PngImg@@AEAAXAEBV?$vector@PEAEV?$allocator@PEAE@std@@@std@@_K1II@Z 000000018005c2dc     PngImg.obj
 0004:000002e8       $pdata$1$?CopyRows_@PngImg@@AEAAXAEBV?$vector@PEAEV?$allocator@PEAE@std@@@std@@_K1II@Z 000000018005c2e8     PngImg.obj
 0004:000002f4       $pdata$2$?CopyRows_@PngImg@@AEAAXAEBV?$vector@PEAEV?$allocator@PEAE@std@@@std@@_K1II@Z 000000018005c2f4     PngImg.obj
 0004:00000300       $pdata$?Rotate_@PngImg@@AEAAXV?$function@$$A6A?AUPoint@@AEBU1@AEBUImgInfo@@@Z@std@@@Z 000000018005c300     PngImg.obj
 0004:0000030c       $pdata$?Write@PngImg@@QEAA_NAEBV?$basic_string@DU?$char_traits@D@std@@V?$allocator@D@2@@std@@@Z 000000018005c30c     PngImg.obj
 0004:00000318       $pdata$??1?$vector@PEAEV?$allocator@PEAE@std@@@std@@QEAA@XZ 000000018005c318     PngImg.obj
 0004:00000324       $pdata$??0?$vector@PEAEV?$allocator@PEAE@std@@@std@@QEAA@AEBV01@@Z 000000018005c324     PngImg.obj
 0004:00000330       $pdata$0$??0?$vector@PEAEV?$allocator@PEAE@std@@@std@@QEAA@AEBV01@@Z 000000018005c330     PngImg.obj
 0004:0000033c       $pdata$1$??0?$vector@PEAEV?$allocator@PEAE@std@@@std@@QEAA@AEBV01@@Z 000000018005c33c     PngImg.obj
 0004:00000348       $pdata$?_Xlength@?$vector@PEAEV?$allocator@PEAE@std@@@std@@CAXXZ 000000018005c348     PngImg.obj
 0004:00000354       $pdata$??$_Resize@V<lambda_9dca8f4b3cdbd0d84484b3531e3d6dd6>@@@?$vector@PEAEV?$allocator@PEAE@std@@@std@@AEAAX_KV<lambda_9dca8f4b3cdbd0d84484b3531e3d6dd6>@@@Z 000000018005c354     PngImg.obj
 0004:00000360       $pdata$1$??$_Resize@V<lambda_9dca8f4b3cdbd0d84484b3531e3d6dd6>@@@?$vector@PEAEV?$allocator@PEAE@std@@@std@@AEAAX_KV<lambda_9dca8f4b3cdbd0d84484b3531e3d6dd6>@@@Z 000000018005c360     PngImg.obj
 0004:0000036c       $pdata$2$??$_Resize@V<lambda_9dca8f4b3cdbd0d84484b3531e3d6dd6>@@@?$vector@PEAEV?$allocator@PEAE@std@@@std@@AEAAX_KV<lambda_9dca8f4b3cdbd0d84484b3531e3d6dd6>@@@Z 000000018005c36c     PngImg.obj
 0004:00000378       $pdata$3$??$_Resize@V<lambda_9dca8f4b3cdbd0d84484b3531e3d6dd6>@@@?$vector@PEAEV?$allocator@PEAE@std@@@std@@AEAAX_KV<lambda_9dca8f4b3cdbd0d84484b3531e3d6dd6>@@@Z 000000018005c378     PngImg.obj
 0004:00000384       $pdata$4$??$_Resize@V<lambda_9dca8f4b3cdbd0d84484b3531e3d6dd6>@@@?$vector@PEAEV?$allocator@PEAE@std@@@std@@AEAAX_KV<lambda_9dca8f4b3cdbd0d84484b3531e3d6dd6>@@@Z 000000018005c384     PngImg.obj
 0004:00000390       $pdata$??$_Resize@V<lambda_ff6d807a18974217bb88e503912aa51c>@@@?$vector@PEAEV?$allocator@PEAE@std@@@std@@AEAAX_KV<lambda_ff6d807a18974217bb88e503912aa51c>@@@Z 000000018005c390     PngImg.obj
 0004:0000039c       $pdata$0$??$_Resize@V<lambda_ff6d807a18974217bb88e503912aa51c>@@@?$vector@PEAEV?$allocator@PEAE@std@@@std@@AEAAX_KV<lambda_ff6d807a18974217bb88e503912aa51c>@@@Z 000000018005c39c     PngImg.obj
 0004:000003a8       $pdata$1$??$_Resize@V<lambda_ff6d807a18974217bb88e503912aa51c>@@@?$vector@PEAEV?$allocator@PEAE@std@@@std@@AEAAX_KV<lambda_ff6d807a18974217bb88e503912aa51c>@@@Z 000000018005c3a8     PngImg.obj
 0004:000003b4       $pdata$2$??$_Resize@V<lambda_ff6d807a18974217bb88e503912aa51c>@@@?$vector@PEAEV?$allocator@PEAE@std@@@std@@AEAAX_KV<lambda_ff6d807a18974217bb88e503912aa51c>@@@Z 000000018005c3b4     PngImg.obj
 0004:000003c0       $pdata$3$??$_Resize@V<lambda_ff6d807a18974217bb88e503912aa51c>@@@?$vector@PEAEV?$allocator@PEAE@std@@@std@@AEAAX_KV<lambda_ff6d807a18974217bb88e503912aa51c>@@@Z 000000018005c3c0     PngImg.obj
 0004:000003cc       $pdata$?_Change_array@?$vector@PEAEV?$allocator@PEAE@std@@@std@@AEAAXQEAPEAE_K1@Z 000000018005c3cc     PngImg.obj
 0004:000003d8       $pdata$?_Do_call@?$_Func_impl_no_alloc@P6APEAUpng_struct_def@@PEBDPEAXP6AXPEAU1@0@Z3@ZPEAU1@PEBDPEAXP6AX20@ZP6AX20@Z@std@@EEAAPEAUpng_struct_def@@$$QEAPEBD$$QEAPEAX$$QEAP6AXPEAU3@PEBD@Z4@Z 000000018005c3d8     PngImg.obj
 0004:000003e4       $pdata$?_Do_call@?$_Func_impl_no_alloc@V<lambda_2a721ab91676828147c5c332544348da>@@XPEAPEAUpng_struct_def@@PEAPEAUpng_info_def@@@std@@EEAAX$$QEAPEAPEAUpng_struct_def@@$$QEAPEAPEAUpng_info_def@@@Z 000000018005c3e4     PngImg.obj
 0004:000003f0       $pdata$?_Do_call@?$_Func_impl_no_alloc@V<lambda_b270b1f630724084d5f3bb877471ea65>@@XPEAPEAUpng_struct_def@@PEAPEAUpng_info_def@@@std@@EEAAX$$QEAPEAPEAUpng_struct_def@@$$QEAPEAPEAUpng_info_def@@@Z 000000018005c3f0     PngImg.obj
 0004:000003fc       $pdata$?_Do_call@?$_Func_impl_no_alloc@V<lambda_2c6c8b47390943ff5f68d13b30202b25>@@UPoint@@AEBU2@AEBUImgInfo@@@std@@EEAA?AUPoint@@AEBU3@AEBUImgInfo@@@Z 000000018005c3fc     PngImg.obj
 0004:00000408       $pdata$?_Do_call@?$_Func_impl_no_alloc@V<lambda_b49605ea95fa7d5d6d7c78acb7625195>@@UPoint@@AEBU2@AEBUImgInfo@@@std@@EEAA?AUPoint@@AEBU3@AEBUImgInfo@@@Z 000000018005c408     PngImg.obj
 0004:00000414       $pdata$?load_exe_hook@@YAP6A_JXZIPEAUDelayLoadInfo@@@Z 000000018005c414     win_delay_load_hook.obj
 0004:00000420       $pdata$png_sig_cmp         000000018005c420     libpng:png.obj
 0004:0000042c       $pdata$png_zalloc          000000018005c42c     libpng:png.obj
 0004:00000438       $pdata$png_calculate_crc   000000018005c438     libpng:png.obj
 0004:00000444       $pdata$1$png_calculate_crc 000000018005c444     libpng:png.obj
 0004:00000450       $pdata$2$png_calculate_crc 000000018005c450     libpng:png.obj
 0004:0000045c       $pdata$png_user_version_check 000000018005c45c     libpng:png.obj
 0004:00000468       $pdata$png_create_png_struct 000000018005c468     libpng:png.obj
 0004:00000474       $pdata$png_destroy_info_struct 000000018005c474     libpng:png.obj
 0004:00000480       $pdata$0$png_destroy_info_struct 000000018005c480     libpng:png.obj
 0004:0000048c       $pdata$2$png_destroy_info_struct 000000018005c48c     libpng:png.obj
 0004:00000498       $pdata$3$png_destroy_info_struct 000000018005c498     libpng:png.obj
 0004:000004a4       $pdata$png_free_data       000000018005c4a4     libpng:png.obj
 0004:000004b0       $pdata$1$png_free_data     000000018005c4b0     libpng:png.obj
 0004:000004bc       $pdata$2$png_free_data     000000018005c4bc     libpng:png.obj
 0004:000004c8       $pdata$3$png_free_data     000000018005c4c8     libpng:png.obj
 0004:000004d4       $pdata$png_chunk_unknown_handling 000000018005c4d4     libpng:png.obj
 0004:000004e0       $pdata$png_colorspace_check_gamma 000000018005c4e0     libpng:png.obj
 0004:000004ec       $pdata$png_colorspace_set_gamma 000000018005c4ec     libpng:png.obj
 0004:000004f8       $pdata$png_xy_from_XYZ     000000018005c4f8     libpng:png.obj
 0004:00000504       $pdata$png_XYZ_from_xy     000000018005c504     libpng:png.obj
 0004:00000510       $pdata$png_colorspace_set_xy_and_XYZ 000000018005c510     libpng:png.obj
 0004:0000051c       $pdata$png_colorspace_set_chromaticities 000000018005c51c     libpng:png.obj
 0004:00000528       $pdata$png_icc_profile_error 000000018005c528     libpng:png.obj
 0004:00000534       $pdata$png_colorspace_set_sRGB 000000018005c534     libpng:png.obj
 0004:00000540       $pdata$png_icc_check_header 000000018005c540     libpng:png.obj
 0004:0000054c       $pdata$png_icc_check_tag_table 000000018005c54c     libpng:png.obj
 0004:00000558       $pdata$png_compare_ICC_profile_with_sRGB 000000018005c558     libpng:png.obj
 0004:00000564       $pdata$png_icc_set_sRGB    000000018005c564     libpng:png.obj
 0004:00000570       $pdata$png_colorspace_set_rgb_coefficients 000000018005c570     libpng:png.obj
 0004:0000057c       $pdata$5$png_colorspace_set_rgb_coefficients 000000018005c57c     libpng:png.obj
 0004:00000588       $pdata$6$png_colorspace_set_rgb_coefficients 000000018005c588     libpng:png.obj
 0004:00000594       $pdata$7$png_colorspace_set_rgb_coefficients 000000018005c594     libpng:png.obj
 0004:000005a0       $pdata$png_check_IHDR      000000018005c5a0     libpng:png.obj
 0004:000005ac       $pdata$png_check_fp_number 000000018005c5ac     libpng:png.obj
 0004:000005b8       $pdata$0$png_check_fp_number 000000018005c5b8     libpng:png.obj
 0004:000005c4       $pdata$1$png_check_fp_number 000000018005c5c4     libpng:png.obj
 0004:000005d0       $pdata$png_check_fp_string 000000018005c5d0     libpng:png.obj
 0004:000005dc       $pdata$png_muldiv          000000018005c5dc     libpng:png.obj
 0004:000005e8       $pdata$png_reciprocal      000000018005c5e8     libpng:png.obj
 0004:000005f4       $pdata$png_reciprocal2     000000018005c5f4     libpng:png.obj
 0004:00000600       $pdata$png_gamma_8bit_correct 000000018005c600     libpng:png.obj
 0004:0000060c       $pdata$png_gamma_correct   000000018005c60c     libpng:png.obj
 0004:00000618       $pdata$png_build_16bit_table 000000018005c618     libpng:png.obj
 0004:00000624       $pdata$3$png_build_16bit_table 000000018005c624     libpng:png.obj
 0004:00000630       $pdata$4$png_build_16bit_table 000000018005c630     libpng:png.obj
 0004:0000063c       $pdata$5$png_build_16bit_table 000000018005c63c     libpng:png.obj
 0004:00000648       $pdata$png_build_16to8_table 000000018005c648     libpng:png.obj
 0004:00000654       $pdata$2$png_build_16to8_table 000000018005c654     libpng:png.obj
 0004:00000660       $pdata$3$png_build_16to8_table 000000018005c660     libpng:png.obj
 0004:0000066c       $pdata$png_build_8bit_table 000000018005c66c     libpng:png.obj
 0004:00000678       $pdata$2$png_build_8bit_table 000000018005c678     libpng:png.obj
 0004:00000684       $pdata$3$png_build_8bit_table 000000018005c684     libpng:png.obj
 0004:00000690       $pdata$4$png_build_8bit_table 000000018005c690     libpng:png.obj
 0004:0000069c       $pdata$5$png_build_8bit_table 000000018005c69c     libpng:png.obj
 0004:000006a8       $pdata$png_destroy_gamma_table 000000018005c6a8     libpng:png.obj
 0004:000006b4       $pdata$png_build_gamma_table 000000018005c6b4     libpng:png.obj
 0004:000006c0       $pdata$0$png_build_gamma_table 000000018005c6c0     libpng:png.obj
 0004:000006cc       $pdata$1$png_build_gamma_table 000000018005c6cc     libpng:png.obj
 0004:000006d8       $pdata$write_unknown_chunks 000000018005c6d8     libpng:pngwrite.obj
 0004:000006e4       $pdata$0$write_unknown_chunks 000000018005c6e4     libpng:pngwrite.obj
 0004:000006f0       $pdata$1$write_unknown_chunks 000000018005c6f0     libpng:pngwrite.obj
 0004:000006fc       $pdata$2$write_unknown_chunks 000000018005c6fc     libpng:pngwrite.obj
 0004:00000708       $pdata$png_write_info_before_PLTE 000000018005c708     libpng:pngwrite.obj
 0004:00000714       $pdata$2$png_write_info_before_PLTE 000000018005c714     libpng:pngwrite.obj
 0004:00000720       $pdata$3$png_write_info_before_PLTE 000000018005c720     libpng:pngwrite.obj
 0004:0000072c       $pdata$4$png_write_info_before_PLTE 000000018005c72c     libpng:pngwrite.obj
 0004:00000738       $pdata$png_write_info      000000018005c738     libpng:pngwrite.obj
 0004:00000744       $pdata$0$png_write_info    000000018005c744     libpng:pngwrite.obj
 0004:00000750       $pdata$3$png_write_info    000000018005c750     libpng:pngwrite.obj
 0004:0000075c       $pdata$4$png_write_info    000000018005c75c     libpng:pngwrite.obj
 0004:00000768       $pdata$5$png_write_info    000000018005c768     libpng:pngwrite.obj
 0004:00000774       $pdata$6$png_write_info    000000018005c774     libpng:pngwrite.obj
 0004:00000780       $pdata$7$png_write_info    000000018005c780     libpng:pngwrite.obj
 0004:0000078c       $pdata$8$png_write_info    000000018005c78c     libpng:pngwrite.obj
 0004:00000798       $pdata$9$png_write_info    000000018005c798     libpng:pngwrite.obj
 0004:000007a4       $pdata$10$png_write_info   000000018005c7a4     libpng:pngwrite.obj
 0004:000007b0       $pdata$png_write_end       000000018005c7b0     libpng:pngwrite.obj
 0004:000007bc       $pdata$1$png_write_end     000000018005c7bc     libpng:pngwrite.obj
 0004:000007c8       $pdata$2$png_write_end     000000018005c7c8     libpng:pngwrite.obj
 0004:000007d4       $pdata$3$png_write_end     000000018005c7d4     libpng:pngwrite.obj
 0004:000007e0       $pdata$4$png_write_end     000000018005c7e0     libpng:pngwrite.obj
 0004:000007ec       $pdata$5$png_write_end     000000018005c7ec     libpng:pngwrite.obj
 0004:000007f8       $pdata$png_create_write_struct 000000018005c7f8     libpng:pngwrite.obj
 0004:00000804       $pdata$png_write_row       000000018005c804     libpng:pngwrite.obj
 0004:00000810       $pdata$0$png_write_row     000000018005c810     libpng:pngwrite.obj
 0004:0000081c       $pdata$1$png_write_row     000000018005c81c     libpng:pngwrite.obj
 0004:00000828       $pdata$2$png_write_row     000000018005c828     libpng:pngwrite.obj
 0004:00000834       $pdata$3$png_write_row     000000018005c834     libpng:pngwrite.obj
 0004:00000840       $pdata$png_write_destroy   000000018005c840     libpng:pngwrite.obj
 0004:0000084c       $pdata$0$png_write_destroy 000000018005c84c     libpng:pngwrite.obj
 0004:00000858       $pdata$1$png_write_destroy 000000018005c858     libpng:pngwrite.obj
 0004:00000864       $pdata$png_reset_filter_heuristics 000000018005c864     libpng:pngwrite.obj
 0004:00000870       $pdata$fprintf             000000018005c870     libpng:pngerror.obj
 0004:0000087c       $pdata$png_error           000000018005c87c     libpng:pngerror.obj
 0004:00000888       $pdata$png_warning         000000018005c888     libpng:pngerror.obj
 0004:00000894       $pdata$png_formatted_warning 000000018005c894     libpng:pngerror.obj
 0004:000008a0       $pdata$png_benign_error    000000018005c8a0     libpng:pngerror.obj
 0004:000008ac       $pdata$png_format_buffer   000000018005c8ac     libpng:pngerror.obj
 0004:000008b8       $pdata$png_chunk_error     000000018005c8b8     libpng:pngerror.obj
 0004:000008c4       $pdata$png_chunk_warning   000000018005c8c4     libpng:pngerror.obj
 0004:000008d0       $pdata$0$png_chunk_warning 000000018005c8d0     libpng:pngerror.obj
 0004:000008dc       $pdata$1$png_chunk_warning 000000018005c8dc     libpng:pngerror.obj
 0004:000008e8       $pdata$png_free_jmpbuf     000000018005c8e8     libpng:pngerror.obj
 0004:000008f4       $pdata$png_default_error   000000018005c8f4     libpng:pngerror.obj
 0004:00000900       $pdata$png_longjmp         000000018005c900     libpng:pngerror.obj
 0004:0000090c       $pdata$png_create_read_struct 000000018005c90c     libpng:pngread.obj
 0004:00000918       $pdata$png_read_info       000000018005c918     libpng:pngread.obj
 0004:00000924       $pdata$2$png_read_info     000000018005c924     libpng:pngread.obj
 0004:00000930       $pdata$3$png_read_info     000000018005c930     libpng:pngread.obj
 0004:0000093c       $pdata$4$png_read_info     000000018005c93c     libpng:pngread.obj
 0004:00000948       $pdata$png_read_row        000000018005c948     libpng:pngread.obj
 0004:00000954       $pdata$0$png_read_row      000000018005c954     libpng:pngread.obj
 0004:00000960       $pdata$1$png_read_row      000000018005c960     libpng:pngread.obj
 0004:0000096c       $pdata$2$png_read_row      000000018005c96c     libpng:pngread.obj
 0004:00000978       $pdata$png_read_image      000000018005c978     libpng:pngread.obj
 0004:00000984       $pdata$3$png_read_image    000000018005c984     libpng:pngread.obj
 0004:00000990       $pdata$4$png_read_image    000000018005c990     libpng:pngread.obj
 0004:0000099c       $pdata$png_read_destroy    000000018005c99c     libpng:pngread.obj
 0004:000009a8       $pdata$png_default_read_data 000000018005c9a8     libpng:pngrio.obj
 0004:000009b4       $pdata$png_set_IHDR        000000018005c9b4     libpng:pngset.obj
 0004:000009c0       $pdata$png_set_pCAL        000000018005c9c0     libpng:pngset.obj
 0004:000009cc       $pdata$0$png_set_pCAL      000000018005c9cc     libpng:pngset.obj
 0004:000009d8       $pdata$1$png_set_pCAL      000000018005c9d8     libpng:pngset.obj
 0004:000009e4       $pdata$4$png_set_pCAL      000000018005c9e4     libpng:pngset.obj
 0004:000009f0       $pdata$5$png_set_pCAL      000000018005c9f0     libpng:pngset.obj
 0004:000009fc       $pdata$6$png_set_pCAL      000000018005c9fc     libpng:pngset.obj
 0004:00000a08       $pdata$7$png_set_pCAL      000000018005ca08     libpng:pngset.obj
 0004:00000a14       $pdata$8$png_set_pCAL      000000018005ca14     libpng:pngset.obj
 0004:00000a20       $pdata$9$png_set_pCAL      000000018005ca20     libpng:pngset.obj
 0004:00000a2c       $pdata$10$png_set_pCAL     000000018005ca2c     libpng:pngset.obj
 0004:00000a38       $pdata$11$png_set_pCAL     000000018005ca38     libpng:pngset.obj
 0004:00000a44       $pdata$png_set_sCAL_s      000000018005ca44     libpng:pngset.obj
 0004:00000a50       $pdata$2$png_set_sCAL_s    000000018005ca50     libpng:pngset.obj
 0004:00000a5c       $pdata$3$png_set_sCAL_s    000000018005ca5c     libpng:pngset.obj
 0004:00000a68       $pdata$4$png_set_sCAL_s    000000018005ca68     libpng:pngset.obj
 0004:00000a74       $pdata$5$png_set_sCAL_s    000000018005ca74     libpng:pngset.obj
 0004:00000a80       $pdata$6$png_set_sCAL_s    000000018005ca80     libpng:pngset.obj
 0004:00000a8c       $pdata$7$png_set_sCAL_s    000000018005ca8c     libpng:pngset.obj
 0004:00000a98       $pdata$png_set_PLTE        000000018005ca98     libpng:pngset.obj
 0004:00000aa4       $pdata$0$png_set_PLTE      000000018005caa4     libpng:pngset.obj
 0004:00000ab0       $pdata$1$png_set_PLTE      000000018005cab0     libpng:pngset.obj
 0004:00000abc       $pdata$png_set_text_2      000000018005cabc     libpng:pngset.obj
 0004:00000ac8       $pdata$png_set_tRNS        000000018005cac8     libpng:pngset.obj
 0004:00000ad4       $pdata$0$png_set_tRNS      000000018005cad4     libpng:pngset.obj
 0004:00000ae0       $pdata$1$png_set_tRNS      000000018005cae0     libpng:pngset.obj
 0004:00000aec       $pdata$png_set_sPLT        000000018005caec     libpng:pngset.obj
 0004:00000af8       $pdata$0$png_set_sPLT      000000018005caf8     libpng:pngset.obj
 0004:00000b04       $pdata$2$png_set_sPLT      000000018005cb04     libpng:pngset.obj
 0004:00000b10       $pdata$3$png_set_sPLT      000000018005cb10     libpng:pngset.obj
 0004:00000b1c       $pdata$4$png_set_sPLT      000000018005cb1c     libpng:pngset.obj
 0004:00000b28       $pdata$5$png_set_sPLT      000000018005cb28     libpng:pngset.obj
 0004:00000b34       $pdata$6$png_set_sPLT      000000018005cb34     libpng:pngset.obj
 0004:00000b40       $pdata$7$png_set_sPLT      000000018005cb40     libpng:pngset.obj
 0004:00000b4c       $pdata$check_location      000000018005cb4c     libpng:pngset.obj
 0004:00000b58       $pdata$png_set_unknown_chunks 000000018005cb58     libpng:pngset.obj
 0004:00000b64       $pdata$0$png_set_unknown_chunks 000000018005cb64     libpng:pngset.obj
 0004:00000b70       $pdata$1$png_set_unknown_chunks 000000018005cb70     libpng:pngset.obj
 0004:00000b7c       $pdata$2$png_set_unknown_chunks 000000018005cb7c     libpng:pngset.obj
 0004:00000b88       $pdata$3$png_set_unknown_chunks 000000018005cb88     libpng:pngset.obj
 0004:00000b94       $pdata$4$png_set_unknown_chunks 000000018005cb94     libpng:pngset.obj
 0004:00000ba0       $pdata$5$png_set_unknown_chunks 000000018005cba0     libpng:pngset.obj
 0004:00000bac       $pdata$png_destroy_png_struct 000000018005cbac     libpng:pngmem.obj
 0004:00000bb8       $pdata$png_calloc          000000018005cbb8     libpng:pngmem.obj
 0004:00000bc4       $pdata$png_realloc_array   000000018005cbc4     libpng:pngmem.obj
 0004:00000bd0       $pdata$1$png_realloc_array 000000018005cbd0     libpng:pngmem.obj
 0004:00000bdc       $pdata$3$png_realloc_array 000000018005cbdc     libpng:pngmem.obj
 0004:00000be8       $pdata$4$png_realloc_array 000000018005cbe8     libpng:pngmem.obj
 0004:00000bf4       $pdata$png_malloc_warn     000000018005cbf4     libpng:pngmem.obj
 0004:00000c00       $pdata$png_do_strip_channel 000000018005cc00     libpng:pngtrans.obj
 0004:00000c0c       $pdata$0$png_do_strip_channel 000000018005cc0c     libpng:pngtrans.obj
 0004:00000c18       $pdata$1$png_do_strip_channel 000000018005cc18     libpng:pngtrans.obj
 0004:00000c24       $pdata$png_do_check_palette_indexes 000000018005cc24     libpng:pngtrans.obj
 0004:00000c30       $pdata$0$png_do_check_palette_indexes 000000018005cc30     libpng:pngtrans.obj
 0004:00000c3c       $pdata$1$png_do_check_palette_indexes 000000018005cc3c     libpng:pngtrans.obj
 0004:00000c48       $pdata$png_write_chunk_header 000000018005cc48     libpng:pngwutil.obj
 0004:00000c54       $pdata$1$png_write_chunk_header 000000018005cc54     libpng:pngwutil.obj
 0004:00000c60       $pdata$2$png_write_chunk_header 000000018005cc60     libpng:pngwutil.obj
 0004:00000c6c       $pdata$3$png_write_chunk_header 000000018005cc6c     libpng:pngwutil.obj
 0004:00000c78       $pdata$4$png_write_chunk_header 000000018005cc78     libpng:pngwutil.obj
 0004:00000c84       $pdata$png_write_chunk_data 000000018005cc84     libpng:pngwutil.obj
 0004:00000c90       $pdata$png_write_chunk_end 000000018005cc90     libpng:pngwutil.obj
 0004:00000c9c       $pdata$png_write_complete_chunk 000000018005cc9c     libpng:pngwutil.obj
 0004:00000ca8       $pdata$png_image_size      000000018005cca8     libpng:pngwutil.obj
 0004:00000cb4       $pdata$2$png_image_size    000000018005ccb4     libpng:pngwutil.obj
 0004:00000cc0       $pdata$3$png_image_size    000000018005ccc0     libpng:pngwutil.obj
 0004:00000ccc       $pdata$png_deflate_claim   000000018005cccc     libpng:pngwutil.obj
 0004:00000cd8       $pdata$3$png_deflate_claim 000000018005ccd8     libpng:pngwutil.obj
 0004:00000ce4       $pdata$4$png_deflate_claim 000000018005cce4     libpng:pngwutil.obj
 0004:00000cf0       $pdata$5$png_deflate_claim 000000018005ccf0     libpng:pngwutil.obj
 0004:00000cfc       $pdata$png_free_buffer_list 000000018005ccfc     libpng:pngwutil.obj
 0004:00000d08       $pdata$0$png_free_buffer_list 000000018005cd08     libpng:pngwutil.obj
 0004:00000d14       $pdata$1$png_free_buffer_list 000000018005cd14     libpng:pngwutil.obj
 0004:00000d20       $pdata$png_text_compress   000000018005cd20     libpng:pngwutil.obj
 0004:00000d2c       $pdata$0$png_text_compress 000000018005cd2c     libpng:pngwutil.obj
 0004:00000d38       $pdata$4$png_text_compress 000000018005cd38     libpng:pngwutil.obj
 0004:00000d44       $pdata$5$png_text_compress 000000018005cd44     libpng:pngwutil.obj
 0004:00000d50       $pdata$6$png_text_compress 000000018005cd50     libpng:pngwutil.obj
 0004:00000d5c       $pdata$png_write_compressed_data_out 000000018005cd5c     libpng:pngwutil.obj
 0004:00000d68       $pdata$png_check_keyword   000000018005cd68     libpng:pngwutil.obj
 0004:00000d74       $pdata$0$png_check_keyword 000000018005cd74     libpng:pngwutil.obj
 0004:00000d80       $pdata$1$png_check_keyword 000000018005cd80     libpng:pngwutil.obj
 0004:00000d8c       $pdata$2$png_check_keyword 000000018005cd8c     libpng:pngwutil.obj
 0004:00000d98       $pdata$3$png_check_keyword 000000018005cd98     libpng:pngwutil.obj
 0004:00000da4       $pdata$png_write_IHDR      000000018005cda4     libpng:pngwutil.obj
 0004:00000db0       $pdata$1$png_write_IHDR    000000018005cdb0     libpng:pngwutil.obj
 0004:00000dbc       $pdata$2$png_write_IHDR    000000018005cdbc     libpng:pngwutil.obj
 0004:00000dc8       $pdata$png_write_PLTE      000000018005cdc8     libpng:pngwutil.obj
 0004:00000dd4       $pdata$4$png_write_PLTE    000000018005cdd4     libpng:pngwutil.obj
 0004:00000de0       $pdata$6$png_write_PLTE    000000018005cde0     libpng:pngwutil.obj
 0004:00000dec       $pdata$7$png_write_PLTE    000000018005cdec     libpng:pngwutil.obj
 0004:00000df8       $pdata$8$png_write_PLTE    000000018005cdf8     libpng:pngwutil.obj
 0004:00000e04       $pdata$png_compress_IDAT   000000018005ce04     libpng:pngwutil.obj
 0004:00000e10       $pdata$2$png_compress_IDAT 000000018005ce10     libpng:pngwutil.obj
 0004:00000e1c       $pdata$4$png_compress_IDAT 000000018005ce1c     libpng:pngwutil.obj
 0004:00000e28       $pdata$5$png_compress_IDAT 000000018005ce28     libpng:pngwutil.obj
 0004:00000e34       $pdata$6$png_compress_IDAT 000000018005ce34     libpng:pngwutil.obj
 0004:00000e40       $pdata$png_write_iCCP      000000018005ce40     libpng:pngwutil.obj
 0004:00000e4c       $pdata$1$png_write_iCCP    000000018005ce4c     libpng:pngwutil.obj
 0004:00000e58       $pdata$3$png_write_iCCP    000000018005ce58     libpng:pngwutil.obj
 0004:00000e64       $pdata$4$png_write_iCCP    000000018005ce64     libpng:pngwutil.obj
 0004:00000e70       $pdata$5$png_write_iCCP    000000018005ce70     libpng:pngwutil.obj
 0004:00000e7c       $pdata$6$png_write_iCCP    000000018005ce7c     libpng:pngwutil.obj
 0004:00000e88       $pdata$png_write_sPLT      000000018005ce88     libpng:pngwutil.obj
 0004:00000e94       $pdata$0$png_write_sPLT    000000018005ce94     libpng:pngwutil.obj
 0004:00000ea0       $pdata$1$png_write_sPLT    000000018005cea0     libpng:pngwutil.obj
 0004:00000eac       $pdata$png_write_cHRM_fixed 000000018005ceac     libpng:pngwutil.obj
 0004:00000eb8       $pdata$png_write_tRNS      000000018005ceb8     libpng:pngwutil.obj
 0004:00000ec4       $pdata$0$png_write_tRNS    000000018005cec4     libpng:pngwutil.obj
 0004:00000ed0       $pdata$2$png_write_tRNS    000000018005ced0     libpng:pngwutil.obj
 0004:00000edc       $pdata$3$png_write_tRNS    000000018005cedc     libpng:pngwutil.obj
 0004:00000ee8       $pdata$4$png_write_tRNS    000000018005cee8     libpng:pngwutil.obj
 0004:00000ef4       $pdata$png_write_bKGD      000000018005cef4     libpng:pngwutil.obj
 0004:00000f00       $pdata$png_write_hIST      000000018005cf00     libpng:pngwutil.obj
 0004:00000f0c       $pdata$4$png_write_hIST    000000018005cf0c     libpng:pngwutil.obj
 0004:00000f18       $pdata$6$png_write_hIST    000000018005cf18     libpng:pngwutil.obj
 0004:00000f24       $pdata$png_write_tEXt      000000018005cf24     libpng:pngwutil.obj
 0004:00000f30       $pdata$0$png_write_tEXt    000000018005cf30     libpng:pngwutil.obj
 0004:00000f3c       $pdata$2$png_write_tEXt    000000018005cf3c     libpng:pngwutil.obj
 0004:00000f48       $pdata$3$png_write_tEXt    000000018005cf48     libpng:pngwutil.obj
 0004:00000f54       $pdata$4$png_write_tEXt    000000018005cf54     libpng:pngwutil.obj
 0004:00000f60       $pdata$png_write_zTXt      000000018005cf60     libpng:pngwutil.obj
 0004:00000f6c       $pdata$0$png_write_zTXt    000000018005cf6c     libpng:pngwutil.obj
 0004:00000f78       $pdata$1$png_write_zTXt    000000018005cf78     libpng:pngwutil.obj
 0004:00000f84       $pdata$2$png_write_zTXt    000000018005cf84     libpng:pngwutil.obj
 0004:00000f90       $pdata$3$png_write_zTXt    000000018005cf90     libpng:pngwutil.obj
 0004:00000f9c       $pdata$4$png_write_zTXt    000000018005cf9c     libpng:pngwutil.obj
 0004:00000fa8       $pdata$png_write_iTXt      000000018005cfa8     libpng:pngwutil.obj
 0004:00000fb4       $pdata$2$png_write_iTXt    000000018005cfb4     libpng:pngwutil.obj
 0004:00000fc0       $pdata$3$png_write_iTXt    000000018005cfc0     libpng:pngwutil.obj
 0004:00000fcc       $pdata$4$png_write_iTXt    000000018005cfcc     libpng:pngwutil.obj
 0004:00000fd8       $pdata$png_write_pCAL      000000018005cfd8     libpng:pngwutil.obj
 0004:00000fe4       $pdata$3$png_write_pCAL    000000018005cfe4     libpng:pngwutil.obj
 0004:00000ff0       $pdata$5$png_write_pCAL    000000018005cff0     libpng:pngwutil.obj
 0004:00000ffc       $pdata$6$png_write_pCAL    000000018005cffc     libpng:pngwutil.obj
 0004:00001008       $pdata$7$png_write_pCAL    000000018005d008     libpng:pngwutil.obj
 0004:00001014       $pdata$png_write_tIME      000000018005d014     libpng:pngwutil.obj
 0004:00001020       $pdata$png_write_start_row 000000018005d020     libpng:pngwutil.obj
 0004:0000102c       $pdata$png_write_finish_row 000000018005d02c     libpng:pngwutil.obj
 0004:00001038       $pdata$0$png_write_finish_row 000000018005d038     libpng:pngwutil.obj
 0004:00001044       $pdata$1$png_write_finish_row 000000018005d044     libpng:pngwutil.obj
 0004:00001050       $pdata$png_do_write_interlace 000000018005d050     libpng:pngwutil.obj
 0004:0000105c       $pdata$5$png_do_write_interlace 000000018005d05c     libpng:pngwutil.obj
 0004:00001068       $pdata$6$png_do_write_interlace 000000018005d068     libpng:pngwutil.obj
 0004:00001074       $pdata$7$png_do_write_interlace 000000018005d074     libpng:pngwutil.obj
 0004:00001080       $pdata$8$png_do_write_interlace 000000018005d080     libpng:pngwutil.obj
 0004:0000108c       $pdata$9$png_do_write_interlace 000000018005d08c     libpng:pngwutil.obj
 0004:00001098       $pdata$10$png_do_write_interlace 000000018005d098     libpng:pngwutil.obj
 0004:000010a4       $pdata$png_write_find_filter 000000018005d0a4     libpng:pngwutil.obj
 0004:000010b0       $pdata$5$png_write_find_filter 000000018005d0b0     libpng:pngwutil.obj
 0004:000010bc       $pdata$6$png_write_find_filter 000000018005d0bc     libpng:pngwutil.obj
 0004:000010c8       $pdata$png_default_write_data 000000018005d0c8     libpng:pngwio.obj
 0004:000010d4       $pdata$png_do_pack         000000018005d0d4     libpng:pngwtran.obj
 0004:000010e0       $pdata$png_do_shift        000000018005d0e0     libpng:pngwtran.obj
 0004:000010ec       $pdata$5$png_do_shift      000000018005d0ec     libpng:pngwtran.obj
 0004:000010f8       $pdata$6$png_do_shift      000000018005d0f8     libpng:pngwtran.obj
 0004:00001104       $pdata$png_do_write_transformations 000000018005d104     libpng:pngwtran.obj
 0004:00001110       $pdata$png_read_chunk_header 000000018005d110     libpng:pngrutil.obj
 0004:0000111c       $pdata$0$png_read_chunk_header 000000018005d11c     libpng:pngrutil.obj
 0004:00001128       $pdata$4$png_read_chunk_header 000000018005d128     libpng:pngrutil.obj
 0004:00001134       $pdata$6$png_read_chunk_header 000000018005d134     libpng:pngrutil.obj
 0004:00001140       $pdata$7$png_read_chunk_header 000000018005d140     libpng:pngrutil.obj
 0004:0000114c       $pdata$8$png_read_chunk_header 000000018005d14c     libpng:pngrutil.obj
 0004:00001158       $pdata$9$png_read_chunk_header 000000018005d158     libpng:pngrutil.obj
 0004:00001164       $pdata$10$png_read_chunk_header 000000018005d164     libpng:pngrutil.obj
 0004:00001170       $pdata$11$png_read_chunk_header 000000018005d170     libpng:pngrutil.obj
 0004:0000117c       $pdata$png_crc_read        000000018005d17c     libpng:pngrutil.obj
 0004:00001188       $pdata$0$png_crc_read      000000018005d188     libpng:pngrutil.obj
 0004:00001194       $pdata$1$png_crc_read      000000018005d194     libpng:pngrutil.obj
 0004:000011a0       $pdata$png_crc_finish      000000018005d1a0     libpng:pngrutil.obj
 0004:000011ac       $pdata$png_read_buffer     000000018005d1ac     libpng:pngrutil.obj
 0004:000011b8       $pdata$png_inflate_claim   000000018005d1b8     libpng:pngrutil.obj
 0004:000011c4       $pdata$png_inflate         000000018005d1c4     libpng:pngrutil.obj
 0004:000011d0       $pdata$png_decompress_chunk 000000018005d1d0     libpng:pngrutil.obj
 0004:000011dc       $pdata$2$png_decompress_chunk 000000018005d1dc     libpng:pngrutil.obj
 0004:000011e8       $pdata$3$png_decompress_chunk 000000018005d1e8     libpng:pngrutil.obj
 0004:000011f4       $pdata$4$png_decompress_chunk 000000018005d1f4     libpng:pngrutil.obj
 0004:00001200       $pdata$png_inflate_read    000000018005d200     libpng:pngrutil.obj
 0004:0000120c       $pdata$png_handle_IHDR     000000018005d20c     libpng:pngrutil.obj
 0004:00001218       $pdata$2$png_handle_IHDR   000000018005d218     libpng:pngrutil.obj
 0004:00001224       $pdata$3$png_handle_IHDR   000000018005d224     libpng:pngrutil.obj
 0004:00001230       $pdata$4$png_handle_IHDR   000000018005d230     libpng:pngrutil.obj
 0004:0000123c       $pdata$5$png_handle_IHDR   000000018005d23c     libpng:pngrutil.obj
 0004:00001248       $pdata$6$png_handle_IHDR   000000018005d248     libpng:pngrutil.obj
 0004:00001254       $pdata$7$png_handle_IHDR   000000018005d254     libpng:pngrutil.obj
 0004:00001260       $pdata$png_handle_PLTE     000000018005d260     libpng:pngrutil.obj
 0004:0000126c       $pdata$5$png_handle_PLTE   000000018005d26c     libpng:pngrutil.obj
 0004:00001278       $pdata$6$png_handle_PLTE   000000018005d278     libpng:pngrutil.obj
 0004:00001284       $pdata$7$png_handle_PLTE   000000018005d284     libpng:pngrutil.obj
 0004:00001290       $pdata$png_handle_IEND     000000018005d290     libpng:pngrutil.obj
 0004:0000129c       $pdata$png_handle_gAMA     000000018005d29c     libpng:pngrutil.obj
 0004:000012a8       $pdata$1$png_handle_gAMA   000000018005d2a8     libpng:pngrutil.obj
 0004:000012b4       $pdata$3$png_handle_gAMA   000000018005d2b4     libpng:pngrutil.obj
 0004:000012c0       $pdata$4$png_handle_gAMA   000000018005d2c0     libpng:pngrutil.obj
 0004:000012cc       $pdata$5$png_handle_gAMA   000000018005d2cc     libpng:pngrutil.obj
 0004:000012d8       $pdata$png_handle_sBIT     000000018005d2d8     libpng:pngrutil.obj
 0004:000012e4       $pdata$1$png_handle_sBIT   000000018005d2e4     libpng:pngrutil.obj
 0004:000012f0       $pdata$3$png_handle_sBIT   000000018005d2f0     libpng:pngrutil.obj
 0004:000012fc       $pdata$4$png_handle_sBIT   000000018005d2fc     libpng:pngrutil.obj
 0004:00001308       $pdata$5$png_handle_sBIT   000000018005d308     libpng:pngrutil.obj
 0004:00001314       $pdata$6$png_handle_sBIT   000000018005d314     libpng:pngrutil.obj
 0004:00001320       $pdata$8$png_handle_sBIT   000000018005d320     libpng:pngrutil.obj
 0004:0000132c       $pdata$9$png_handle_sBIT   000000018005d32c     libpng:pngrutil.obj
 0004:00001338       $pdata$10$png_handle_sBIT  000000018005d338     libpng:pngrutil.obj
 0004:00001344       $pdata$png_handle_cHRM     000000018005d344     libpng:pngrutil.obj
 0004:00001350       $pdata$2$png_handle_cHRM   000000018005d350     libpng:pngrutil.obj
 0004:0000135c       $pdata$3$png_handle_cHRM   000000018005d35c     libpng:pngrutil.obj
 0004:00001368       $pdata$4$png_handle_cHRM   000000018005d368     libpng:pngrutil.obj
 0004:00001374       $pdata$5$png_handle_cHRM   000000018005d374     libpng:pngrutil.obj
 0004:00001380       $pdata$6$png_handle_cHRM   000000018005d380     libpng:pngrutil.obj
 0004:0000138c       $pdata$7$png_handle_cHRM   000000018005d38c     libpng:pngrutil.obj
 0004:00001398       $pdata$8$png_handle_cHRM   000000018005d398     libpng:pngrutil.obj
 0004:000013a4       $pdata$png_handle_sRGB     000000018005d3a4     libpng:pngrutil.obj
 0004:000013b0       $pdata$1$png_handle_sRGB   000000018005d3b0     libpng:pngrutil.obj
 0004:000013bc       $pdata$3$png_handle_sRGB   000000018005d3bc     libpng:pngrutil.obj
 0004:000013c8       $pdata$4$png_handle_sRGB   000000018005d3c8     libpng:pngrutil.obj
 0004:000013d4       $pdata$5$png_handle_sRGB   000000018005d3d4     libpng:pngrutil.obj
 0004:000013e0       $pdata$png_handle_iCCP     000000018005d3e0     libpng:pngrutil.obj
 0004:000013ec       $pdata$2$png_handle_iCCP   000000018005d3ec     libpng:pngrutil.obj
 0004:000013f8       $pdata$3$png_handle_iCCP   000000018005d3f8     libpng:pngrutil.obj
 0004:00001404       $pdata$4$png_handle_iCCP   000000018005d404     libpng:pngrutil.obj
 0004:00001410       $pdata$5$png_handle_iCCP   000000018005d410     libpng:pngrutil.obj
 0004:0000141c       $pdata$6$png_handle_iCCP   000000018005d41c     libpng:pngrutil.obj
 0004:00001428       $pdata$png_handle_sPLT     000000018005d428     libpng:pngrutil.obj
 0004:00001434       $pdata$0$png_handle_sPLT   000000018005d434     libpng:pngrutil.obj
 0004:00001440       $pdata$2$png_handle_sPLT   000000018005d440     libpng:pngrutil.obj
 0004:0000144c       $pdata$3$png_handle_sPLT   000000018005d44c     libpng:pngrutil.obj
 0004:00001458       $pdata$5$png_handle_sPLT   000000018005d458     libpng:pngrutil.obj
 0004:00001464       $pdata$6$png_handle_sPLT   000000018005d464     libpng:pngrutil.obj
 0004:00001470       $pdata$7$png_handle_sPLT   000000018005d470     libpng:pngrutil.obj
 0004:0000147c       $pdata$8$png_handle_sPLT   000000018005d47c     libpng:pngrutil.obj
 0004:00001488       $pdata$9$png_handle_sPLT   000000018005d488     libpng:pngrutil.obj
 0004:00001494       $pdata$png_handle_tRNS     000000018005d494     libpng:pngrutil.obj
 0004:000014a0       $pdata$3$png_handle_tRNS   000000018005d4a0     libpng:pngrutil.obj
 0004:000014ac       $pdata$4$png_handle_tRNS   000000018005d4ac     libpng:pngrutil.obj
 0004:000014b8       $pdata$5$png_handle_tRNS   000000018005d4b8     libpng:pngrutil.obj
 0004:000014c4       $pdata$7$png_handle_tRNS   000000018005d4c4     libpng:pngrutil.obj
 0004:000014d0       $pdata$8$png_handle_tRNS   000000018005d4d0     libpng:pngrutil.obj
 0004:000014dc       $pdata$9$png_handle_tRNS   000000018005d4dc     libpng:pngrutil.obj
 0004:000014e8       $pdata$png_handle_bKGD     000000018005d4e8     libpng:pngrutil.obj
 0004:000014f4       $pdata$2$png_handle_bKGD   000000018005d4f4     libpng:pngrutil.obj
 0004:00001500       $pdata$4$png_handle_bKGD   000000018005d500     libpng:pngrutil.obj
 0004:0000150c       $pdata$5$png_handle_bKGD   000000018005d50c     libpng:pngrutil.obj
 0004:00001518       $pdata$6$png_handle_bKGD   000000018005d518     libpng:pngrutil.obj
 0004:00001524       $pdata$7$png_handle_bKGD   000000018005d524     libpng:pngrutil.obj
 0004:00001530       $pdata$8$png_handle_bKGD   000000018005d530     libpng:pngrutil.obj
 0004:0000153c       $pdata$9$png_handle_bKGD   000000018005d53c     libpng:pngrutil.obj
 0004:00001548       $pdata$10$png_handle_bKGD  000000018005d548     libpng:pngrutil.obj
 0004:00001554       $pdata$11$png_handle_bKGD  000000018005d554     libpng:pngrutil.obj
 0004:00001560       $pdata$png_handle_hIST     000000018005d560     libpng:pngrutil.obj
 0004:0000156c       $pdata$0$png_handle_hIST   000000018005d56c     libpng:pngrutil.obj
 0004:00001578       $pdata$5$png_handle_hIST   000000018005d578     libpng:pngrutil.obj
 0004:00001584       $pdata$6$png_handle_hIST   000000018005d584     libpng:pngrutil.obj
 0004:00001590       $pdata$7$png_handle_hIST   000000018005d590     libpng:pngrutil.obj
 0004:0000159c       $pdata$8$png_handle_hIST   000000018005d59c     libpng:pngrutil.obj
 0004:000015a8       $pdata$9$png_handle_hIST   000000018005d5a8     libpng:pngrutil.obj
 0004:000015b4       $pdata$10$png_handle_hIST  000000018005d5b4     libpng:pngrutil.obj
 0004:000015c0       $pdata$11$png_handle_hIST  000000018005d5c0     libpng:pngrutil.obj
 0004:000015cc       $pdata$12$png_handle_hIST  000000018005d5cc     libpng:pngrutil.obj
 0004:000015d8       $pdata$png_handle_pHYs     000000018005d5d8     libpng:pngrutil.obj
 0004:000015e4       $pdata$1$png_handle_pHYs   000000018005d5e4     libpng:pngrutil.obj
 0004:000015f0       $pdata$3$png_handle_pHYs   000000018005d5f0     libpng:pngrutil.obj
 0004:000015fc       $pdata$4$png_handle_pHYs   000000018005d5fc     libpng:pngrutil.obj
 0004:00001608       $pdata$5$png_handle_pHYs   000000018005d608     libpng:pngrutil.obj
 0004:00001614       $pdata$png_handle_oFFs     000000018005d614     libpng:pngrutil.obj
 0004:00001620       $pdata$1$png_handle_oFFs   000000018005d620     libpng:pngrutil.obj
 0004:0000162c       $pdata$3$png_handle_oFFs   000000018005d62c     libpng:pngrutil.obj
 0004:00001638       $pdata$4$png_handle_oFFs   000000018005d638     libpng:pngrutil.obj
 0004:00001644       $pdata$5$png_handle_oFFs   000000018005d644     libpng:pngrutil.obj
 0004:00001650       $pdata$png_handle_pCAL     000000018005d650     libpng:pngrutil.obj
 0004:0000165c       $pdata$4$png_handle_pCAL   000000018005d65c     libpng:pngrutil.obj
 0004:00001668       $pdata$6$png_handle_pCAL   000000018005d668     libpng:pngrutil.obj
 0004:00001674       $pdata$7$png_handle_pCAL   000000018005d674     libpng:pngrutil.obj
 0004:00001680       $pdata$8$png_handle_pCAL   000000018005d680     libpng:pngrutil.obj
 0004:0000168c       $pdata$png_handle_sCAL     000000018005d68c     libpng:pngrutil.obj
 0004:00001698       $pdata$0$png_handle_sCAL   000000018005d698     libpng:pngrutil.obj
 0004:000016a4       $pdata$2$png_handle_sCAL   000000018005d6a4     libpng:pngrutil.obj
 0004:000016b0       $pdata$4$png_handle_sCAL   000000018005d6b0     libpng:pngrutil.obj
 0004:000016bc       $pdata$5$png_handle_sCAL   000000018005d6bc     libpng:pngrutil.obj
 0004:000016c8       $pdata$6$png_handle_sCAL   000000018005d6c8     libpng:pngrutil.obj
 0004:000016d4       $pdata$8$png_handle_sCAL   000000018005d6d4     libpng:pngrutil.obj
 0004:000016e0       $pdata$9$png_handle_sCAL   000000018005d6e0     libpng:pngrutil.obj
 0004:000016ec       $pdata$10$png_handle_sCAL  000000018005d6ec     libpng:pngrutil.obj
 0004:000016f8       $pdata$11$png_handle_sCAL  000000018005d6f8     libpng:pngrutil.obj
 0004:00001704       $pdata$png_handle_tIME     000000018005d704     libpng:pngrutil.obj
 0004:00001710       $pdata$2$png_handle_tIME   000000018005d710     libpng:pngrutil.obj
 0004:0000171c       $pdata$3$png_handle_tIME   000000018005d71c     libpng:pngrutil.obj
 0004:00001728       $pdata$4$png_handle_tIME   000000018005d728     libpng:pngrutil.obj
 0004:00001734       $pdata$5$png_handle_tIME   000000018005d734     libpng:pngrutil.obj
 0004:00001740       $pdata$6$png_handle_tIME   000000018005d740     libpng:pngrutil.obj
 0004:0000174c       $pdata$7$png_handle_tIME   000000018005d74c     libpng:pngrutil.obj
 0004:00001758       $pdata$8$png_handle_tIME   000000018005d758     libpng:pngrutil.obj
 0004:00001764       $pdata$png_handle_tEXt     000000018005d764     libpng:pngrutil.obj
 0004:00001770       $pdata$0$png_handle_tEXt   000000018005d770     libpng:pngrutil.obj
 0004:0000177c       $pdata$1$png_handle_tEXt   000000018005d77c     libpng:pngrutil.obj
 0004:00001788       $pdata$2$png_handle_tEXt   000000018005d788     libpng:pngrutil.obj
 0004:00001794       $pdata$png_handle_zTXt     000000018005d794     libpng:pngrutil.obj
 0004:000017a0       $pdata$0$png_handle_zTXt   000000018005d7a0     libpng:pngrutil.obj
 0004:000017ac       $pdata$2$png_handle_zTXt   000000018005d7ac     libpng:pngrutil.obj
 0004:000017b8       $pdata$4$png_handle_zTXt   000000018005d7b8     libpng:pngrutil.obj
 0004:000017c4       $pdata$5$png_handle_zTXt   000000018005d7c4     libpng:pngrutil.obj
 0004:000017d0       $pdata$7$png_handle_zTXt   000000018005d7d0     libpng:pngrutil.obj
 0004:000017dc       $pdata$8$png_handle_zTXt   000000018005d7dc     libpng:pngrutil.obj
 0004:000017e8       $pdata$9$png_handle_zTXt   000000018005d7e8     libpng:pngrutil.obj
 0004:000017f4       $pdata$png_handle_iTXt     000000018005d7f4     libpng:pngrutil.obj
 0004:00001800       $pdata$0$png_handle_iTXt   000000018005d800     libpng:pngrutil.obj
 0004:0000180c       $pdata$4$png_handle_iTXt   000000018005d80c     libpng:pngrutil.obj
 0004:00001818       $pdata$5$png_handle_iTXt   000000018005d818     libpng:pngrutil.obj
 0004:00001824       $pdata$7$png_handle_iTXt   000000018005d824     libpng:pngrutil.obj
 0004:00001830       $pdata$8$png_handle_iTXt   000000018005d830     libpng:pngrutil.obj
 0004:0000183c       $pdata$9$png_handle_iTXt   000000018005d83c     libpng:pngrutil.obj
 0004:00001848       $pdata$png_cache_unknown_chunk 000000018005d848     libpng:pngrutil.obj
 0004:00001854       $pdata$png_handle_unknown  000000018005d854     libpng:pngrutil.obj
 0004:00001860       $pdata$png_combine_row     000000018005d860     libpng:pngrutil.obj
 0004:0000186c       $pdata$1$png_combine_row   000000018005d86c     libpng:pngrutil.obj
 0004:00001878       $pdata$2$png_combine_row   000000018005d878     libpng:pngrutil.obj
 0004:00001884       $pdata$3$png_combine_row   000000018005d884     libpng:pngrutil.obj
 0004:00001890       $pdata$png_do_read_interlace 000000018005d890     libpng:pngrutil.obj
 0004:0000189c       $pdata$5$png_do_read_interlace 000000018005d89c     libpng:pngrutil.obj
 0004:000018a8       $pdata$6$png_do_read_interlace 000000018005d8a8     libpng:pngrutil.obj
 0004:000018b4       $pdata$png_read_filter_row_paeth_1byte_pixel 000000018005d8b4     libpng:pngrutil.obj
 0004:000018c0       $pdata$1$png_read_filter_row_paeth_1byte_pixel 000000018005d8c0     libpng:pngrutil.obj
 0004:000018cc       $pdata$2$png_read_filter_row_paeth_1byte_pixel 000000018005d8cc     libpng:pngrutil.obj
 0004:000018d8       $pdata$png_read_filter_row_paeth_multibyte_pixel 000000018005d8d8     libpng:pngrutil.obj
 0004:000018e4       $pdata$2$png_read_filter_row_paeth_multibyte_pixel 000000018005d8e4     libpng:pngrutil.obj
 0004:000018f0       $pdata$3$png_read_filter_row_paeth_multibyte_pixel 000000018005d8f0     libpng:pngrutil.obj
 0004:000018fc       $pdata$png_read_IDAT_data  000000018005d8fc     libpng:pngrutil.obj
 0004:00001908       $pdata$png_read_finish_IDAT 000000018005d908     libpng:pngrutil.obj
 0004:00001914       $pdata$png_read_finish_row 000000018005d914     libpng:pngrutil.obj
 0004:00001920       $pdata$1$png_read_finish_row 000000018005d920     libpng:pngrutil.obj
 0004:0000192c       $pdata$2$png_read_finish_row 000000018005d92c     libpng:pngrutil.obj
 0004:00001938       $pdata$png_read_start_row  000000018005d938     libpng:pngrutil.obj
 0004:00001944       $pdata$png_init_palette_transformations 000000018005d944     libpng:pngrtran.obj
 0004:00001950       $pdata$png_init_read_transformations 000000018005d950     libpng:pngrtran.obj
 0004:0000195c       $pdata$2$png_init_read_transformations 000000018005d95c     libpng:pngrtran.obj
 0004:00001968       $pdata$png_do_unpack       000000018005d968     libpng:pngrtran.obj
 0004:00001974       $pdata$0$png_do_unpack     000000018005d974     libpng:pngrtran.obj
 0004:00001980       $pdata$1$png_do_unpack     000000018005d980     libpng:pngrtran.obj
 0004:0000198c       $pdata$2$png_do_unpack     000000018005d98c     libpng:pngrtran.obj
 0004:00001998       $pdata$3$png_do_unpack     000000018005d998     libpng:pngrtran.obj
 0004:000019a4       $pdata$png_do_unshift      000000018005d9a4     libpng:pngrtran.obj
 0004:000019b0       $pdata$0$png_do_unshift    000000018005d9b0     libpng:pngrtran.obj
 0004:000019bc       $pdata$1$png_do_unshift    000000018005d9bc     libpng:pngrtran.obj
 0004:000019c8       $pdata$png_do_read_filler  000000018005d9c8     libpng:pngrtran.obj
 0004:000019d4       $pdata$png_do_rgb_to_gray  000000018005d9d4     libpng:pngrtran.obj
 0004:000019e0       $pdata$4$png_do_rgb_to_gray 000000018005d9e0     libpng:pngrtran.obj
 0004:000019ec       $pdata$5$png_do_rgb_to_gray 000000018005d9ec     libpng:pngrtran.obj
 0004:000019f8       $pdata$png_do_compose      000000018005d9f8     libpng:pngrtran.obj
 0004:00001a04       $pdata$png_do_gamma        000000018005da04     libpng:pngrtran.obj
 0004:00001a10       $pdata$0$png_do_gamma      000000018005da10     libpng:pngrtran.obj
 0004:00001a1c       $pdata$2$png_do_gamma      000000018005da1c     libpng:pngrtran.obj
 0004:00001a28       $pdata$3$png_do_gamma      000000018005da28     libpng:pngrtran.obj
 0004:00001a34       $pdata$5$png_do_gamma      000000018005da34     libpng:pngrtran.obj
 0004:00001a40       $pdata$7$png_do_gamma      000000018005da40     libpng:pngrtran.obj
 0004:00001a4c       $pdata$8$png_do_gamma      000000018005da4c     libpng:pngrtran.obj
 0004:00001a58       $pdata$png_do_expand_palette 000000018005da58     libpng:pngrtran.obj
 0004:00001a64       $pdata$0$png_do_expand_palette 000000018005da64     libpng:pngrtran.obj
 0004:00001a70       $pdata$1$png_do_expand_palette 000000018005da70     libpng:pngrtran.obj
 0004:00001a7c       $pdata$2$png_do_expand_palette 000000018005da7c     libpng:pngrtran.obj
 0004:00001a88       $pdata$4$png_do_expand_palette 000000018005da88     libpng:pngrtran.obj
 0004:00001a94       $pdata$5$png_do_expand_palette 000000018005da94     libpng:pngrtran.obj
 0004:00001aa0       $pdata$png_do_expand       000000018005daa0     libpng:pngrtran.obj
 0004:00001aac       $pdata$0$png_do_expand     000000018005daac     libpng:pngrtran.obj
 0004:00001ab8       $pdata$1$png_do_expand     000000018005dab8     libpng:pngrtran.obj
 0004:00001ac4       $pdata$png_do_quantize     000000018005dac4     libpng:pngrtran.obj
 0004:00001ad0       $pdata$0$png_do_quantize   000000018005dad0     libpng:pngrtran.obj
 0004:00001adc       $pdata$2$png_do_quantize   000000018005dadc     libpng:pngrtran.obj
 0004:00001ae8       $pdata$4$png_do_quantize   000000018005dae8     libpng:pngrtran.obj
 0004:00001af4       $pdata$5$png_do_quantize   000000018005daf4     libpng:pngrtran.obj
 0004:00001b00       $pdata$png_do_read_transformations 000000018005db00     libpng:pngrtran.obj
 0004:00001b0c       $pdata$0$png_do_read_transformations 000000018005db0c     libpng:pngrtran.obj
 0004:00001b18       $pdata$1$png_do_read_transformations 000000018005db18     libpng:pngrtran.obj
 0004:00001b24       $pdata$updatewindow        000000018005db24     zlib:inflate.obj
 0004:00001b30       $pdata$inflate             000000018005db30     zlib:inflate.obj
 0004:00001b3c       $pdata$crc32_little        000000018005db3c     zlib:crc32.obj
 0004:00001b48       $pdata$0$crc32_little      000000018005db48     zlib:crc32.obj
 0004:00001b54       $pdata$1$crc32_little      000000018005db54     zlib:crc32.obj
 0004:00001b60       $pdata$deflateInit2_       000000018005db60     zlib:deflate.obj
 0004:00001b6c       $pdata$1$deflateInit2_     000000018005db6c     zlib:deflate.obj
 0004:00001b78       $pdata$2$deflateInit2_     000000018005db78     zlib:deflate.obj
 0004:00001b84       $pdata$3$deflateInit2_     000000018005db84     zlib:deflate.obj
 0004:00001b90       $pdata$5$deflateInit2_     000000018005db90     zlib:deflate.obj
 0004:00001b9c       $pdata$6$deflateInit2_     000000018005db9c     zlib:deflate.obj
 0004:00001ba8       $pdata$7$deflateInit2_     000000018005dba8     zlib:deflate.obj
 0004:00001bb4       $pdata$deflateReset        000000018005dbb4     zlib:deflate.obj
 0004:00001bc0       $pdata$0$deflateReset      000000018005dbc0     zlib:deflate.obj
 0004:00001bcc       $pdata$1$deflateReset      000000018005dbcc     zlib:deflate.obj
 0004:00001bd8       $pdata$flush_pending       000000018005dbd8     zlib:deflate.obj
 0004:00001be4       $pdata$deflate             000000018005dbe4     zlib:deflate.obj
 0004:00001bf0       $pdata$1$deflate           000000018005dbf0     zlib:deflate.obj
 0004:00001bfc       $pdata$2$deflate           000000018005dbfc     zlib:deflate.obj
 0004:00001c08       $pdata$3$deflate           000000018005dc08     zlib:deflate.obj
 0004:00001c14       $pdata$4$deflate           000000018005dc14     zlib:deflate.obj
 0004:00001c20       $pdata$5$deflate           000000018005dc20     zlib:deflate.obj
 0004:00001c2c       $pdata$6$deflate           000000018005dc2c     zlib:deflate.obj
 0004:00001c38       $pdata$7$deflate           000000018005dc38     zlib:deflate.obj
 0004:00001c44       $pdata$9$deflate           000000018005dc44     zlib:deflate.obj
 0004:00001c50       $pdata$10$deflate          000000018005dc50     zlib:deflate.obj
 0004:00001c5c       $pdata$deflateEnd          000000018005dc5c     zlib:deflate.obj
 0004:00001c68       $pdata$longest_match       000000018005dc68     zlib:deflate.obj
 0004:00001c74       $pdata$fill_window         000000018005dc74     zlib:deflate.obj
 0004:00001c80       $pdata$3$fill_window       000000018005dc80     zlib:deflate.obj
 0004:00001c8c       $pdata$4$fill_window       000000018005dc8c     zlib:deflate.obj
 0004:00001c98       $pdata$deflate_stored      000000018005dc98     zlib:deflate.obj
 0004:00001ca4       $pdata$deflate_fast        000000018005dca4     zlib:deflate.obj
 0004:00001cb0       $pdata$deflate_slow        000000018005dcb0     zlib:deflate.obj
 0004:00001cbc       $pdata$deflate_rle         000000018005dcbc     zlib:deflate.obj
 0004:00001cc8       $pdata$deflate_huff        000000018005dcc8     zlib:deflate.obj
 0004:00001cd4       $pdata$inflate_table       000000018005dcd4     zlib:inftrees.obj
 0004:00001ce0       $pdata$0$inflate_table     000000018005dce0     zlib:inftrees.obj
 0004:00001cec       $pdata$2$inflate_table     000000018005dcec     zlib:inftrees.obj
 0004:00001cf8       $pdata$3$inflate_table     000000018005dcf8     zlib:inftrees.obj
 0004:00001d04       $pdata$inflate_fast        000000018005dd04     zlib:inffast.obj
 0004:00001d10       $pdata$pqdownheap          000000018005dd10     zlib:trees.obj
 0004:00001d1c       $pdata$0$pqdownheap        000000018005dd1c     zlib:trees.obj
 0004:00001d28       $pdata$2$pqdownheap        000000018005dd28     zlib:trees.obj
 0004:00001d34       $pdata$3$pqdownheap        000000018005dd34     zlib:trees.obj
 0004:00001d40       $pdata$gen_bitlen          000000018005dd40     zlib:trees.obj
 0004:00001d4c       $pdata$1$gen_bitlen        000000018005dd4c     zlib:trees.obj
 0004:00001d58       $pdata$2$gen_bitlen        000000018005dd58     zlib:trees.obj
 0004:00001d64       $pdata$gen_codes           000000018005dd64     zlib:trees.obj
 0004:00001d70       $pdata$build_tree          000000018005dd70     zlib:trees.obj
 0004:00001d7c       $pdata$scan_tree           000000018005dd7c     zlib:trees.obj
 0004:00001d88       $pdata$2$scan_tree         000000018005dd88     zlib:trees.obj
 0004:00001d94       $pdata$3$scan_tree         000000018005dd94     zlib:trees.obj
 0004:00001da0       $pdata$send_tree           000000018005dda0     zlib:trees.obj
 0004:00001dac       $pdata$6$send_tree         000000018005ddac     zlib:trees.obj
 0004:00001db8       $pdata$7$send_tree         000000018005ddb8     zlib:trees.obj
 0004:00001dc4       $pdata$send_all_trees      000000018005ddc4     zlib:trees.obj
 0004:00001dd0       $pdata$_tr_stored_block    000000018005ddd0     zlib:trees.obj
 0004:00001ddc       $pdata$_tr_flush_block     000000018005dddc     zlib:trees.obj
 0004:00001de8       $pdata$compress_block      000000018005dde8     zlib:trees.obj
 0004:00001df4       $pdata$2$compress_block    000000018005ddf4     zlib:trees.obj
 0004:00001e00       $pdata$6$compress_block    000000018005de00     zlib:trees.obj
 0004:00001e0c       $pdata$7$compress_block    000000018005de0c     zlib:trees.obj
 0004:00001e18       $pdata$8$compress_block    000000018005de18     zlib:trees.obj
 0004:00001e30       $pdata$??0bad_alloc@std@@QEAA@AEBV01@@Z 000000018005de30     libcpmt:xthrow.obj
 0004:00001e3c       $pdata$??0bad_function_call@std@@QEAA@AEBV01@@Z 000000018005de3c     libcpmt:xthrow.obj
 0004:00001e48       $pdata$??0exception@std@@QEAA@AEBV01@@Z 000000018005de48     libcpmt:xthrow.obj
 0004:00001e54       $pdata$??0invalid_argument@std@@QEAA@AEBV01@@Z 000000018005de54     libcpmt:xthrow.obj
 0004:00001e60       $pdata$??0invalid_argument@std@@QEAA@PEBD@Z 000000018005de60     libcpmt:xthrow.obj
 0004:00001e6c       $pdata$??0length_error@std@@QEAA@AEBV01@@Z 000000018005de6c     libcpmt:xthrow.obj
 0004:00001e78       $pdata$??0length_error@std@@QEAA@PEBD@Z 000000018005de78     libcpmt:xthrow.obj
 0004:00001e84       $pdata$??0logic_error@std@@QEAA@AEBV01@@Z 000000018005de84     libcpmt:xthrow.obj
 0004:00001e90       $pdata$??0out_of_range@std@@QEAA@AEBV01@@Z 000000018005de90     libcpmt:xthrow.obj
 0004:00001e9c       $pdata$??0out_of_range@std@@QEAA@PEBD@Z 000000018005de9c     libcpmt:xthrow.obj
 0004:00001ea8       $pdata$??_Ginvalid_argument@std@@UEAAPEAXI@Z 000000018005dea8     libcpmt:xthrow.obj
 0004:00001ea8       $pdata$??_Gout_of_range@std@@UEAAPEAXI@Z 000000018005dea8     libcpmt:xthrow.obj
 0004:00001ea8       $pdata$??_Glength_error@std@@UEAAPEAXI@Z 000000018005dea8     libcpmt:xthrow.obj
 0004:00001ea8       $pdata$??_Gbad_array_new_length@std@@UEAAPEAXI@Z 000000018005dea8     LIBCMT:throw_bad_alloc.obj
 0004:00001ea8       $pdata$??_Gexception@std@@UEAAPEAXI@Z 000000018005dea8     libcpmt:xthrow.obj
 0004:00001ea8       $pdata$??_Gbad_exception@std@@UEAAPEAXI@Z 000000018005dea8     libvcruntime:frame.obj
 0004:00001ea8       $pdata$??_Gbad_function_call@std@@UEAAPEAXI@Z 000000018005dea8     libcpmt:xthrow.obj
 0004:00001ea8       $pdata$??_Gbad_alloc@std@@UEAAPEAXI@Z 000000018005dea8     libcpmt:xthrow.obj
 0004:00001ea8       $pdata$??_Glogic_error@std@@UEAAPEAXI@Z 000000018005dea8     libcpmt:xthrow.obj
 0004:00001eb4       $pdata$?_Xbad_function_call@std@@YAXXZ 000000018005deb4     libcpmt:xthrow.obj
 0004:00001ec0       $pdata$?_Xinvalid_argument@std@@YAXPEBD@Z 000000018005dec0     libcpmt:xthrow.obj
 0004:00001ecc       $pdata$?_Xlength_error@std@@YAXPEBD@Z 000000018005decc     libcpmt:xthrow.obj
 0004:00001ed8       $pdata$?_Xout_of_range@std@@YAXPEBD@Z 000000018005ded8     libcpmt:xthrow.obj
 0004:00001ef0       $pdata$??2@YAPEAX_K@Z      000000018005def0     LIBCMT:new_scalar.obj
 0004:00001efc       $pdata$__scrt_acquire_startup_lock 000000018005defc     LIBCMT:utility.obj
 0004:00001f08       $pdata$__scrt_dllmain_after_initialize_c 000000018005df08     LIBCMT:utility.obj
 0004:00001f14       $pdata$__scrt_dllmain_before_initialize_c 000000018005df14     LIBCMT:utility.obj
 0004:00001f20       $pdata$__scrt_dllmain_crt_thread_attach 000000018005df20     LIBCMT:utility.obj
 0004:00001f2c       $pdata$__scrt_dllmain_crt_thread_detach 000000018005df2c     LIBCMT:utility.obj
 0004:00001f38       $pdata$__scrt_dllmain_exception_filter 000000018005df38     LIBCMT:utility.obj
 0004:00001f44       $pdata$__scrt_dllmain_uninitialize_c 000000018005df44     LIBCMT:utility.obj
 0004:00001f50       $pdata$__scrt_dllmain_uninitialize_critical 000000018005df50     LIBCMT:utility.obj
 0004:00001f5c       $pdata$__scrt_initialize_crt 000000018005df5c     LIBCMT:utility.obj
 0004:00001f68       $pdata$__scrt_initialize_onexit_tables 000000018005df68     LIBCMT:utility.obj
 0004:00001f74       $pdata$__scrt_is_nonwritable_in_current_image 000000018005df74     LIBCMT:utility.obj
 0004:00001f80       $pdata$__scrt_release_startup_lock 000000018005df80     LIBCMT:utility.obj
 0004:00001f8c       $pdata$__scrt_uninitialize_crt 000000018005df8c     LIBCMT:utility.obj
 0004:00001f98       $pdata$_onexit             000000018005df98     LIBCMT:utility.obj
 0004:00001fa4       $pdata$atexit              000000018005dfa4     LIBCMT:utility.obj
 0004:00001fb0       $pdata$??_Gtype_info@@UEAAPEAXI@Z 000000018005dfb0     LIBCMT:std_type_info_static.obj
 0004:00001fbc       $pdata$?dllmain_crt_dispatch@@YAHQEAUHINSTANCE__@@KQEAX@Z 000000018005dfbc     LIBCMT:dll_dllmain.obj
 0004:00001fc8       $pdata$?dllmain_crt_process_attach@@YAHQEAUHINSTANCE__@@QEAX@Z 000000018005dfc8     LIBCMT:dll_dllmain.obj
 0004:00001fd4       $pdata$?dllmain_crt_process_detach@@YAH_N@Z 000000018005dfd4     LIBCMT:dll_dllmain.obj
 0004:00001fe0       $pdata$?dllmain_dispatch@@YAHQEAUHINSTANCE__@@KQEAX@Z 000000018005dfe0     LIBCMT:dll_dllmain.obj
 0004:00001fec       $pdata$_DllMainCRTStartup  000000018005dfec     LIBCMT:dll_dllmain.obj
 0004:00001ff8       $pdata$__raise_securityfailure 000000018005dff8     LIBCMT:gs_report.obj
 0004:00002004       $pdata$__report_gsfailure  000000018005e004     LIBCMT:gs_report.obj
 0004:00002010       $pdata$__report_rangecheckfailure 000000018005e010     LIBCMT:gs_report.obj
 0004:0000201c       $pdata$__report_securityfailure 000000018005e01c     LIBCMT:gs_report.obj
 0004:00002028       $pdata$capture_current_context 000000018005e028     LIBCMT:gs_report.obj
 0004:00002034       $pdata$capture_previous_context 000000018005e034     LIBCMT:gs_report.obj
 0004:00002040       $pdata$??0bad_array_new_length@std@@QEAA@AEBV01@@Z 000000018005e040     LIBCMT:throw_bad_alloc.obj
 0004:0000204c       $pdata$?__scrt_throw_std_bad_alloc@@YAXXZ 000000018005e04c     LIBCMT:throw_bad_alloc.obj
 0004:00002058       $pdata$?__scrt_throw_std_bad_array_new_length@@YAXXZ 000000018005e058     LIBCMT:throw_bad_alloc.obj
 0004:00002064       $pdata$__isa_available_init 000000018005e064     LIBCMT:cpu_disp.obj
 0004:00002070       $pdata$__scrt_fastfail     000000018005e070     LIBCMT:utility_desktop.obj
 0004:0000207c       $pdata$__security_init_cookie 000000018005e07c     LIBCMT:gs_support.obj
 0004:00002088       $pdata$__scrt_initialize_default_local_stdio_options 000000018005e088     LIBCMT:default_local_stdio_options.obj
 0004:00002094       $pdata$_RTC_Initialize     000000018005e094     LIBCMT:initsect.obj
 0004:000020a0       $pdata$_RTC_Terminate      000000018005e0a0     LIBCMT:initsect.obj
 0004:000020ac       $pdata$??$_CallSETranslator@V__FrameHandler3@@@@YAHPEAUEHExceptionRecord@@PEA_KPEAU_CONTEXT@@PEAU_xDISPATCHER_CONTEXT@@PEBU_s_FuncInfo@@K1@Z 000000018005e0ac     libvcruntime:risctrnsctrl.obj
 0004:000020b8       $pdata$?CatchTryBlock@__FrameHandler3@@SAPEBU_s_TryBlockMapEntry@@PEBU_s_FuncInfo@@H@Z 000000018005e0b8     libvcruntime:risctrnsctrl.obj
 0004:000020c4       $pdata$?ExecutionInCatch@__FrameHandler3@@SA_NPEAU_xDISPATCHER_CONTEXT@@PEBU_s_FuncInfo@@@Z 000000018005e0c4     libvcruntime:risctrnsctrl.obj
 0004:000020d0       $pdata$?FrameUnwindToEmptyState@__FrameHandler3@@SAXPEA_KPEAU_xDISPATCHER_CONTEXT@@PEBU_s_FuncInfo@@@Z 000000018005e0d0     libvcruntime:risctrnsctrl.obj
 0004:000020dc       $pdata$?GetEstablisherFrame@__FrameHandler3@@SAPEA_KPEA_KPEAU_xDISPATCHER_CONTEXT@@PEBU_s_FuncInfo@@0@Z 000000018005e0dc     libvcruntime:risctrnsctrl.obj
 0004:000020e8       $pdata$?GetRangeOfTrysToCheck@__FrameHandler3@@SA?AU?$pair@Viterator@TryBlockMap@__FrameHandler3@@V123@@std@@AEAVTryBlockMap@1@HH@Z 000000018005e0e8     libvcruntime:risctrnsctrl.obj
 0004:000020f4       $pdata$?UnwindNestedFrames@__FrameHandler3@@SAXPEA_KPEAUEHExceptionRecord@@PEAU_CONTEXT@@0PEAXPEBU_s_FuncInfo@@HHPEBU_s_HandlerType@@PEAU_xDISPATCHER_CONTEXT@@E@Z 000000018005e0f4     libvcruntime:risctrnsctrl.obj
 0004:00002100       $pdata$_CreateFrameInfo    000000018005e100     libvcruntime:risctrnsctrl.obj
 0004:0000210c       $pdata$_FindAndUnlinkFrame 000000018005e10c     libvcruntime:risctrnsctrl.obj
 0004:00002118       $pdata$_GetImageBase       000000018005e118     libvcruntime:risctrnsctrl.obj
 0004:00002124       $pdata$_GetThrowImageBase  000000018005e124     libvcruntime:risctrnsctrl.obj
 0004:00002130       $pdata$_SetImageBase       000000018005e130     libvcruntime:risctrnsctrl.obj
 0004:0000213c       $pdata$_SetThrowImageBase  000000018005e13c     libvcruntime:risctrnsctrl.obj
 0004:00002148       $pdata$__CxxFrameHandler3  000000018005e148     libvcruntime:risctrnsctrl.obj
 0004:00002154       $pdata$__DestructExceptionObject 000000018005e154     libvcruntime:ehhelpers.obj
 0004:00002160       $pdata$_IsExceptionObjectToBeDestroyed 000000018005e160     libvcruntime:ehhelpers.obj
 0004:0000216c       $pdata$__FrameUnwindFilter 000000018005e16c     libvcruntime:ehhelpers.obj
 0004:00002178       $pdata$__std_terminate     000000018005e178     libvcruntime:ehhelpers.obj
 0004:00002184       $pdata$_purecall           000000018005e184     libvcruntime:purevirt.obj
 0004:00002190       $pdata$longjmp             000000018005e190     libvcruntime:longjmpc.obj
 0004:0000219c       $pdata$__std_exception_copy 000000018005e19c     libvcruntime:std_exception.obj
 0004:000021a8       $pdata$__std_exception_destroy 000000018005e1a8     libvcruntime:std_exception.obj
 0004:000021b4       $pdata$_CxxThrowException  000000018005e1b4     libvcruntime:throw.obj
 0004:000021c0       $pdata$__vcrt_initialize   000000018005e1c0     libvcruntime:initialization.obj
 0004:000021cc       $pdata$__vcrt_thread_attach 000000018005e1cc     libvcruntime:initialization.obj
 0004:000021d8       $pdata$__vcrt_thread_detach 000000018005e1d8     libvcruntime:initialization.obj
 0004:000021e4       $pdata$__vcrt_uninitialize 000000018005e1e4     libvcruntime:initialization.obj
 0004:000021f0       $pdata$__vcrt_uninitialize_critical 000000018005e1f0     libvcruntime:initialization.obj
 0004:000021fc       $pdata$__C_specific_handler 000000018005e1fc     libvcruntime:riscchandler.obj
 0004:00002220       $pdata$__std_type_info_destroy_list 000000018005e220     libvcruntime:std_type_info.obj
 0004:0000222c       $pdata$__vcrt_freefls      000000018005e22c     libvcruntime:per_thread_data.obj
 0004:00002238       $pdata$__vcrt_freeptd      000000018005e238     libvcruntime:per_thread_data.obj
 0004:00002244       $pdata$__vcrt_getptd       000000018005e244     libvcruntime:per_thread_data.obj
 0004:00002250       $pdata$__vcrt_getptd_noexit 000000018005e250     libvcruntime:per_thread_data.obj
 0004:0000225c       $pdata$__vcrt_initialize_ptd 000000018005e25c     libvcruntime:per_thread_data.obj
 0004:00002268       $pdata$__vcrt_uninitialize_ptd 000000018005e268     libvcruntime:per_thread_data.obj
 0004:00002274       $pdata$?GetCurrentState@__FrameHandler3@@SAHPEA_KPEAU_xDISPATCHER_CONTEXT@@PEBU_s_FuncInfo@@@Z 000000018005e274     libvcruntime:ehstate.obj
 0004:00002280       $pdata$?GetUnwindTryBlock@__FrameHandler3@@SAHPEA_KPEAU_xDISPATCHER_CONTEXT@@PEBU_s_FuncInfo@@@Z 000000018005e280     libvcruntime:ehstate.obj
 0004:0000228c       $pdata$?SetUnwindTryBlock@__FrameHandler3@@SAXPEA_KPEAU_xDISPATCHER_CONTEXT@@PEBU_s_FuncInfo@@H@Z 000000018005e28c     libvcruntime:ehstate.obj
 0004:00002298       $pdata$?StateFromIp@__FrameHandler3@@SAHPEBU_s_FuncInfo@@PEAU_xDISPATCHER_CONTEXT@@_K@Z 000000018005e298     libvcruntime:ehstate.obj
 0004:000022a4       $pdata$??$BuildCatchObjectHelperInternal@$$CBU_s_HandlerType@@@@YAHPEAUEHExceptionRecord@@PEAXPEBU_s_HandlerType@@PEBU_s_CatchableType@@@Z 000000018005e2a4     libvcruntime:frame.obj
 0004:000022b0       $pdata$??$BuildCatchObjectInternal@$$CBU_s_HandlerType@@@@YAXPEAUEHExceptionRecord@@PEAXPEBU_s_HandlerType@@PEBU_s_CatchableType@@@Z 000000018005e2b0     libvcruntime:frame.obj
 0004:000022bc       $pdata$??$CatchIt@V__FrameHandler3@@@@YAXPEAUEHExceptionRecord@@PEA_KPEAU_CONTEXT@@PEAU_xDISPATCHER_CONTEXT@@PEBU_s_FuncInfo@@PEBU_s_HandlerType@@PEBU_s_CatchableType@@PEBU_s_TryBlockMapEntry@@H1EE@Z 000000018005e2bc     libvcruntime:frame.obj
 0004:000022c8       $pdata$??$FindHandler@V__FrameHandler3@@@@YAXPEAUEHExceptionRecord@@PEA_KPEAU_CONTEXT@@PEAU_xDISPATCHER_CONTEXT@@PEBU_s_FuncInfo@@EH1@Z 000000018005e2c8     libvcruntime:frame.obj
 0004:000022d4       $pdata$??$FindHandlerForForeignException@V__FrameHandler3@@@@YAXPEAUEHExceptionRecord@@PEA_KPEAU_CONTEXT@@PEAU_xDISPATCHER_CONTEXT@@PEBU_s_FuncInfo@@HH1@Z 000000018005e2d4     libvcruntime:frame.obj
 0004:000022e0       $pdata$??$TypeMatchHelper@$$CBU_s_HandlerType@@@@YAHPEBU_s_HandlerType@@PEBU_s_CatchableType@@PEBU_s_ThrowInfo@@@Z 000000018005e2e0     libvcruntime:frame.obj
 0004:000022ec       $pdata$??$__InternalCxxFrameHandler@V__FrameHandler3@@@@YA?AW4_EXCEPTION_DISPOSITION@@PEAUEHExceptionRecord@@PEA_KPEAU_CONTEXT@@PEAU_xDISPATCHER_CONTEXT@@PEBU_s_FuncInfo@@H1E@Z 000000018005e2ec     libvcruntime:frame.obj
 0004:000022f8       $pdata$??0bad_exception@std@@QEAA@AEBV01@@Z 000000018005e2f8     libvcruntime:frame.obj
 0004:00002304       $pdata$?CxxCallCatchBlock@__FrameHandler3@@SAPEAXPEAU_EXCEPTION_RECORD@@@Z 000000018005e304     libvcruntime:frame.obj
 0004:00002310       $pdata$?ExFilterRethrow@@YAHPEAU_EXCEPTION_POINTERS@@PEAUEHExceptionRecord@@PEAH@Z 000000018005e310     libvcruntime:frame.obj
 0004:0000231c       $pdata$?FrameUnwindToState@__FrameHandler3@@SAXPEA_KPEAU_xDISPATCHER_CONTEXT@@PEBU_s_FuncInfo@@H@Z 000000018005e31c     libvcruntime:frame.obj
 0004:00002328       $pdata$?GetHandlerSearchState@__FrameHandler3@@SAHPEA_KPEAU_xDISPATCHER_CONTEXT@@PEBU_s_FuncInfo@@@Z 000000018005e328     libvcruntime:frame.obj
 0004:00002334       $pdata$?IsInExceptionSpec@@YAEPEAUEHExceptionRecord@@PEBU_s_ESTypeList@@@Z 000000018005e334     libvcruntime:frame.obj
 0004:00002340       $pdata$?Is_bad_exception_allowed@@YAEPEBU_s_ESTypeList@@@Z 000000018005e340     libvcruntime:frame.obj
 0004:0000234c       $pdata$__vcrt_initialize_locks 000000018005e34c     libvcruntime:locks.obj
 0004:00002358       $pdata$__vcrt_uninitialize_locks 000000018005e358     libvcruntime:locks.obj
 0004:00002364       $pdata$?try_get_function@@YAPEAXW4function_id@?A0x2eb21ddb@@QEBDQEBW4module_id@2@2@Z 000000018005e364     libvcruntime:winapi_downlevel.obj
 0004:00002370       $pdata$__vcrt_FlsAlloc     000000018005e370     libvcruntime:winapi_downlevel.obj
 0004:0000237c       $pdata$__vcrt_FlsFree      000000018005e37c     libvcruntime:winapi_downlevel.obj
 0004:00002388       $pdata$__vcrt_FlsGetValue  000000018005e388     libvcruntime:winapi_downlevel.obj
 0004:00002394       $pdata$__vcrt_FlsSetValue  000000018005e394     libvcruntime:winapi_downlevel.obj
 0004:000023a0       $pdata$__vcrt_InitializeCriticalSectionEx 000000018005e3a0     libvcruntime:winapi_downlevel.obj
 0004:000023ac       $pdata$__vcrt_initialize_winapi_thunks 000000018005e3ac     libvcruntime:winapi_downlevel.obj
 0004:000023b8       $pdata$__vcrt_uninitialize_winapi_thunks 000000018005e3b8     libvcruntime:winapi_downlevel.obj
 0004:00002418       $pdata$__acrt_errno_map_os_error 000000018005e418     libucrt:errno.obj
 0004:00002424       $pdata$__doserrno          000000018005e424     libucrt:errno.obj
 0004:00002430       $pdata$_errno              000000018005e430     libucrt:errno.obj
 0004:0000243c       $pdata$??$parse_integer@KV?$c_string_character_source@D@__crt_strtox@@@__crt_strtox@@YAKQEAU__crt_locale_pointers@@V?$c_string_character_source@D@0@H_N@Z 000000018005e43c     libucrt:strtox.obj
 0004:00002448       $pdata$??$parse_integer@KV?$c_string_character_source@_W@__crt_strtox@@@__crt_strtox@@YAKQEAU__crt_locale_pointers@@V?$c_string_character_source@_W@0@H_N@Z 000000018005e448     libucrt:strtox.obj
 0004:00002454       $pdata$??0_LocaleUpdate@@QEAA@QEAU__crt_locale_pointers@@@Z 000000018005e454     libucrt:strtox.obj
 0004:00002460       $pdata$strtol              000000018005e460     libucrt:strtox.obj
 0004:0000246c       $pdata$wcstol              000000018005e46c     libucrt:strtox.obj
 0004:00002478       $pdata$??$common_assert_to_message_box@_W@@YAXQEB_W0IQEAX@Z 000000018005e478     libucrt:assert.obj
 0004:00002484       $pdata$??$common_assert_to_message_box_build_string@_W@@YAXQEA_W_KQEB_W2IQEAX@Z 000000018005e484     libucrt:assert.obj
 0004:00002490       $pdata$??$common_assert_to_stderr@_W@@YAXQEB_W0I@Z 000000018005e490     libucrt:assert.obj
 0004:0000249c       $pdata$_wassert            000000018005e49c     libucrt:assert.obj
 0004:000024a8       $pdata$fwprintf            000000018005e4a8     libucrt:assert.obj
 0004:000024b4       $pdata$swprintf            000000018005e4b4     libucrt:assert.obj
 0004:000024c0       $pdata$__acrt_call_reportfault 000000018005e4c0     libucrt:invalid_parameter.obj
 0004:000024cc       $pdata$_invalid_parameter  000000018005e4cc     libucrt:invalid_parameter.obj
 0004:000024d8       $pdata$_invalid_parameter_noinfo 000000018005e4d8     libucrt:invalid_parameter.obj
 0004:000024e4       $pdata$_invalid_parameter_noinfo_noreturn 000000018005e4e4     libucrt:invalid_parameter.obj
 0004:000024f0       $pdata$_invoke_watson      000000018005e4f0     libucrt:invalid_parameter.obj
 0004:000024fc       $pdata$??$common_fsopen@D@@YAPEAU_iobuf@@QEBD0H@Z 000000018005e4fc     libucrt:fopen.obj
 0004:00002508       $pdata$_fclose_nolock      000000018005e508     libucrt:fclose.obj
 0004:00002514       $pdata$fclose              000000018005e514     libucrt:fclose.obj
 0004:00002520       $pdata$_stricmp            000000018005e520     libucrt:stricmp.obj
 0004:0000252c       $pdata$_stricmp_l          000000018005e52c     libucrt:stricmp.obj
 0004:00002538       $pdata$??$?RV<lambda_842d9ff0dc9ef11c61343bbaebe7f885>@@AEAV<lambda_c5860995281e5c4ce005b3de8f5874ee>@@V<lambda_d90129c13df834fdcbf8d2b88dafcf2d>@@@?$__crt_seh_guarded_call@X@@QEAAX$$QEAV<lambda_842d9ff0dc9ef11c61343bbaebe7f885>@@AEAV<lambda_c5860995281e5c4ce005b3de8f5874ee>@@$$QEAV<lambda_d90129c13df834fdcbf8d2b88dafcf2d>@@@Z 000000018005e538     libucrt:fflush.obj
 0004:00002544       $pdata$??$?RV<lambda_886d6c58226a84441f68b9f2b8217b83>@@AEAV<lambda_ab61a845afdef5b7c387490eaf3616ee>@@V<lambda_f7f22ab5edc0698d5f6905b0d3f44752>@@@?$__crt_seh_guarded_call@X@@QEAAX$$QEAV<lambda_886d6c58226a84441f68b9f2b8217b83>@@AEAV<lambda_ab61a845afdef5b7c387490eaf3616ee>@@$$QEAV<lambda_f7f22ab5edc0698d5f6905b0d3f44752>@@@Z 000000018005e544     libucrt:fflush.obj
 0004:00002550       $pdata$??$?RV<lambda_c376a267cfb53b6959b3b692ec76b120>@@AEAV<lambda_9a32fed5bf61b6b509b2d3f6003082a1>@@V<lambda_572fbb9fa0ab338edf41edfd4b5fcc8d>@@@?$__crt_seh_guarded_call@H@@QEAAH$$QEAV<lambda_c376a267cfb53b6959b3b692ec76b120>@@AEAV<lambda_9a32fed5bf61b6b509b2d3f6003082a1>@@$$QEAV<lambda_572fbb9fa0ab338edf41edfd4b5fcc8d>@@@Z 000000018005e550     libucrt:fflush.obj
 0004:0000255c       $pdata$?common_flush_all@@YAH_N@Z 000000018005e55c     libucrt:fflush.obj
 0004:00002568       $pdata$__acrt_stdio_flush_nolock 000000018005e568     libucrt:fflush.obj
 0004:00002574       $pdata$_fflush_nolock      000000018005e574     libucrt:fflush.obj
 0004:00002580       $pdata$fflush              000000018005e580     libucrt:fflush.obj
 0004:0000258c       $pdata$??$__acrt_mbs_to_wcs_cp@U__crt_win32_buffer_internal_dynamic_resizing@@@@YAHQEBDAEAV?$__crt_win32_buffer@_WU__crt_win32_buffer_internal_dynamic_resizing@@@@I@Z 000000018005e58c     libucrt:unlink.obj
 0004:00002598       $pdata$?divide@__crt_strtox@@YA_KAEAUbig_integer@1@AEBU21@@Z 000000018005e598     libucrt:atof.obj
 0004:000025a4       $pdata$0$?divide@__crt_strtox@@YA_KAEAUbig_integer@1@AEBU21@@Z 000000018005e5a4     libucrt:atof.obj
 0004:000025b0       $pdata$6$?divide@__crt_strtox@@YA_KAEAUbig_integer@1@AEBU21@@Z 000000018005e5b0     libucrt:atof.obj
 0004:000025bc       $pdata$7$?divide@__crt_strtox@@YA_KAEAUbig_integer@1@AEBU21@@Z 000000018005e5bc     libucrt:atof.obj
 0004:000025c8       $pdata$8$?divide@__crt_strtox@@YA_KAEAUbig_integer@1@AEBU21@@Z 000000018005e5c8     libucrt:atof.obj
 0004:000025d4       $pdata$memcpy_s            000000018005e5d4     libucrt:atof.obj
 0004:000025d4       $pdata$memcpy_s            000000018005e5d4     libucrt:cfout.obj
 0004:000025e0       $pdata$abort               000000018005e5e0     libucrt:abort.obj
 0004:000025ec       $pdata$__acrt_initialize_stdio 000000018005e5ec     libucrt:_file.obj
 0004:000025f8       $pdata$__acrt_uninitialize_stdio 000000018005e5f8     libucrt:_file.obj
 0004:00002604       $pdata$??$?RV<lambda_0d412022a4b28cc8a401ea49574e8ae6>@@AEAV<lambda_a775ed57af18ba8e4d5dc780aa9068fe>@@V<lambda_975a71a6baa488a08f4e15f6b0339b9e>@@@?$__crt_seh_guarded_call@H@@QEAAH$$QEAV<lambda_0d412022a4b28cc8a401ea49574e8ae6>@@AEAV<lambda_a775ed57af18ba8e4d5dc780aa9068fe>@@$$QEAV<lambda_975a71a6baa488a08f4e15f6b0339b9e>@@@Z 000000018005e604     libucrt:output.obj
 0004:00002610       $pdata$??$?RV<lambda_a62c933ada0517137acf5807a1eeac1f>@@AEAV<lambda_a31071773b9a94e445cbd5d04ef99106>@@V<lambda_56065050dbf3ada7e59a83db45153de3>@@@?$__crt_seh_guarded_call@H@@QEAAH$$QEAV<lambda_a62c933ada0517137acf5807a1eeac1f>@@AEAV<lambda_a31071773b9a94e445cbd5d04ef99106>@@$$QEAV<lambda_56065050dbf3ada7e59a83db45153de3>@@@Z 000000018005e610     libucrt:output.obj
 0004:0000261c       $pdata$??$common_vsprintf@Vstandard_base@__crt_stdio_output@@_W@@YAH_KQEA_W0QEB_WQEAU__crt_locale_pointers@@QEAD@Z 000000018005e61c     libucrt:output.obj
 0004:00002628       $pdata$??$ensure_buffer_is_big_enough@D@formatting_buffer@__crt_stdio_output@@QEAA_N_K@Z 000000018005e628     libucrt:output.obj
 0004:00002634       $pdata$??$ensure_buffer_is_big_enough@_W@formatting_buffer@__crt_stdio_output@@QEAA_N_K@Z 000000018005e634     libucrt:output.obj
 0004:00002640       $pdata$??$type_case_integer_parse_into_buffer@I@?$output_processor@DV?$stream_output_adapter@D@__crt_stdio_output@@V?$standard_base@DV?$stream_output_adapter@D@__crt_stdio_output@@@2@@__crt_stdio_output@@AEAAXII_N@Z 000000018005e640     libucrt:output.obj
 0004:0000264c       $pdata$??$type_case_integer_parse_into_buffer@I@?$output_processor@_WV?$string_output_adapter@_W@__crt_stdio_output@@V?$standard_base@_WV?$string_output_adapter@_W@__crt_stdio_output@@@2@@__crt_stdio_output@@AEAAXII_N@Z 000000018005e64c     libucrt:output.obj
 0004:0000264c       $pdata$??$type_case_integer_parse_into_buffer@I@?$output_processor@_WV?$stream_output_adapter@_W@__crt_stdio_output@@V?$standard_base@_WV?$stream_output_adapter@_W@__crt_stdio_output@@@2@@__crt_stdio_output@@AEAAXII_N@Z 000000018005e64c     libucrt:output.obj
 0004:00002658       $pdata$??$type_case_integer_parse_into_buffer@_K@?$output_processor@DV?$stream_output_adapter@D@__crt_stdio_output@@V?$standard_base@DV?$stream_output_adapter@D@__crt_stdio_output@@@2@@__crt_stdio_output@@AEAAX_KI_N@Z 000000018005e658     libucrt:output.obj
 0004:00002664       $pdata$??$type_case_integer_parse_into_buffer@_K@?$output_processor@_WV?$string_output_adapter@_W@__crt_stdio_output@@V?$standard_base@_WV?$string_output_adapter@_W@__crt_stdio_output@@@2@@__crt_stdio_output@@AEAAX_KI_N@Z 000000018005e664     libucrt:output.obj
 0004:00002664       $pdata$??$type_case_integer_parse_into_buffer@_K@?$output_processor@_WV?$stream_output_adapter@_W@__crt_stdio_output@@V?$standard_base@_WV?$stream_output_adapter@_W@__crt_stdio_output@@@2@@__crt_stdio_output@@AEAAX_KI_N@Z 000000018005e664     libucrt:output.obj
 0004:00002670       $pdata$??$write_multiple_characters@V?$stream_output_adapter@D@__crt_stdio_output@@D@__crt_stdio_output@@YAXAEBV?$stream_output_adapter@D@0@DHQEAH@Z 000000018005e670     libucrt:output.obj
 0004:0000267c       $pdata$??$write_multiple_characters@V?$stream_output_adapter@_W@__crt_stdio_output@@D@__crt_stdio_output@@YAXAEBV?$stream_output_adapter@_W@0@DHQEAH@Z 000000018005e67c     libucrt:output.obj
 0004:00002688       $pdata$??$write_multiple_characters@V?$string_output_adapter@_W@__crt_stdio_output@@D@__crt_stdio_output@@YAXAEBV?$string_output_adapter@_W@0@DHQEAH@Z 000000018005e688     libucrt:output.obj
 0004:00002694       $pdata$??R<lambda_a31071773b9a94e445cbd5d04ef99106>@@QEBAHXZ 000000018005e694     libucrt:output.obj
 0004:000026a0       $pdata$??R<lambda_a775ed57af18ba8e4d5dc780aa9068fe>@@QEBAHXZ 000000018005e6a0     libucrt:output.obj
 0004:000026ac       $pdata$?force_decimal_point@__crt_stdio_output@@YAXPEADQEAU__crt_locale_pointers@@@Z 000000018005e6ac     libucrt:output.obj
 0004:000026b8       $pdata$?parse_int_from_format_string@?$output_processor@DV?$stream_output_adapter@D@__crt_stdio_output@@V?$standard_base@DV?$stream_output_adapter@D@__crt_stdio_output@@@2@@__crt_stdio_output@@AEAA_NQEAH@Z 000000018005e6b8     libucrt:output.obj
 0004:000026c4       $pdata$?parse_int_from_format_string@?$output_processor@_WV?$string_output_adapter@_W@__crt_stdio_output@@V?$standard_base@_WV?$string_output_adapter@_W@__crt_stdio_output@@@2@@__crt_stdio_output@@AEAA_NQEAH@Z 000000018005e6c4     libucrt:output.obj
 0004:000026c4       $pdata$?parse_int_from_format_string@?$output_processor@_WV?$stream_output_adapter@_W@__crt_stdio_output@@V?$standard_base@_WV?$stream_output_adapter@_W@__crt_stdio_output@@@2@@__crt_stdio_output@@AEAA_NQEAH@Z 000000018005e6c4     libucrt:output.obj
 0004:000026d0       $pdata$?process@?$output_processor@DV?$stream_output_adapter@D@__crt_stdio_output@@V?$standard_base@DV?$stream_output_adapter@D@__crt_stdio_output@@@2@@__crt_stdio_output@@QEAAHXZ 000000018005e6d0     libucrt:output.obj
 0004:000026dc       $pdata$?process@?$output_processor@_WV?$stream_output_adapter@_W@__crt_stdio_output@@V?$standard_base@_WV?$stream_output_adapter@_W@__crt_stdio_output@@@2@@__crt_stdio_output@@QEAAHXZ 000000018005e6dc     libucrt:output.obj
 0004:000026e8       $pdata$?process@?$output_processor@_WV?$string_output_adapter@_W@__crt_stdio_output@@V?$standard_base@_WV?$string_output_adapter@_W@__crt_stdio_output@@@2@@__crt_stdio_output@@QEAAHXZ 000000018005e6e8     libucrt:output.obj
 0004:000026f4       $pdata$?state_case_normal@?$output_processor@DV?$stream_output_adapter@D@__crt_stdio_output@@V?$standard_base@DV?$stream_output_adapter@D@__crt_stdio_output@@@2@@__crt_stdio_output@@AEAA_NXZ 000000018005e6f4     libucrt:output.obj
 0004:00002700       $pdata$?state_case_normal_tchar@?$output_processor@DV?$stream_output_adapter@D@__crt_stdio_output@@V?$standard_base@DV?$stream_output_adapter@D@__crt_stdio_output@@@2@@__crt_stdio_output@@AEAA_ND@Z 000000018005e700     libucrt:output.obj
 0004:0000270c       $pdata$?state_case_size@?$output_processor@DV?$stream_output_adapter@D@__crt_stdio_output@@V?$standard_base@DV?$stream_output_adapter@D@__crt_stdio_output@@@2@@__crt_stdio_output@@AEAA_NXZ 000000018005e70c     libucrt:output.obj
 0004:00002718       $pdata$?state_case_size@?$output_processor@_WV?$stream_output_adapter@_W@__crt_stdio_output@@V?$standard_base@_WV?$stream_output_adapter@_W@__crt_stdio_output@@@2@@__crt_stdio_output@@AEAA_NXZ 000000018005e718     libucrt:output.obj
 0004:00002724       $pdata$?state_case_size@?$output_processor@_WV?$string_output_adapter@_W@__crt_stdio_output@@V?$standard_base@_WV?$string_output_adapter@_W@__crt_stdio_output@@@2@@__crt_stdio_output@@AEAA_NXZ 000000018005e724     libucrt:output.obj
 0004:00002730       $pdata$?state_case_type@?$output_processor@DV?$stream_output_adapter@D@__crt_stdio_output@@V?$standard_base@DV?$stream_output_adapter@D@__crt_stdio_output@@@2@@__crt_stdio_output@@AEAA_NXZ 000000018005e730     libucrt:output.obj
 0004:0000273c       $pdata$?state_case_type@?$output_processor@_WV?$stream_output_adapter@_W@__crt_stdio_output@@V?$standard_base@_WV?$stream_output_adapter@_W@__crt_stdio_output@@@2@@__crt_stdio_output@@AEAA_NXZ 000000018005e73c     libucrt:output.obj
 0004:00002748       $pdata$?state_case_type@?$output_processor@_WV?$string_output_adapter@_W@__crt_stdio_output@@V?$standard_base@_WV?$string_output_adapter@_W@__crt_stdio_output@@@2@@__crt_stdio_output@@AEAA_NXZ 000000018005e748     libucrt:output.obj
 0004:00002754       $pdata$?type_case_Z@?$output_processor@_WV?$stream_output_adapter@_W@__crt_stdio_output@@V?$standard_base@_WV?$stream_output_adapter@_W@__crt_stdio_output@@@2@@__crt_stdio_output@@AEAA_NXZ 000000018005e754     libucrt:output.obj
 0004:00002754       $pdata$?type_case_Z@?$output_processor@_WV?$string_output_adapter@_W@__crt_stdio_output@@V?$standard_base@_WV?$string_output_adapter@_W@__crt_stdio_output@@@2@@__crt_stdio_output@@AEAA_NXZ 000000018005e754     libucrt:output.obj
 0004:00002760       $pdata$?type_case_a@?$output_processor@DV?$stream_output_adapter@D@__crt_stdio_output@@V?$standard_base@DV?$stream_output_adapter@D@__crt_stdio_output@@@2@@__crt_stdio_output@@AEAA_NXZ 000000018005e760     libucrt:output.obj
 0004:0000276c       $pdata$?type_case_a@?$output_processor@_WV?$stream_output_adapter@_W@__crt_stdio_output@@V?$standard_base@_WV?$stream_output_adapter@_W@__crt_stdio_output@@@2@@__crt_stdio_output@@AEAA_NXZ 000000018005e76c     libucrt:output.obj
 0004:0000276c       $pdata$?type_case_a@?$output_processor@_WV?$string_output_adapter@_W@__crt_stdio_output@@V?$standard_base@_WV?$string_output_adapter@_W@__crt_stdio_output@@@2@@__crt_stdio_output@@AEAA_NXZ 000000018005e76c     libucrt:output.obj
 0004:00002778       $pdata$?type_case_c_tchar@?$output_processor@DV?$stream_output_adapter@D@__crt_stdio_output@@V?$standard_base@DV?$stream_output_adapter@D@__crt_stdio_output@@@2@@__crt_stdio_output@@AEAA_ND@Z 000000018005e778     libucrt:output.obj
 0004:00002784       $pdata$?type_case_c_tchar@?$output_processor@_WV?$string_output_adapter@_W@__crt_stdio_output@@V?$standard_base@_WV?$string_output_adapter@_W@__crt_stdio_output@@@2@@__crt_stdio_output@@AEAA_N_W@Z 000000018005e784     libucrt:output.obj
 0004:00002784       $pdata$?type_case_c_tchar@?$output_processor@_WV?$stream_output_adapter@_W@__crt_stdio_output@@V?$standard_base@_WV?$stream_output_adapter@_W@__crt_stdio_output@@@2@@__crt_stdio_output@@AEAA_N_W@Z 000000018005e784     libucrt:output.obj
 0004:00002790       $pdata$?type_case_integer@?$output_processor@DV?$stream_output_adapter@D@__crt_stdio_output@@V?$standard_base@DV?$stream_output_adapter@D@__crt_stdio_output@@@2@@__crt_stdio_output@@AEAA_NI_N@Z 000000018005e790     libucrt:output.obj
 0004:0000279c       $pdata$?type_case_integer@?$output_processor@_WV?$string_output_adapter@_W@__crt_stdio_output@@V?$standard_base@_WV?$string_output_adapter@_W@__crt_stdio_output@@@2@@__crt_stdio_output@@AEAA_NI_N@Z 000000018005e79c     libucrt:output.obj
 0004:0000279c       $pdata$?type_case_integer@?$output_processor@_WV?$stream_output_adapter@_W@__crt_stdio_output@@V?$standard_base@_WV?$stream_output_adapter@_W@__crt_stdio_output@@@2@@__crt_stdio_output@@AEAA_NI_N@Z 000000018005e79c     libucrt:output.obj
 0004:000027a8       $pdata$?type_case_n@?$output_processor@_WV?$string_output_adapter@_W@__crt_stdio_output@@V?$standard_base@_WV?$string_output_adapter@_W@__crt_stdio_output@@@2@@__crt_stdio_output@@AEAA_NXZ 000000018005e7a8     libucrt:output.obj
 0004:000027a8       $pdata$?type_case_n@?$output_processor@DV?$stream_output_adapter@D@__crt_stdio_output@@V?$standard_base@DV?$stream_output_adapter@D@__crt_stdio_output@@@2@@__crt_stdio_output@@AEAA_NXZ 000000018005e7a8     libucrt:output.obj
 0004:000027a8       $pdata$?type_case_n@?$output_processor@_WV?$stream_output_adapter@_W@__crt_stdio_output@@V?$standard_base@_WV?$stream_output_adapter@_W@__crt_stdio_output@@@2@@__crt_stdio_output@@AEAA_NXZ 000000018005e7a8     libucrt:output.obj
 0004:000027b4       $pdata$?type_case_s@?$output_processor@DV?$stream_output_adapter@D@__crt_stdio_output@@V?$standard_base@DV?$stream_output_adapter@D@__crt_stdio_output@@@2@@__crt_stdio_output@@AEAA_NXZ 000000018005e7b4     libucrt:output.obj
 0004:000027c0       $pdata$?type_case_s@?$output_processor@_WV?$string_output_adapter@_W@__crt_stdio_output@@V?$standard_base@_WV?$string_output_adapter@_W@__crt_stdio_output@@@2@@__crt_stdio_output@@AEAA_NXZ 000000018005e7c0     libucrt:output.obj
 0004:000027c0       $pdata$?type_case_s@?$output_processor@_WV?$stream_output_adapter@_W@__crt_stdio_output@@V?$standard_base@_WV?$stream_output_adapter@_W@__crt_stdio_output@@@2@@__crt_stdio_output@@AEAA_NXZ 000000018005e7c0     libucrt:output.obj
 0004:000027cc       $pdata$?validate_stream_is_ansi_if_required@?$__acrt_stdio_char_traits@D@@SA_NQEAU_iobuf@@@Z 000000018005e7cc     libucrt:output.obj
 0004:000027d8       $pdata$?write_stored_string_tchar@?$output_processor@DV?$stream_output_adapter@D@__crt_stdio_output@@V?$standard_base@DV?$stream_output_adapter@D@__crt_stdio_output@@@2@@__crt_stdio_output@@AEAA_ND@Z 000000018005e7d8     libucrt:output.obj
 0004:000027e4       $pdata$?write_stored_string_tchar@?$output_processor@_WV?$stream_output_adapter@_W@__crt_stdio_output@@V?$standard_base@_WV?$stream_output_adapter@_W@__crt_stdio_output@@@2@@__crt_stdio_output@@AEAA_N_W@Z 000000018005e7e4     libucrt:output.obj
 0004:000027f0       $pdata$?write_stored_string_tchar@?$output_processor@_WV?$string_output_adapter@_W@__crt_stdio_output@@V?$standard_base@_WV?$string_output_adapter@_W@__crt_stdio_output@@@2@@__crt_stdio_output@@AEAA_N_W@Z 000000018005e7f0     libucrt:output.obj
 0004:000027fc       $pdata$?write_string@?$string_output_adapter@_W@__crt_stdio_output@@QEBAXQEB_WHQEAHAEAV__crt_deferred_errno_cache@@@Z 000000018005e7fc     libucrt:output.obj
 0004:00002808       $pdata$?write_string_impl@?$output_adapter_common@DV?$stream_output_adapter@D@__crt_stdio_output@@@__crt_stdio_output@@IEBAXQEBDHQEAHAEAV__crt_deferred_errno_cache@@@Z 000000018005e808     libucrt:output.obj
 0004:00002814       $pdata$?write_string_impl@?$output_adapter_common@_WV?$stream_output_adapter@_W@__crt_stdio_output@@@__crt_stdio_output@@IEBAXQEB_WHQEAHAEAV__crt_deferred_errno_cache@@@Z 000000018005e814     libucrt:output.obj
 0004:00002820       $pdata$__stdio_common_vfprintf 000000018005e820     libucrt:output.obj
 0004:0000282c       $pdata$__stdio_common_vfwprintf 000000018005e82c     libucrt:output.obj
 0004:00002838       $pdata$_fread_nolock_s     000000018005e838     libucrt:fread.obj
 0004:00002844       $pdata$fread               000000018005e844     libucrt:fread.obj
 0004:00002850       $pdata$fread_s             000000018005e850     libucrt:fread.obj
 0004:0000285c       $pdata$??$?RV<lambda_bdbcead8b570fa3d5ec6d9679862a6e5>@@AEAV<lambda_96f4279ff90247a4c5c5d9824f56f8c1>@@V<lambda_4606be27f17b5e5579e09050fab91818>@@@?$__crt_seh_guarded_call@_K@@QEAA_K$$QEAV<lambda_bdbcead8b570fa3d5ec6d9679862a6e5>@@AEAV<lambda_96f4279ff90247a4c5c5d9824f56f8c1>@@$$QEAV<lambda_4606be27f17b5e5579e09050fab91818>@@@Z 000000018005e85c     libucrt:fwrite.obj
 0004:00002868       $pdata$??R<lambda_96f4279ff90247a4c5c5d9824f56f8c1>@@QEBA_KXZ 000000018005e868     libucrt:fwrite.obj
 0004:00002874       $pdata$_fwrite_nolock      000000018005e874     libucrt:fwrite.obj
 0004:00002880       $pdata$fwrite              000000018005e880     libucrt:fwrite.obj
 0004:0000288c       $pdata$_callnewh           000000018005e88c     libucrt:new_handler.obj
 0004:00002898       $pdata$_query_new_handler  000000018005e898     libucrt:new_handler.obj
 0004:000028a4       $pdata$_seh_filter_exe     000000018005e8a4     libucrt:exception_filter.obj
 0004:000028b0       $pdata$??$?RV<lambda_d80eeec6fff315bfe5c115232f3240e3>@@AEAV<lambda_6e4b09c48022b2350581041d5f6b0c4c>@@V<lambda_2358e3775559c9db80273638284d5e45>@@@?$__crt_seh_guarded_call@X@@QEAAX$$QEAV<lambda_d80eeec6fff315bfe5c115232f3240e3>@@AEAV<lambda_6e4b09c48022b2350581041d5f6b0c4c>@@$$QEAV<lambda_2358e3775559c9db80273638284d5e45>@@@Z 000000018005e8b0     libucrt:exit.obj
 0004:000028bc       $pdata$??R<lambda_6e4b09c48022b2350581041d5f6b0c4c>@@QEBA@XZ 000000018005e8bc     libucrt:exit.obj
 0004:000028c8       $pdata$?common_exit@@YAXHW4_crt_exit_cleanup_mode@@W4_crt_exit_return_mode@@@Z 000000018005e8c8     libucrt:exit.obj
 0004:000028d4       $pdata$?exit_or_terminate_process@@YAXI@Z 000000018005e8d4     libucrt:exit.obj
 0004:000028e0       $pdata$?try_cor_exit_process@@YAXI@Z 000000018005e8e0     libucrt:exit.obj
 0004:000028ec       $pdata$??$parse_command_line@D@@YAXPEADPEAPEAD0PEA_K2@Z 000000018005e8ec     libucrt:argv_parsing.obj
 0004:000028f8       $pdata$__acrt_allocate_buffer_for_argv 000000018005e8f8     libucrt:argv_parsing.obj
 0004:00002904       $pdata$_configure_narrow_argv 000000018005e904     libucrt:argv_parsing.obj
 0004:00002910       $pdata$??$common_initialize_environment_nolock@D@@YAHXZ 000000018005e910     libucrt:environment_initialization.obj
 0004:0000291c       $pdata$??$create_environment@D@@YAQEAPEADQEAD@Z 000000018005e91c     libucrt:environment_initialization.obj
 0004:00002928       $pdata$??$free_environment@_W@@YAXQEAPEA_W@Z 000000018005e928     libucrt:environment_initialization.obj
 0004:00002928       $pdata$??$free_environment@D@@YAXQEAPEAD@Z 000000018005e928     libucrt:environment_initialization.obj
 0004:00002934       $pdata$??$uninitialize_environment_internal@D@@YAXAEAPEAPEAD@Z 000000018005e934     libucrt:environment_initialization.obj
 0004:00002940       $pdata$??$uninitialize_environment_internal@_W@@YAXAEAPEAPEA_W@Z 000000018005e940     libucrt:environment_initialization.obj
 0004:0000294c       $pdata$__dcrt_uninitialize_environments_nolock 000000018005e94c     libucrt:environment_initialization.obj
 0004:00002958       $pdata$??$?RV<lambda_7777bce6b2f8c936911f934f8298dc43>@@AEAV<lambda_f03950bc5685219e0bcd2087efbe011e>@@V<lambda_3883c3dff614d5e0c5f61bb1ac94921c>@@@?$__crt_seh_guarded_call@H@@QEAAH$$QEAV<lambda_7777bce6b2f8c936911f934f8298dc43>@@AEAV<lambda_f03950bc5685219e0bcd2087efbe011e>@@$$QEAV<lambda_3883c3dff614d5e0c5f61bb1ac94921c>@@@Z 000000018005e958     libucrt:onexit.obj
 0004:00002964       $pdata$??$?RV<lambda_8369fcb7c4df1e85de37618bd2b85f07>@@AEAV<lambda_a10e4b102d4a2c3aac6f4f48bbdf488f>@@V<lambda_5b7707bd6d7a0c4713179f36c7fd995d>@@@?$__crt_seh_guarded_call@H@@QEAAH$$QEAV<lambda_8369fcb7c4df1e85de37618bd2b85f07>@@AEAV<lambda_a10e4b102d4a2c3aac6f4f48bbdf488f>@@$$QEAV<lambda_5b7707bd6d7a0c4713179f36c7fd995d>@@@Z 000000018005e964     libucrt:onexit.obj
 0004:00002970       $pdata$??R<lambda_a10e4b102d4a2c3aac6f4f48bbdf488f>@@QEBAHXZ 000000018005e970     libucrt:onexit.obj
 0004:0000297c       $pdata$??R<lambda_f03950bc5685219e0bcd2087efbe011e>@@QEBAHXZ 000000018005e97c     libucrt:onexit.obj
 0004:00002988       $pdata$_execute_onexit_table 000000018005e988     libucrt:onexit.obj
 0004:00002994       $pdata$_register_onexit_function 000000018005e994     libucrt:onexit.obj
 0004:000029a0       $pdata$initialize_c        000000018005e9a0     libucrt:initialization.obj
 0004:000029ac       $pdata$uninitialize_environment 000000018005e9ac     libucrt:initialization.obj
 0004:000029b8       $pdata$initialize_pointers 000000018005e9b8     libucrt:initialization.obj
 0004:000029c4       $pdata$uninitialize_allocated_memory 000000018005e9c4     libucrt:initialization.obj
 0004:000029d0       $pdata$uninitialize_allocated_io_buffers 000000018005e9d0     libucrt:initialization.obj
 0004:000029dc       $pdata$__acrt_thread_attach 000000018005e9dc     libucrt:initialization.obj
 0004:000029e8       $pdata$__acrt_thread_detach 000000018005e9e8     libucrt:initialization.obj
 0004:000029f4       $pdata$__acrt_uninitialize 000000018005e9f4     libucrt:initialization.obj
 0004:00002a00       $pdata$__acrt_uninitialize_critical 000000018005ea00     libucrt:initialization.obj
 0004:00002a0c       $pdata$_initterm           000000018005ea0c     libucrt:initterm.obj
 0004:00002a18       $pdata$_initterm_e         000000018005ea18     libucrt:initterm.obj
 0004:00002a24       $pdata$terminate           000000018005ea24     libucrt:terminate.obj
 0004:00002a30       $pdata$strcpy_s            000000018005ea30     libucrt:strcpy_s.obj
 0004:00002a48       $pdata$??$?RV<lambda_0ae27a3a962d80f24befdcbee591983d>@@AEAV<lambda_8d0ee55de4b1038c4002e0adecdf1839>@@V<lambda_dc504788e8f1664fe9b84e20bfb512f2>@@@?$__crt_seh_guarded_call@X@@QEAAX$$QEAV<lambda_0ae27a3a962d80f24befdcbee591983d>@@AEAV<lambda_8d0ee55de4b1038c4002e0adecdf1839>@@$$QEAV<lambda_dc504788e8f1664fe9b84e20bfb512f2>@@@Z 000000018005ea48     libucrt:per_thread_data.obj
 0004:00002a54       $pdata$??$?RV<lambda_2d41944a1d46af3157314b8a01080d33>@@AEAV<lambda_8f455de75cd7d7f24b4096f044d8b9e6>@@V<lambda_aa500f224e6afead328df44964fe2772>@@@?$__crt_seh_guarded_call@X@@QEAAX$$QEAV<lambda_2d41944a1d46af3157314b8a01080d33>@@AEAV<lambda_8f455de75cd7d7f24b4096f044d8b9e6>@@$$QEAV<lambda_aa500f224e6afead328df44964fe2772>@@@Z 000000018005ea54     libucrt:per_thread_data.obj
 0004:00002a60       $pdata$??$?RV<lambda_aa87e3671a710a21b5dc78c0bdf72e11>@@AEAV<lambda_92619d2358a28f41a33ba319515a20b9>@@V<lambda_6992ecaafeb10aed2b74cb1fae11a551>@@@?$__crt_seh_guarded_call@X@@QEAAX$$QEAV<lambda_aa87e3671a710a21b5dc78c0bdf72e11>@@AEAV<lambda_92619d2358a28f41a33ba319515a20b9>@@$$QEAV<lambda_6992ecaafeb10aed2b74cb1fae11a551>@@@Z 000000018005ea60     libucrt:per_thread_data.obj
 0004:00002a6c       $pdata$??$?RV<lambda_f2e299630e499de9f9a165e60fcd3db5>@@AEAV<lambda_2ae9d31cdba2644fcbeaf08da7c24588>@@V<lambda_40d01ff24d0e7b3814fdbdcee8eab3c7>@@@?$__crt_seh_guarded_call@X@@QEAAX$$QEAV<lambda_f2e299630e499de9f9a165e60fcd3db5>@@AEAV<lambda_2ae9d31cdba2644fcbeaf08da7c24588>@@$$QEAV<lambda_40d01ff24d0e7b3814fdbdcee8eab3c7>@@@Z 000000018005ea6c     libucrt:per_thread_data.obj
 0004:00002a78       $pdata$?construct_ptd_array@@YAXQEAU__acrt_ptd@@@Z 000000018005ea78     libucrt:per_thread_data.obj
 0004:00002a84       $pdata$?destroy_fls@@YAXPEAX@Z 000000018005ea84     libucrt:per_thread_data.obj
 0004:00002a90       $pdata$?destroy_ptd_array@@YAXQEAU__acrt_ptd@@@Z 000000018005ea90     libucrt:per_thread_data.obj
 0004:00002a9c       $pdata$?replace_current_thread_locale_nolock@@YAXQEAU__acrt_ptd@@QEAU__crt_locale_data@@@Z 000000018005ea9c     libucrt:per_thread_data.obj
 0004:00002aa8       $pdata$__acrt_freeptd      000000018005eaa8     libucrt:per_thread_data.obj
 0004:00002ab4       $pdata$__acrt_getptd       000000018005eab4     libucrt:per_thread_data.obj
 0004:00002ac0       $pdata$__acrt_getptd_head  000000018005eac0     libucrt:per_thread_data.obj
 0004:00002acc       $pdata$__acrt_getptd_noexit 000000018005eacc     libucrt:per_thread_data.obj
 0004:00002ad8       $pdata$__acrt_initialize_ptd 000000018005ead8     libucrt:per_thread_data.obj
 0004:00002ae4       $pdata$__acrt_uninitialize_ptd 000000018005eae4     libucrt:per_thread_data.obj
 0004:00002af0       $pdata$__pctype_func       000000018005eaf0     libucrt:ctype.obj
 0004:00002afc       $pdata$iswctype            000000018005eafc     libucrt:iswctype.obj
 0004:00002b08       $pdata$_isctype_l          000000018005eb08     libucrt:isctype.obj
 0004:00002b14       $pdata$__acrt_update_locale_info 000000018005eb14     libucrt:locale_update.obj
 0004:00002b20       $pdata$__acrt_update_multibyte_info 000000018005eb20     libucrt:locale_update.obj
 0004:00002b2c       $pdata$??$?RV<lambda_410d79af7f07d98d83a3f525b3859a53>@@AEAV<lambda_3e16ef9562a7dcce91392c22ab16ea36>@@V<lambda_38119f0e861e05405d8a144b9b982f0a>@@@?$__crt_seh_guarded_call@X@@QEAAX$$QEAV<lambda_410d79af7f07d98d83a3f525b3859a53>@@AEAV<lambda_3e16ef9562a7dcce91392c22ab16ea36>@@$$QEAV<lambda_38119f0e861e05405d8a144b9b982f0a>@@@Z 000000018005eb2c     libucrt:wsetlocale.obj
 0004:00002b38       $pdata$__acrt_uninitialize_locale 000000018005eb38     libucrt:wsetlocale.obj
 0004:00002b44       $pdata$_free_base          000000018005eb44     libucrt:free_base.obj
 0004:00002b50       $pdata$??$common_xtox@K_W@@YAHKQEA_W_KI_N@Z 000000018005eb50     libucrt:xtoa.obj
 0004:00002b5c       $pdata$??$common_xtox_s@K_W@@YAHKQEA_W_KI_N@Z 000000018005eb5c     libucrt:xtoa.obj
 0004:00002b68       $pdata$_itow_s             000000018005eb68     libucrt:xtoa.obj
 0004:00002b74       $pdata$_set_error_mode     000000018005eb74     libucrt:set_error_mode.obj
 0004:00002b80       $pdata$wcscat_s            000000018005eb80     libucrt:wcscat_s.obj
 0004:00002b8c       $pdata$wcscpy_s            000000018005eb8c     libucrt:wcscpy_s.obj
 0004:00002b98       $pdata$wcsncat_s           000000018005eb98     libucrt:wcsncat_s.obj
 0004:00002ba4       $pdata$__acrt_GetModuleFileNameA 000000018005eba4     libucrt:getmodulefilenamea.obj
 0004:00002bb0       $pdata$__acrt_show_wide_message_box 000000018005ebb0     libucrt:crtmbox.obj
 0004:00002bbc       $pdata$??$?RV<lambda_84ec643ea9557e2f7dc01bb0e9624395>@@AEAV<lambda_ca71763b3c0644891230e4f79ea54fa6>@@V<lambda_439a761618c59b0600e24586724d733b>@@@?$__crt_seh_guarded_call@H@@QEAAH$$QEAV<lambda_84ec643ea9557e2f7dc01bb0e9624395>@@AEAV<lambda_ca71763b3c0644891230e4f79ea54fa6>@@$$QEAV<lambda_439a761618c59b0600e24586724d733b>@@@Z 000000018005ebbc     libucrt:setvbuf.obj
 0004:00002bc8       $pdata$??R<lambda_ca71763b3c0644891230e4f79ea54fa6>@@QEBAHXZ 000000018005ebc8     libucrt:setvbuf.obj
 0004:00002bd4       $pdata$setvbuf             000000018005ebd4     libucrt:setvbuf.obj
 0004:00002be0       $pdata$??$?RV<lambda_450d765d439847d4c735a33c368b5fc0>@@AEAV<lambda_44731a7d0e6d81c3e6aa82d741081786>@@V<lambda_601a2a7da3b7a96e9554ac7215c4b07c>@@@?$__crt_seh_guarded_call@P6AXH@Z@@QEAAP6AXH@Z$$QEAV<lambda_450d765d439847d4c735a33c368b5fc0>@@AEAV<lambda_44731a7d0e6d81c3e6aa82d741081786>@@$$QEAV<lambda_601a2a7da3b7a96e9554ac7215c4b07c>@@@Z 000000018005ebe0     libucrt:signal.obj
 0004:00002bec       $pdata$__acrt_get_sigabrt_handler 000000018005ebec     libucrt:signal.obj
 0004:00002bf8       $pdata$raise               000000018005ebf8     libucrt:signal.obj
 0004:00002c04       $pdata$_malloc_base        000000018005ec04     libucrt:malloc_base.obj
 0004:00002c10       $pdata$?__acrt_stdio_allocate_stream@@YA?AV__crt_stdio_stream@@XZ 000000018005ec10     libucrt:stream.obj
 0004:00002c1c       $pdata$?find_or_allocate_unused_stream_nolock@@YA?AV__crt_stdio_stream@@XZ 000000018005ec1c     libucrt:stream.obj
 0004:00002c28       $pdata$??$__acrt_stdio_parse_mode@D@@YA?AU__acrt_stdio_stream_mode@@QEBD@Z 000000018005ec28     libucrt:openfile.obj
 0004:00002c34       $pdata$_openfile           000000018005ec34     libucrt:openfile.obj
 0004:00002c40       $pdata$??$?RV<lambda_751a882b2c74d4b022dec766aa51a29a>@@AEAV<lambda_628dfdc04ba53c8bfc02c9951375f3f5>@@V<lambda_f6c7be5f7998530c34de24c7437d6b54>@@@?$__crt_seh_guarded_call@H@@QEAAH$$QEAV<lambda_751a882b2c74d4b022dec766aa51a29a>@@AEAV<lambda_628dfdc04ba53c8bfc02c9951375f3f5>@@$$QEAV<lambda_f6c7be5f7998530c34de24c7437d6b54>@@@Z 000000018005ec40     libucrt:close.obj
 0004:00002c4c       $pdata$_close              000000018005ec4c     libucrt:close.obj
 0004:00002c58       $pdata$_close_nolock       000000018005ec58     libucrt:close.obj
 0004:00002c64       $pdata$_fileno             000000018005ec64     libucrt:fileno.obj
 0004:00002c70       $pdata$__acrt_stdio_free_buffer_nolock 000000018005ec70     libucrt:_freebuf.obj
 0004:00002c7c       $pdata$?internal_isupper_l@@YA_NHQEAU__crt_locale_pointers@@@Z 000000018005ec7c     libucrt:tolower_toupper.obj
 0004:00002c88       $pdata$_tolower_l          000000018005ec88     libucrt:tolower_toupper.obj
 0004:00002c94       $pdata$tolower             000000018005ec94     libucrt:tolower_toupper.obj
 0004:00002ca0       $pdata$_raise_exc          000000018005eca0     libucrt:fpexcept.obj
 0004:00002cac       $pdata$_raise_exc_ex       000000018005ecac     libucrt:fpexcept.obj
 0004:00002cb8       $pdata$_set_errno_from_matherr 000000018005ecb8     libucrt:fpexcept.obj
 0004:00002cc4       $pdata$_clrfp              000000018005ecc4     libucrt:fpctrl.obj
 0004:00002cd0       $pdata$_ctrlfp             000000018005ecd0     libucrt:fpctrl.obj
 0004:00002cdc       $pdata$_set_statfp         000000018005ecdc     libucrt:fpctrl.obj
 0004:00002ce8       $pdata$_statfp             000000018005ece8     libucrt:fpctrl.obj
 0004:00002cf4       $pdata$__acrt_initialize_locks 000000018005ecf4     libucrt:locks.obj
 0004:00002d00       $pdata$__acrt_uninitialize_locks 000000018005ed00     libucrt:locks.obj
 0004:00002d0c       $pdata$??$?RV<lambda_a37b2b86f63e897a80ea819b0eb08c01>@@AEAV<lambda_38ce7e780aa69e748d6df282ebc68efe>@@V<lambda_99fb1378e971ab6e7edea83e3a7a83a2>@@@?$__crt_seh_guarded_call@H@@QEAAH$$QEAV<lambda_a37b2b86f63e897a80ea819b0eb08c01>@@AEAV<lambda_38ce7e780aa69e748d6df282ebc68efe>@@$$QEAV<lambda_99fb1378e971ab6e7edea83e3a7a83a2>@@@Z 000000018005ed0c     libucrt:commit.obj
 0004:00002d18       $pdata$_commit             000000018005ed18     libucrt:commit.obj
 0004:00002d24       $pdata$?write_double_translated_ansi_nolock@@YA?AUwrite_result@?A0x17268360@@HQEBDI@Z 000000018005ed24     libucrt:write.obj
 0004:00002d30       $pdata$?write_text_ansi_nolock@@YA?AUwrite_result@?A0x17268360@@HQEBDI@Z 000000018005ed30     libucrt:write.obj
 0004:00002d3c       $pdata$?write_text_utf16le_nolock@@YA?AUwrite_result@?A0x17268360@@HQEBDI@Z 000000018005ed3c     libucrt:write.obj
 0004:00002d48       $pdata$?write_text_utf8_nolock@@YA?AUwrite_result@?A0x17268360@@HQEBDI@Z 000000018005ed48     libucrt:write.obj
 0004:00002d54       $pdata$_write              000000018005ed54     libucrt:write.obj
 0004:00002d60       $pdata$_write_nolock       000000018005ed60     libucrt:write.obj
 0004:00002d6c       $pdata$?try_get_function@@YAPEAXW4function_id@?A0x391cf84c@@QEBDQEBW4module_id@2@2@Z 000000018005ed6c     libucrt:winapi_thunks.obj
 0004:00002d78       $pdata$__acrt_AppPolicyGetProcessTerminationMethodInternal 000000018005ed78     libucrt:winapi_thunks.obj
 0004:00002d84       $pdata$__acrt_AppPolicyGetShowDeveloperDiagnosticInternal 000000018005ed84     libucrt:winapi_thunks.obj
 0004:00002d90       $pdata$__acrt_AppPolicyGetWindowingModelInternal 000000018005ed90     libucrt:winapi_thunks.obj
 0004:00002d9c       $pdata$__acrt_AreFileApisANSI 000000018005ed9c     libucrt:winapi_thunks.obj
 0004:00002da8       $pdata$__acrt_FlsAlloc     000000018005eda8     libucrt:winapi_thunks.obj
 0004:00002db4       $pdata$__acrt_FlsFree      000000018005edb4     libucrt:winapi_thunks.obj
 0004:00002dc0       $pdata$__acrt_FlsGetValue  000000018005edc0     libucrt:winapi_thunks.obj
 0004:00002dcc       $pdata$__acrt_FlsSetValue  000000018005edcc     libucrt:winapi_thunks.obj
 0004:00002dd8       $pdata$__acrt_InitializeCriticalSectionEx 000000018005edd8     libucrt:winapi_thunks.obj
 0004:00002de4       $pdata$__acrt_LCMapStringEx 000000018005ede4     libucrt:winapi_thunks.obj
 0004:00002df0       $pdata$__acrt_LocaleNameToLCID 000000018005edf0     libucrt:winapi_thunks.obj
 0004:00002dfc       $pdata$__acrt_MessageBoxW  000000018005edfc     libucrt:winapi_thunks.obj
 0004:00002e08       $pdata$__acrt_can_show_message_box 000000018005ee08     libucrt:winapi_thunks.obj
 0004:00002e14       $pdata$__acrt_get_parent_window 000000018005ee14     libucrt:winapi_thunks.obj
 0004:00002e20       $pdata$__acrt_initialize_winapi_thunks 000000018005ee20     libucrt:winapi_thunks.obj
 0004:00002e2c       $pdata$__acrt_is_interactive 000000018005ee2c     libucrt:winapi_thunks.obj
 0004:00002e38       $pdata$__acrt_uninitialize_winapi_thunks 000000018005ee38     libucrt:winapi_thunks.obj
 0004:00002e44       $pdata$_calloc_base        000000018005ee44     libucrt:calloc_base.obj
 0004:00002e50       $pdata$?_mbstowcs_l_helper@@YA_KPEA_WPEBD_KPEAU__crt_locale_pointers@@@Z 000000018005ee50     libucrt:mbstowcs.obj
 0004:00002e5c       $pdata$strncpy_s           000000018005ee5c     libucrt:strncpy_s.obj
 0004:00002e68       $pdata$_fcloseall          000000018005ee68     libucrt:closeall.obj
 0004:00002e74       $pdata$?initialize_inherited_file_handles_nolock@@YAXXZ 000000018005ee74     libucrt:ioinit.obj
 0004:00002e80       $pdata$?initialize_stdio_handles_nolock@@YAXXZ 000000018005ee80     libucrt:ioinit.obj
 0004:00002e8c       $pdata$__acrt_initialize_lowio 000000018005ee8c     libucrt:ioinit.obj
 0004:00002e98       $pdata$__acrt_uninitialize_lowio 000000018005ee98     libucrt:ioinit.obj
 0004:00002ea4       $pdata$isdigit             000000018005eea4     libucrt:_ctype.obj
 0004:00002eb0       $pdata$_mbtowc_l           000000018005eeb0     libucrt:mbtowc.obj
 0004:00002ebc       $pdata$_wctomb_s_l         000000018005eebc     libucrt:wctomb.obj
 0004:00002ec8       $pdata$wctomb_s            000000018005eec8     libucrt:wctomb.obj
 0004:00002ed4       $pdata$?fp_format_a@@YAHQEBNPEAD_KQEAD2H_NIQEAU__crt_locale_pointers@@@Z 000000018005eed4     libucrt:cvt.obj
 0004:00002ee0       $pdata$?fp_format_e@@YAHQEBNQEAD_K12H_NIQEAU__crt_locale_pointers@@@Z 000000018005eee0     libucrt:cvt.obj
 0004:00002eec       $pdata$?fp_format_e_internal@@YAHQEAD_KH_NIQEAU_strflt@@2QEAU__crt_locale_pointers@@@Z 000000018005eeec     libucrt:cvt.obj
 0004:00002ef8       $pdata$?fp_format_f_internal@@YAHQEAD_KHQEAU_strflt@@_NQEAU__crt_locale_pointers@@@Z 000000018005eef8     libucrt:cvt.obj
 0004:00002f04       $pdata$?fp_format_g@@YAHQEBNQEAD_K12H_NIQEAU__crt_locale_pointers@@@Z 000000018005ef04     libucrt:cvt.obj
 0004:00002f10       $pdata$?fp_format_nan_or_infinity@@YAHW4__acrt_fp_class@@_NPEAD_K1@Z 000000018005ef10     libucrt:cvt.obj
 0004:00002f1c       $pdata$__acrt_fp_format    000000018005ef1c     libucrt:cvt.obj
 0004:00002f28       $pdata$_fputwc_nolock      000000018005ef28     libucrt:fputwc.obj
 0004:00002f34       $pdata$__acrt_stdio_begin_temporary_buffering_nolock 000000018005ef34     libucrt:_sftbuf.obj
 0004:00002f40       $pdata$__acrt_stdio_end_temporary_buffering_nolock 000000018005ef40     libucrt:_sftbuf.obj
 0004:00002f4c       $pdata$??$translate_text_mode_nolock@D@@YAHHQEAD_K@Z 000000018005ef4c     libucrt:read.obj
 0004:00002f58       $pdata$??$translate_text_mode_nolock@_W@@YAHHQEA_W_K@Z 000000018005ef58     libucrt:read.obj
 0004:00002f64       $pdata$?translate_ansi_or_utf8_nolock@@YAHHQEAD_KQEA_W1@Z 000000018005ef64     libucrt:read.obj
 0004:00002f70       $pdata$_read               000000018005ef70     libucrt:read.obj
 0004:00002f7c       $pdata$_read_nolock        000000018005ef7c     libucrt:read.obj
 0004:00002f88       $pdata$__acrt_stdio_refill_and_read_narrow_nolock 000000018005ef88     libucrt:_filbuf.obj
 0004:00002f94       $pdata$??$write_buffer_nolock@D@@YA_NDV__crt_stdio_stream@@@Z 000000018005ef94     libucrt:_flsbuf.obj
 0004:00002fa0       $pdata$??$write_buffer_nolock@_W@@YA_N_WV__crt_stdio_stream@@@Z 000000018005efa0     libucrt:_flsbuf.obj
 0004:00002fac       $pdata$__acrt_stdio_flush_and_write_narrow_nolock 000000018005efac     libucrt:_flsbuf.obj
 0004:00002fb8       $pdata$__acrt_stdio_flush_and_write_wide_nolock 000000018005efb8     libucrt:_flsbuf.obj
 0004:00002fc4       $pdata$__acrt_get_developer_information_policy 000000018005efc4     libucrt:win_policies.obj
 0004:00002fd0       $pdata$__acrt_get_process_end_policy 000000018005efd0     libucrt:win_policies.obj
 0004:00002fdc       $pdata$__acrt_get_windowing_model_policy 000000018005efdc     libucrt:win_policies.obj
 0004:00002fe8       $pdata$??$common_expand_argv_wildcards@D@@YAHQEAPEADQEAPEAPEAD@Z 000000018005efe8     libucrt:argv_wildcards.obj
 0004:00002ff4       $pdata$??$copy_and_add_argument_to_buffer@D@@YAHQEBD0_KAEAV?$argument_list@D@?A0x5f5c8891@@@Z 000000018005eff4     libucrt:argv_wildcards.obj
 0004:00003000       $pdata$??$expand_argument_wildcards@D@@YAHQEAD0AEAV?$argument_list@D@?A0x5f5c8891@@@Z 000000018005f000     libucrt:argv_wildcards.obj
 0004:0000300c       $pdata$??$?RV<lambda_efdfa57d1f175319df784efa44bb7b81>@@AEAV<lambda_5f0a4c1567f8adc6734073e5d1e1b35c>@@V<lambda_2e8a7d3640ea6ccb4c2413664c2db6fd>@@@?$__crt_seh_guarded_call@X@@QEAAX$$QEAV<lambda_efdfa57d1f175319df784efa44bb7b81>@@AEAV<lambda_5f0a4c1567f8adc6734073e5d1e1b35c>@@$$QEAV<lambda_2e8a7d3640ea6ccb4c2413664c2db6fd>@@@Z 000000018005f00c     libucrt:mbctype.obj
 0004:00003018       $pdata$?getSystemCP@@YAHH@Z 000000018005f018     libucrt:mbctype.obj
 0004:00003024       $pdata$?setSBCS@@YAXPEAU__crt_multibyte_data@@@Z 000000018005f024     libucrt:mbctype.obj
 0004:00003030       $pdata$?setSBUpLow@@YAXPEAU__crt_multibyte_data@@@Z 000000018005f030     libucrt:mbctype.obj
 0004:0000303c       $pdata$?setmbcp_internal@@YAHH_NQEAU__acrt_ptd@@QEAPEAU__crt_multibyte_data@@@Z 000000018005f03c     libucrt:mbctype.obj
 0004:00003048       $pdata$?update_thread_multibyte_data_internal@@YAPEAU__crt_multibyte_data@@QEAU__acrt_ptd@@QEAPEAU1@@Z 000000018005f048     libucrt:mbctype.obj
 0004:00003054       $pdata$__acrt_initialize_multibyte 000000018005f054     libucrt:mbctype.obj
 0004:00003060       $pdata$__acrt_update_thread_multibyte_data 000000018005f060     libucrt:mbctype.obj
 0004:0000306c       $pdata$_setmbcp_nolock     000000018005f06c     libucrt:mbctype.obj
 0004:00003078       $pdata$?x_ismbbtype_l@@YAHPEAU__crt_locale_pointers@@IHH@Z 000000018005f078     libucrt:ismbbyte.obj
 0004:00003084       $pdata$__acrt_initialize_command_line 000000018005f084     libucrt:argv_data.obj
 0004:00003090       $pdata$__acrt_WideCharToMultiByte 000000018005f090     libucrt:widechartomultibyte.obj
 0004:0000309c       $pdata$__dcrt_get_narrow_environment_from_os 000000018005f09c     libucrt:get_environment_from_os.obj
 0004:000030a8       $pdata$_recalloc_base      000000018005f0a8     libucrt:recalloc.obj
 0004:000030b4       $pdata$__acrt_initialize_heap 000000018005f0b4     libucrt:heap_handle.obj
 0004:000030c0       $pdata$__acrt_execute_initializers 000000018005f0c0     libucrt:shared_initialization.obj
 0004:000030cc       $pdata$__acrt_execute_uninitializers 000000018005f0cc     libucrt:shared_initialization.obj
 0004:000030d8       $pdata$__acrt_free_locale  000000018005f0d8     libucrt:locale_refcounting.obj
 0004:000030e4       $pdata$__acrt_locale_free_lc_time_if_unreferenced 000000018005f0e4     libucrt:locale_refcounting.obj
 0004:000030f0       $pdata$__acrt_release_locale_ref 000000018005f0f0     libucrt:locale_refcounting.obj
 0004:000030fc       $pdata$__acrt_update_thread_locale_data 000000018005f0fc     libucrt:locale_refcounting.obj
 0004:00003108       $pdata$_updatetlocinfoEx_nolock 000000018005f108     libucrt:locale_refcounting.obj
 0004:00003114       $pdata$_isleadbyte_l       000000018005f114     libucrt:_wctype.obj
 0004:00003120       $pdata$__acrt_GetStringTypeA 000000018005f120     libucrt:getstringtypea.obj
 0004:0000312c       $pdata$__acrt_locale_free_monetary 000000018005f12c     libucrt:initmon.obj
 0004:00003138       $pdata$__acrt_locale_free_numeric 000000018005f138     libucrt:initnum.obj
 0004:00003144       $pdata$?free_crt_array_internal@@YAXQEAPEBX_K@Z 000000018005f144     libucrt:inittime.obj
 0004:00003150       $pdata$__acrt_locale_free_time 000000018005f150     libucrt:inittime.obj
 0004:0000315c       $pdata$__ascii_strnicmp    000000018005f15c     libucrt:strnicmp.obj
 0004:00003168       $pdata$_strnicmp           000000018005f168     libucrt:strnicmp.obj
 0004:00003174       $pdata$_strnicmp_l         000000018005f174     libucrt:strnicmp.obj
 0004:00003180       $pdata$??$common_sopen_dispatch@D@@YAHQEBDHHHQEAHH@Z 000000018005f180     libucrt:open.obj
 0004:0000318c       $pdata$?configure_text_mode@@YAHHUfile_options@?A0xa9d50aae@@HAEAW4__crt_lowio_text_mode@@@Z 000000018005f18c     libucrt:open.obj
 0004:00003198       $pdata$?decode_options@@YA?AUfile_options@?A0xa9d50aae@@HHH@Z 000000018005f198     libucrt:open.obj
 0004:000031a4       $pdata$?truncate_ctrl_z_if_present@@YAHH@Z 000000018005f1a4     libucrt:open.obj
 0004:000031b0       $pdata$_sopen_nolock       000000018005f1b0     libucrt:open.obj
 0004:000031bc       $pdata$_sopen_s            000000018005f1bc     libucrt:open.obj
 0004:000031c8       $pdata$_wsopen_nolock      000000018005f1c8     libucrt:open.obj
 0004:000031d4       $pdata$__acrt_lowio_create_handle_array 000000018005f1d4     libucrt:osfinfo.obj
 0004:000031e0       $pdata$__acrt_lowio_destroy_handle_array 000000018005f1e0     libucrt:osfinfo.obj
 0004:000031ec       $pdata$__acrt_lowio_ensure_fh_exists 000000018005f1ec     libucrt:osfinfo.obj
 0004:000031f8       $pdata$__acrt_lowio_set_os_handle 000000018005f1f8     libucrt:osfinfo.obj
 0004:00003204       $pdata$_alloc_osfhnd       000000018005f204     libucrt:osfinfo.obj
 0004:00003210       $pdata$_free_osfhnd        000000018005f210     libucrt:osfinfo.obj
 0004:0000321c       $pdata$_get_osfhandle      000000018005f21c     libucrt:osfinfo.obj
 0004:00003228       $pdata$?__acrt_LCMapStringA_stat@@YAHPEAU__crt_locale_pointers@@PEB_WKPEBDHPEADHHH@Z 000000018005f228     libucrt:lcmapstringa.obj
 0004:00003234       $pdata$__acrt_LCMapStringA 000000018005f234     libucrt:lcmapstringa.obj
 0004:0000324c       $pdata$_isatty             000000018005f24c     libucrt:isatty.obj
 0004:00003258       $pdata$??$common_lseek@_J@@YA_JH_JH@Z 000000018005f258     libucrt:lseek.obj
 0004:00003264       $pdata$??$common_lseek_nolock@_J@@YA_JH_JH@Z 000000018005f264     libucrt:lseek.obj
 0004:00003270       $pdata$_putwch_nolock      000000018005f270     libucrt:putwch.obj
 0004:0000327c       $pdata$?GetTableIndexFromLocaleName@@YAHPEB_W@Z 000000018005f27c     libucrt:lcidtoname_downlevel.obj
 0004:00003288       $pdata$__acrt_DownlevelLocaleNameToLCID 000000018005f288     libucrt:lcidtoname_downlevel.obj
 0004:00003294       $pdata$?__mbrtowc_utf8@__crt_mbstring@@YA_KPEA_WPEBD_KPEAU_Mbstatet@@@Z 000000018005f294     libucrt:mbrtowc.obj
 0004:000032a0       $pdata$?__mbsrtowcs_utf8@__crt_mbstring@@YA_KPEA_WPEAPEBD_KPEAU_Mbstatet@@@Z 000000018005f2a0     libucrt:mbrtowc.obj
 0004:000032ac       $pdata$__acrt_fenv_set_control 000000018005f2ac     libucrt:_fenvutils.obj
 0004:000032b8       $pdata$__acrt_fp_strflt_to_string 000000018005f2b8     libucrt:_fptostr.obj
 0004:000032c4       $pdata$__acrt_fltout       000000018005f2c4     libucrt:cfout.obj
 0004:000032d0       $pdata$__acrt_stdio_allocate_buffer_nolock 000000018005f2d0     libucrt:_getbuf.obj
 0004:000032dc       $pdata$qsort               000000018005f2dc     libucrt:qsort.obj
 0004:000032e8       $pdata$4$qsort             000000018005f2e8     libucrt:qsort.obj
 0004:000032f4       $pdata$5$qsort             000000018005f2f4     libucrt:qsort.obj
 0004:00003300       $pdata$fallbackMethod      000000018005f300     libucrt:strpbrk.obj
 0004:0000330c       $pdata$strpbrk             000000018005f30c     libucrt:strpbrk.obj
 0004:00003318       $pdata$??$__acrt_convert_wcs_mbs@D_W$$A6A_KPEA_WPEBD_KPEAU__crt_locale_pointers@@@ZU__crt_win32_buffer_internal_dynamic_resizing@@@@YAHQEBDAEAV?$__crt_win32_buffer@_WU__crt_win32_buffer_internal_dynamic_resizing@@@@A6A_KPEA_WPEBD_KPEAU__crt_locale_pointers@@@Z5@Z 000000018005f318     libucrt:findfirstfileexa.obj
 0004:00003324       $pdata$__acrt_FindFirstFileExA 000000018005f324     libucrt:findfirstfileexa.obj
 0004:00003330       $pdata$??$__acrt_convert_wcs_mbs@_WD$$A6A_KPEADPEB_W_KPEAU__crt_locale_pointers@@@ZU__crt_win32_buffer_no_resizing@@@@YAHQEB_WAEAV?$__crt_win32_buffer@DU__crt_win32_buffer_no_resizing@@@@A6A_KPEADPEB_W_KPEAU__crt_locale_pointers@@@Z5@Z 000000018005f330     libucrt:findnextfilea.obj
 0004:0000333c       $pdata$__acrt_FindNextFileA 000000018005f33c     libucrt:findnextfilea.obj
 0004:00003348       $pdata$_mbsdec_l           000000018005f348     libucrt:mbsdec.obj
 0004:00003354       $pdata$?initialize_multibyte@@YAHXZ 000000018005f354     libucrt:multibyte_initializer.obj
 0004:00003360       $pdata$_msize_base         000000018005f360     libucrt:msize.obj
 0004:0000336c       $pdata$_realloc_base       000000018005f36c     libucrt:realloc_base.obj
 0004:00003378       $pdata$_get_fmode          000000018005f378     libucrt:setmode.obj
 0004:00003384       $pdata$_setmode_nolock     000000018005f384     libucrt:setmode.obj
 0004:00003390       $pdata$_chsize_nolock      000000018005f390     libucrt:chsize.obj
 0004:0000339c       $pdata$__dcrt_lowio_ensure_console_output_initialized 000000018005f39c     libucrt:initcon.obj
 0004:000033a8       $pdata$__dcrt_terminate_console_output 000000018005f3a8     libucrt:initcon.obj
 0004:000033b4       $pdata$__dcrt_write_console 000000018005f3b4     libucrt:initcon.obj
 0004:000033c0       $pdata$?__mbrtoc32_utf8@__crt_mbstring@@YA_KPEA_UPEBD_KPEAU_Mbstatet@@@Z 000000018005f3c0     libucrt:mbrtoc32.obj
 0004:000033cc       $pdata$fegetenv            000000018005f3cc     libucrt:fegetenv.obj
 0004:000033d8       $pdata$fesetenv            000000018005f3d8     libucrt:fesetenv.obj
 0004:000033e4       $pdata$feholdexcept        000000018005f3e4     libucrt:feholdexcept.obj
 0004:000033fc       $pdata$?_wcstombs_l_helper@@YA_KPEADPEB_W_KPEAU__crt_locale_pointers@@@Z 000000018005f3fc     libucrt:wcstombs.obj
 0004:00003408       $pdata$_clearfp            000000018005f408     libucrt:ieee.obj
 0004:00003414       $pdata$_call_matherr       000000018005f414     libucrt:libm_error.obj
 0004:00003420       $pdata$_exception_enabled  000000018005f420     libucrt:libm_error.obj
 0004:0000342c       $pdata$_handle_error       000000018005f42c     libucrt:libm_error.obj
 0004:00003438       $pdata$__acrt_initialize_fma3 000000018005f438     libucrt:fma3_available.obj
 0004:00003444       $pdata$_log10_special      000000018005f444     libucrt:log_special.obj
 0004:00003450       $pdata$_log_special_common 000000018005f450     libucrt:log_special.obj
 0004:0000345c       $pdata$?__wcsrtombs_utf8@__crt_mbstring@@YA_KPEADPEAPEB_W_KPEAU_Mbstatet@@@Z 000000018005f45c     libucrt:wcrtomb.obj
 0004:00003468       $pdata$?__c16rtomb_utf8@__crt_mbstring@@YA_KPEAD_SPEAU_Mbstatet@@@Z 000000018005f468     libucrt:c16rtomb.obj
 0004:00003474       $pdata$?__c32rtomb_utf8@__crt_mbstring@@YA_KPEAD_UPEAU_Mbstatet@@@Z 000000018005f474     libucrt:c32rtomb.obj
 0004:00003480       $pdata$?DloadAcquireSectionWriteAccess@@YAXXZ 000000018005f480     DelayImp:delayhlp.obj
 0004:0000348c       $pdata$?DloadGetSRWLockFunctionPointers@@YAEXZ 000000018005f48c     DelayImp:delayhlp.obj
 0004:00003498       $pdata$?DloadMakePermanentImageCommit@@YAXPEAX_K@Z 000000018005f498     DelayImp:delayhlp.obj
 0004:000034a4       $pdata$?DloadObtainSection@@YAPEAXPEAK0@Z 000000018005f4a4     DelayImp:delayhlp.obj
 0004:000034b0       $pdata$?DloadProtectSection@@YAXKPEAK@Z 000000018005f4b0     DelayImp:delayhlp.obj
 0004:000034bc       $pdata$?DloadReleaseSectionWriteAccess@@YAXXZ 000000018005f4bc     DelayImp:delayhlp.obj
 0004:000034c8       $pdata$__delayLoadHelper2  000000018005f4c8     DelayImp:delayhlp.obj
 0004:000034d4       $pdata$__GSHandlerCheck    000000018005f4d4     LIBCMT:gshandler.obj
 0004:000034e0       $pdata$__GSHandlerCheckCommon 000000018005f4e0     LIBCMT:gshandler.obj
 0004:000034ec       $pdata$_IsNonwritableInCurrentImage 000000018005f4ec     LIBCMT:pesect.obj
 0004:00003504       $pdata$__GSHandlerCheck_EH 000000018005f504     LIBCMT:gshandlereh.obj
 0004:0000351c       $pdata$strrchr             000000018005f51c     libvcruntime:strrchr.obj
 0004:00003534       $pdata$_pow_special        000000018005f534     libucrt:pow_special.obj
 0004:00003570       $pdata$?dtor$0@?0??New@PngImgAdapter@@CAXAEBV?$FunctionCallbackInfo@VValue@v8@@@Nan@@@Z@4HA 000000018005f570     PngImgAdapter.obj
 0004:0000357c       $pdata$?dtor$0@?0??Write@PngImgAdapter@@CAXAEBV?$FunctionCallbackInfo@VValue@v8@@@Nan@@@Z@4HA 000000018005f57c     PngImgAdapter.obj
 0004:00003588       $pdata$?dtor$1@?0??Write@PngImgAdapter@@CAXAEBV?$FunctionCallbackInfo@VValue@v8@@@Nan@@@Z@4HA 000000018005f588     PngImgAdapter.obj
 0004:00003594       $pdata$?dtor$2@?0??Write@PngImgAdapter@@CAXAEBV?$FunctionCallbackInfo@VValue@v8@@@Nan@@@Z@4HA 000000018005f594     PngImgAdapter.obj
 0004:000035a0       $pdata$__scrt_is_nonwritable_in_current_image$filt$0 000000018005f5a0     LIBCMT:utility.obj
 0004:000035ac       $pdata$?fin$0@?0??dllmain_crt_process_attach@@YAHQEAUHINSTANCE__@@QEAX@Z@4HA 000000018005f5ac     LIBCMT:dll_dllmain.obj
 0004:000035b8       $pdata$?fin$0@?0??dllmain_crt_process_detach@@YAH_N@Z@4HA 000000018005f5b8     LIBCMT:dll_dllmain.obj
 0004:000035c4       $pdata$?filt$0@?0??dllmain_dispatch@@YAHQEAUHINSTANCE__@@KQEAX@Z@4HA 000000018005f5c4     LIBCMT:dll_dllmain.obj
 0004:000035d0       $pdata$?filt$0@?0???$_CallSETranslator@V__FrameHandler3@@@@YAHPEAUEHExceptionRecord@@PEA_KPEAU_CONTEXT@@PEAU_xDISPATCHER_CONTEXT@@PEBU_s_FuncInfo@@K1@Z@4HA 000000018005f5d0     libvcruntime:risctrnsctrl.obj
 0004:000035dc       $pdata$__DestructExceptionObject$filt$0 000000018005f5dc     libvcruntime:ehhelpers.obj
 0004:000035e8       $pdata$?filt$0@?0??CxxCallCatchBlock@__FrameHandler3@@SAPEAXPEAU_EXCEPTION_RECORD@@@Z@4HA 000000018005f5e8     libvcruntime:frame.obj
 0004:000035f4       $pdata$?fin$1@?0??CxxCallCatchBlock@__FrameHandler3@@SAPEAXPEAU_EXCEPTION_RECORD@@@Z@4HA 000000018005f5f4     libvcruntime:frame.obj
 0004:00003600       $pdata$?filt$0@?0??FrameUnwindToState@__FrameHandler3@@SAXPEA_KPEAU_xDISPATCHER_CONTEXT@@PEBU_s_FuncInfo@@H@Z@4HA 000000018005f600     libvcruntime:frame.obj
 0004:0000360c       $pdata$?fin$1@?0??FrameUnwindToState@__FrameHandler3@@SAXPEA_KPEAU_xDISPATCHER_CONTEXT@@PEBU_s_FuncInfo@@H@Z@4HA 000000018005f60c     libvcruntime:frame.obj
 0004:00003618       $pdata$?fin$0@?0???$common_fsopen@D@@YAPEAU_iobuf@@QEBD0H@Z@4HA 000000018005f618     libucrt:fopen.obj
 0004:00003624       $pdata$fclose$fin$0        000000018005f624     libucrt:fclose.obj
 0004:00003630       $pdata$?fin$0@?0???$?RV<lambda_84ec643ea9557e2f7dc01bb0e9624395>@@AEAV<lambda_ca71763b3c0644891230e4f79ea54fa6>@@V<lambda_439a761618c59b0600e24586724d733b>@@@?$__crt_seh_guarded_call@H@@QEAAH$$QEAV<lambda_84ec643ea9557e2f7dc01bb0e9624395>@@AEAV<lambda_ca71763b3c0644891230e4f79ea54fa6>@@$$QEAV<lambda_439a761618c59b0600e24586724d733b>@@@Z@4HA 000000018005f630     libucrt:setvbuf.obj
 0004:00003630       $pdata$?fin$0@?0???$?RV<lambda_842d9ff0dc9ef11c61343bbaebe7f885>@@AEAV<lambda_c5860995281e5c4ce005b3de8f5874ee>@@V<lambda_d90129c13df834fdcbf8d2b88dafcf2d>@@@?$__crt_seh_guarded_call@X@@QEAAX$$QEAV<lambda_842d9ff0dc9ef11c61343bbaebe7f885>@@AEAV<lambda_c5860995281e5c4ce005b3de8f5874ee>@@$$QEAV<lambda_d90129c13df834fdcbf8d2b88dafcf2d>@@@Z@4HA 000000018005f630     libucrt:fflush.obj
 0004:00003630       $pdata$?fin$0@?0???$?RV<lambda_bdbcead8b570fa3d5ec6d9679862a6e5>@@AEAV<lambda_96f4279ff90247a4c5c5d9824f56f8c1>@@V<lambda_4606be27f17b5e5579e09050fab91818>@@@?$__crt_seh_guarded_call@_K@@QEAA_K$$QEAV<lambda_bdbcead8b570fa3d5ec6d9679862a6e5>@@AEAV<lambda_96f4279ff90247a4c5c5d9824f56f8c1>@@$$QEAV<lambda_4606be27f17b5e5579e09050fab91818>@@@Z@4HA 000000018005f630     libucrt:fwrite.obj
 0004:00003630       $pdata$?fin$0@?0???$?RV<lambda_c376a267cfb53b6959b3b692ec76b120>@@AEAV<lambda_9a32fed5bf61b6b509b2d3f6003082a1>@@V<lambda_572fbb9fa0ab338edf41edfd4b5fcc8d>@@@?$__crt_seh_guarded_call@H@@QEAAH$$QEAV<lambda_c376a267cfb53b6959b3b692ec76b120>@@AEAV<lambda_9a32fed5bf61b6b509b2d3f6003082a1>@@$$QEAV<lambda_572fbb9fa0ab338edf41edfd4b5fcc8d>@@@Z@4HA 000000018005f630     libucrt:fflush.obj
 0004:00003630       $pdata$?fin$0@?0???$?RV<lambda_a62c933ada0517137acf5807a1eeac1f>@@AEAV<lambda_a31071773b9a94e445cbd5d04ef99106>@@V<lambda_56065050dbf3ada7e59a83db45153de3>@@@?$__crt_seh_guarded_call@H@@QEAAH$$QEAV<lambda_a62c933ada0517137acf5807a1eeac1f>@@AEAV<lambda_a31071773b9a94e445cbd5d04ef99106>@@$$QEAV<lambda_56065050dbf3ada7e59a83db45153de3>@@@Z@4HA 000000018005f630     libucrt:output.obj
 0004:00003630       $pdata$?fin$0@?0???$?RV<lambda_0d412022a4b28cc8a401ea49574e8ae6>@@AEAV<lambda_a775ed57af18ba8e4d5dc780aa9068fe>@@V<lambda_975a71a6baa488a08f4e15f6b0339b9e>@@@?$__crt_seh_guarded_call@H@@QEAAH$$QEAV<lambda_0d412022a4b28cc8a401ea49574e8ae6>@@AEAV<lambda_a775ed57af18ba8e4d5dc780aa9068fe>@@$$QEAV<lambda_975a71a6baa488a08f4e15f6b0339b9e>@@@Z@4HA 000000018005f630     libucrt:output.obj
 0004:0000363c       $pdata$?fin$0@?0???$?RV<lambda_886d6c58226a84441f68b9f2b8217b83>@@AEAV<lambda_ab61a845afdef5b7c387490eaf3616ee>@@V<lambda_f7f22ab5edc0698d5f6905b0d3f44752>@@@?$__crt_seh_guarded_call@X@@QEAAX$$QEAV<lambda_886d6c58226a84441f68b9f2b8217b83>@@AEAV<lambda_ab61a845afdef5b7c387490eaf3616ee>@@$$QEAV<lambda_f7f22ab5edc0698d5f6905b0d3f44752>@@@Z@4HA 000000018005f63c     libucrt:fflush.obj
 0004:00003648       $pdata$fread_s$fin$0       000000018005f648     libucrt:fread.obj
 0004:00003654       $pdata$_query_new_handler$fin$0 000000018005f654     libucrt:new_handler.obj
 0004:00003660       $pdata$?fin$0@?0???$?RV<lambda_efdfa57d1f175319df784efa44bb7b81>@@AEAV<lambda_5f0a4c1567f8adc6734073e5d1e1b35c>@@V<lambda_2e8a7d3640ea6ccb4c2413664c2db6fd>@@@?$__crt_seh_guarded_call@X@@QEAAX$$QEAV<lambda_efdfa57d1f175319df784efa44bb7b81>@@AEAV<lambda_5f0a4c1567f8adc6734073e5d1e1b35c>@@$$QEAV<lambda_2e8a7d3640ea6ccb4c2413664c2db6fd>@@@Z@4HA 000000018005f660     libucrt:mbctype.obj
 0004:00003660       $pdata$?fin$0@?0???$?RV<lambda_450d765d439847d4c735a33c368b5fc0>@@AEAV<lambda_44731a7d0e6d81c3e6aa82d741081786>@@V<lambda_601a2a7da3b7a96e9554ac7215c4b07c>@@@?$__crt_seh_guarded_call@P6AXH@Z@@QEAAP6AXH@Z$$QEAV<lambda_450d765d439847d4c735a33c368b5fc0>@@AEAV<lambda_44731a7d0e6d81c3e6aa82d741081786>@@$$QEAV<lambda_601a2a7da3b7a96e9554ac7215c4b07c>@@@Z@4HA 000000018005f660     libucrt:signal.obj
 0004:00003660       $pdata$?fin$0@?0???$?RV<lambda_2d41944a1d46af3157314b8a01080d33>@@AEAV<lambda_8f455de75cd7d7f24b4096f044d8b9e6>@@V<lambda_aa500f224e6afead328df44964fe2772>@@@?$__crt_seh_guarded_call@X@@QEAAX$$QEAV<lambda_2d41944a1d46af3157314b8a01080d33>@@AEAV<lambda_8f455de75cd7d7f24b4096f044d8b9e6>@@$$QEAV<lambda_aa500f224e6afead328df44964fe2772>@@@Z@4HA 000000018005f660     libucrt:per_thread_data.obj
 0004:00003660       $pdata$?fin$0@?0???$?RV<lambda_f2e299630e499de9f9a165e60fcd3db5>@@AEAV<lambda_2ae9d31cdba2644fcbeaf08da7c24588>@@V<lambda_40d01ff24d0e7b3814fdbdcee8eab3c7>@@@?$__crt_seh_guarded_call@X@@QEAAX$$QEAV<lambda_f2e299630e499de9f9a165e60fcd3db5>@@AEAV<lambda_2ae9d31cdba2644fcbeaf08da7c24588>@@$$QEAV<lambda_40d01ff24d0e7b3814fdbdcee8eab3c7>@@@Z@4HA 000000018005f660     libucrt:per_thread_data.obj
 0004:00003660       $pdata$?fin$0@?0???$?RV<lambda_aa87e3671a710a21b5dc78c0bdf72e11>@@AEAV<lambda_92619d2358a28f41a33ba319515a20b9>@@V<lambda_6992ecaafeb10aed2b74cb1fae11a551>@@@?$__crt_seh_guarded_call@X@@QEAAX$$QEAV<lambda_aa87e3671a710a21b5dc78c0bdf72e11>@@AEAV<lambda_92619d2358a28f41a33ba319515a20b9>@@$$QEAV<lambda_6992ecaafeb10aed2b74cb1fae11a551>@@@Z@4HA 000000018005f660     libucrt:per_thread_data.obj
 0004:00003660       $pdata$?fin$0@?0???$?RV<lambda_0ae27a3a962d80f24befdcbee591983d>@@AEAV<lambda_8d0ee55de4b1038c4002e0adecdf1839>@@V<lambda_dc504788e8f1664fe9b84e20bfb512f2>@@@?$__crt_seh_guarded_call@X@@QEAAX$$QEAV<lambda_0ae27a3a962d80f24befdcbee591983d>@@AEAV<lambda_8d0ee55de4b1038c4002e0adecdf1839>@@$$QEAV<lambda_dc504788e8f1664fe9b84e20bfb512f2>@@@Z@4HA 000000018005f660     libucrt:per_thread_data.obj
 0004:00003660       $pdata$?fin$0@?0???$?RV<lambda_d80eeec6fff315bfe5c115232f3240e3>@@AEAV<lambda_6e4b09c48022b2350581041d5f6b0c4c>@@V<lambda_2358e3775559c9db80273638284d5e45>@@@?$__crt_seh_guarded_call@X@@QEAAX$$QEAV<lambda_d80eeec6fff315bfe5c115232f3240e3>@@AEAV<lambda_6e4b09c48022b2350581041d5f6b0c4c>@@$$QEAV<lambda_2358e3775559c9db80273638284d5e45>@@@Z@4HA 000000018005f660     libucrt:exit.obj
 0004:00003660       $pdata$?fin$0@?0???$?RV<lambda_7777bce6b2f8c936911f934f8298dc43>@@AEAV<lambda_f03950bc5685219e0bcd2087efbe011e>@@V<lambda_3883c3dff614d5e0c5f61bb1ac94921c>@@@?$__crt_seh_guarded_call@H@@QEAAH$$QEAV<lambda_7777bce6b2f8c936911f934f8298dc43>@@AEAV<lambda_f03950bc5685219e0bcd2087efbe011e>@@$$QEAV<lambda_3883c3dff614d5e0c5f61bb1ac94921c>@@@Z@4HA 000000018005f660     libucrt:onexit.obj
 0004:00003660       $pdata$?fin$0@?0???$?RV<lambda_8369fcb7c4df1e85de37618bd2b85f07>@@AEAV<lambda_a10e4b102d4a2c3aac6f4f48bbdf488f>@@V<lambda_5b7707bd6d7a0c4713179f36c7fd995d>@@@?$__crt_seh_guarded_call@H@@QEAAH$$QEAV<lambda_8369fcb7c4df1e85de37618bd2b85f07>@@AEAV<lambda_a10e4b102d4a2c3aac6f4f48bbdf488f>@@$$QEAV<lambda_5b7707bd6d7a0c4713179f36c7fd995d>@@@Z@4HA 000000018005f660     libucrt:onexit.obj
 0004:0000366c       $pdata$?filt$0@?0???R<lambda_6e4b09c48022b2350581041d5f6b0c4c>@@QEBA@XZ@4HA 000000018005f66c     libucrt:exit.obj
 0004:00003678       $pdata$?fin$0@?0???$?RV<lambda_410d79af7f07d98d83a3f525b3859a53>@@AEAV<lambda_3e16ef9562a7dcce91392c22ab16ea36>@@V<lambda_38119f0e861e05405d8a144b9b982f0a>@@@?$__crt_seh_guarded_call@X@@QEAAX$$QEAV<lambda_410d79af7f07d98d83a3f525b3859a53>@@AEAV<lambda_3e16ef9562a7dcce91392c22ab16ea36>@@$$QEAV<lambda_38119f0e861e05405d8a144b9b982f0a>@@@Z@4HA 000000018005f678     libucrt:wsetlocale.obj
 0004:00003684       $pdata$raise$fin$0         000000018005f684     libucrt:signal.obj
 0004:00003690       $pdata$?fin$0@?0??__acrt_stdio_allocate_stream@@YA?AV__crt_stdio_stream@@XZ@4HA 000000018005f690     libucrt:stream.obj
 0004:00003690       $pdata$_fcloseall$fin$0    000000018005f690     libucrt:closeall.obj
 0004:0000369c       $pdata$?fin$0@?0???$?RV<lambda_a37b2b86f63e897a80ea819b0eb08c01>@@AEAV<lambda_38ce7e780aa69e748d6df282ebc68efe>@@V<lambda_99fb1378e971ab6e7edea83e3a7a83a2>@@@?$__crt_seh_guarded_call@H@@QEAAH$$QEAV<lambda_a37b2b86f63e897a80ea819b0eb08c01>@@AEAV<lambda_38ce7e780aa69e748d6df282ebc68efe>@@$$QEAV<lambda_99fb1378e971ab6e7edea83e3a7a83a2>@@@Z@4HA 000000018005f69c     libucrt:commit.obj
 0004:0000369c       $pdata$?fin$0@?0???$?RV<lambda_751a882b2c74d4b022dec766aa51a29a>@@AEAV<lambda_628dfdc04ba53c8bfc02c9951375f3f5>@@V<lambda_f6c7be5f7998530c34de24c7437d6b54>@@@?$__crt_seh_guarded_call@H@@QEAAH$$QEAV<lambda_751a882b2c74d4b022dec766aa51a29a>@@AEAV<lambda_628dfdc04ba53c8bfc02c9951375f3f5>@@$$QEAV<lambda_f6c7be5f7998530c34de24c7437d6b54>@@@Z@4HA 000000018005f69c     libucrt:close.obj
 0004:000036a8       $pdata$_ctrlfp$filt$0      000000018005f6a8     libucrt:fpctrl.obj
 0004:000036b4       $pdata$?fin$0@?0???$common_lseek@_J@@YA_JH_JH@Z@4HA 000000018005f6b4     libucrt:lseek.obj
 0004:000036b4       $pdata$_write$fin$0        000000018005f6b4     libucrt:write.obj
 0004:000036c0       $pdata$__acrt_initialize_lowio$fin$0 000000018005f6c0     libucrt:ioinit.obj
 0004:000036c0       $pdata$__acrt_lowio_ensure_fh_exists$fin$0 000000018005f6c0     libucrt:osfinfo.obj
 0004:000036c0       $pdata$_alloc_osfhnd$fin$0 000000018005f6c0     libucrt:osfinfo.obj
 0004:000036cc       $pdata$_read$fin$0         000000018005f6cc     libucrt:read.obj
 0004:000036d8       $pdata$?fin$0@?0??update_thread_multibyte_data_internal@@YAPEAU__crt_multibyte_data@@QEAU__acrt_ptd@@QEAPEAU1@@Z@4HA 000000018005f6d8     libucrt:mbctype.obj
 0004:000036e4       $pdata$__acrt_update_thread_locale_data$fin$0 000000018005f6e4     libucrt:locale_refcounting.obj
 0004:000036f0       $pdata$?fin$0@?0???$common_sopen_dispatch@D@@YAHQEBDHHHQEAHH@Z@4HA 000000018005f6f0     libucrt:open.obj
 0004:000036fc       $pdata$_IsNonwritableInCurrentImage$filt$0 000000018005f6fc     LIBCMT:pesect.obj
 0004:00003708       $pdata$??__FpngImgAdapterConstructor@@YAXXZ 000000018005f708     PngImgAdapter.obj
 0005:00000060       $R000000                   0000000180060060     * linker generated manifest res *

 Exports

  ordinal    name

        1    _register_png_img_
